
RTOS_test_AA.elf:     file format elf32-littlearm

Sections:
Idx Name          Size      VMA       LMA       File off  Algn
  0 .text         0000ab48  00080000  00080000  00008000  2**3
                  CONTENTS, ALLOC, LOAD, READONLY, CODE
  1 .ARM.exidx    00000008  0008ab48  0008ab48  00012b48  2**2
                  CONTENTS, ALLOC, LOAD, READONLY, DATA
  2 .relocate     00000a4c  20070000  0008ab50  00018000  2**3
                  CONTENTS, ALLOC, LOAD, CODE
  3 .bss          000083b8  20070a50  0008b5a0  00018a4c  2**3
                  ALLOC
  4 .stack        00002000  20078e08  00093958  00018a4c  2**0
                  ALLOC
  5 .ARM.attributes 00000029  00000000  00000000  00018a4c  2**0
                  CONTENTS, READONLY
  6 .comment      0000005b  00000000  00000000  00018a75  2**0
                  CONTENTS, READONLY
  7 .debug_info   0001906f  00000000  00000000  00018ad0  2**0
                  CONTENTS, READONLY, DEBUGGING
  8 .debug_abbrev 00004612  00000000  00000000  00031b3f  2**0
                  CONTENTS, READONLY, DEBUGGING
  9 .debug_loc    00009060  00000000  00000000  00036151  2**0
                  CONTENTS, READONLY, DEBUGGING
 10 .debug_aranges 00001018  00000000  00000000  0003f1b1  2**0
                  CONTENTS, READONLY, DEBUGGING
 11 .debug_ranges 000011a8  00000000  00000000  000401c9  2**0
                  CONTENTS, READONLY, DEBUGGING
 12 .debug_macro  0001d4f8  00000000  00000000  00041371  2**0
                  CONTENTS, READONLY, DEBUGGING
 13 .debug_line   0001a653  00000000  00000000  0005e869  2**0
                  CONTENTS, READONLY, DEBUGGING
 14 .debug_str    0006b856  00000000  00000000  00078ebc  2**0
                  CONTENTS, READONLY, DEBUGGING
 15 .debug_frame  000033d0  00000000  00000000  000e4714  2**2
                  CONTENTS, READONLY, DEBUGGING

Disassembly of section .text:

00080000 <_sfixed>:
   80000:	2007ae08 	.word	0x2007ae08
   80004:	0008353d 	.word	0x0008353d
   80008:	00083539 	.word	0x00083539
   8000c:	00083539 	.word	0x00083539
   80010:	00083539 	.word	0x00083539
   80014:	00083539 	.word	0x00083539
   80018:	00083539 	.word	0x00083539
	...
   8002c:	00081ac1 	.word	0x00081ac1
   80030:	00083539 	.word	0x00083539
   80034:	00000000 	.word	0x00000000
   80038:	00081b3d 	.word	0x00081b3d
   8003c:	00081b79 	.word	0x00081b79
   80040:	00083539 	.word	0x00083539
   80044:	00083539 	.word	0x00083539
   80048:	00083539 	.word	0x00083539
   8004c:	00083539 	.word	0x00083539
   80050:	00083539 	.word	0x00083539
   80054:	00083539 	.word	0x00083539
   80058:	00083539 	.word	0x00083539
   8005c:	00083539 	.word	0x00083539
   80060:	00083539 	.word	0x00083539
   80064:	00083539 	.word	0x00083539
   80068:	00000000 	.word	0x00000000
   8006c:	000833a9 	.word	0x000833a9
   80070:	000833bd 	.word	0x000833bd
   80074:	000833d1 	.word	0x000833d1
   80078:	000833e5 	.word	0x000833e5
	...
   80084:	00081699 	.word	0x00081699
   80088:	00083539 	.word	0x00083539
   8008c:	00083539 	.word	0x00083539
   80090:	00083539 	.word	0x00083539
   80094:	00083539 	.word	0x00083539
   80098:	00083539 	.word	0x00083539
   8009c:	00083539 	.word	0x00083539
   800a0:	00083539 	.word	0x00083539
   800a4:	00000000 	.word	0x00000000
   800a8:	00083539 	.word	0x00083539
   800ac:	00083539 	.word	0x00083539
   800b0:	00083539 	.word	0x00083539
   800b4:	00083539 	.word	0x00083539
   800b8:	00083539 	.word	0x00083539
   800bc:	00083539 	.word	0x00083539
   800c0:	00083539 	.word	0x00083539
   800c4:	00083539 	.word	0x00083539
   800c8:	00083539 	.word	0x00083539
   800cc:	00083539 	.word	0x00083539
   800d0:	00083539 	.word	0x00083539
   800d4:	00083539 	.word	0x00083539
   800d8:	00083539 	.word	0x00083539
   800dc:	00083539 	.word	0x00083539
   800e0:	00083539 	.word	0x00083539
   800e4:	00083539 	.word	0x00083539
   800e8:	00083539 	.word	0x00083539
   800ec:	00083539 	.word	0x00083539
   800f0:	00083539 	.word	0x00083539

000800f4 <__do_global_dtors_aux>:
   800f4:	b510      	push	{r4, lr}
   800f6:	4c05      	ldr	r4, [pc, #20]	; (8010c <__do_global_dtors_aux+0x18>)
   800f8:	7823      	ldrb	r3, [r4, #0]
   800fa:	b933      	cbnz	r3, 8010a <__do_global_dtors_aux+0x16>
   800fc:	4b04      	ldr	r3, [pc, #16]	; (80110 <__do_global_dtors_aux+0x1c>)
   800fe:	b113      	cbz	r3, 80106 <__do_global_dtors_aux+0x12>
   80100:	4804      	ldr	r0, [pc, #16]	; (80114 <__do_global_dtors_aux+0x20>)
   80102:	f3af 8000 	nop.w
   80106:	2301      	movs	r3, #1
   80108:	7023      	strb	r3, [r4, #0]
   8010a:	bd10      	pop	{r4, pc}
   8010c:	20070a50 	.word	0x20070a50
   80110:	00000000 	.word	0x00000000
   80114:	0008ab50 	.word	0x0008ab50

00080118 <frame_dummy>:
   80118:	b508      	push	{r3, lr}
   8011a:	4b06      	ldr	r3, [pc, #24]	; (80134 <frame_dummy+0x1c>)
   8011c:	b11b      	cbz	r3, 80126 <frame_dummy+0xe>
   8011e:	4806      	ldr	r0, [pc, #24]	; (80138 <frame_dummy+0x20>)
   80120:	4906      	ldr	r1, [pc, #24]	; (8013c <frame_dummy+0x24>)
   80122:	f3af 8000 	nop.w
   80126:	4806      	ldr	r0, [pc, #24]	; (80140 <frame_dummy+0x28>)
   80128:	6803      	ldr	r3, [r0, #0]
   8012a:	b113      	cbz	r3, 80132 <frame_dummy+0x1a>
   8012c:	4b05      	ldr	r3, [pc, #20]	; (80144 <frame_dummy+0x2c>)
   8012e:	b103      	cbz	r3, 80132 <frame_dummy+0x1a>
   80130:	4798      	blx	r3
   80132:	bd08      	pop	{r3, pc}
   80134:	00000000 	.word	0x00000000
   80138:	0008ab50 	.word	0x0008ab50
   8013c:	20070a54 	.word	0x20070a54
   80140:	0008ab50 	.word	0x0008ab50
   80144:	00000000 	.word	0x00000000

00080148 <init_twi_functions>:
   80148:	b500      	push	{lr}
   8014a:	b085      	sub	sp, #20
   8014c:	4b12      	ldr	r3, [pc, #72]	; (80198 <init_twi_functions+0x50>)
   8014e:	9302      	str	r3, [sp, #8]
   80150:	4b12      	ldr	r3, [pc, #72]	; (8019c <init_twi_functions+0x54>)
   80152:	9301      	str	r3, [sp, #4]
   80154:	2300      	movs	r3, #0
   80156:	f88d 300d 	strb.w	r3, [sp, #13]
   8015a:	2016      	movs	r0, #22
   8015c:	4b10      	ldr	r3, [pc, #64]	; (801a0 <init_twi_functions+0x58>)
   8015e:	4798      	blx	r3
   80160:	4810      	ldr	r0, [pc, #64]	; (801a4 <init_twi_functions+0x5c>)
   80162:	a901      	add	r1, sp, #4
   80164:	4b10      	ldr	r3, [pc, #64]	; (801a8 <init_twi_functions+0x60>)
   80166:	4798      	blx	r3
   80168:	b910      	cbnz	r0, 80170 <init_twi_functions+0x28>
   8016a:	4810      	ldr	r0, [pc, #64]	; (801ac <init_twi_functions+0x64>)
   8016c:	4b10      	ldr	r3, [pc, #64]	; (801b0 <init_twi_functions+0x68>)
   8016e:	4798      	blx	r3
   80170:	4b0a      	ldr	r3, [pc, #40]	; (8019c <init_twi_functions+0x54>)
   80172:	9301      	str	r3, [sp, #4]
   80174:	2300      	movs	r3, #0
   80176:	f88d 300d 	strb.w	r3, [sp, #13]
   8017a:	2017      	movs	r0, #23
   8017c:	4b08      	ldr	r3, [pc, #32]	; (801a0 <init_twi_functions+0x58>)
   8017e:	4798      	blx	r3
   80180:	480c      	ldr	r0, [pc, #48]	; (801b4 <init_twi_functions+0x6c>)
   80182:	a901      	add	r1, sp, #4
   80184:	4b08      	ldr	r3, [pc, #32]	; (801a8 <init_twi_functions+0x60>)
   80186:	4798      	blx	r3
   80188:	b910      	cbnz	r0, 80190 <init_twi_functions+0x48>
   8018a:	480b      	ldr	r0, [pc, #44]	; (801b8 <init_twi_functions+0x70>)
   8018c:	4b08      	ldr	r3, [pc, #32]	; (801b0 <init_twi_functions+0x68>)
   8018e:	4798      	blx	r3
   80190:	b005      	add	sp, #20
   80192:	f85d fb04 	ldr.w	pc, [sp], #4
   80196:	bf00      	nop
   80198:	000186a0 	.word	0x000186a0
   8019c:	0501bd00 	.word	0x0501bd00
   801a0:	000834e1 	.word	0x000834e1
   801a4:	4008c000 	.word	0x4008c000
   801a8:	00080525 	.word	0x00080525
   801ac:	0008a514 	.word	0x0008a514
   801b0:	00084959 	.word	0x00084959
   801b4:	40090000 	.word	0x40090000
   801b8:	0008a520 	.word	0x0008a520

000801bc <send_package>:
   801bc:	b570      	push	{r4, r5, r6, lr}
   801be:	4605      	mov	r5, r0
   801c0:	460c      	mov	r4, r1
   801c2:	481a      	ldr	r0, [pc, #104]	; (8022c <send_package+0x70>)
   801c4:	4b1a      	ldr	r3, [pc, #104]	; (80230 <send_package+0x74>)
   801c6:	4798      	blx	r3
   801c8:	2c03      	cmp	r4, #3
   801ca:	d116      	bne.n	801fa <send_package+0x3e>
   801cc:	4819      	ldr	r0, [pc, #100]	; (80234 <send_package+0x78>)
   801ce:	4c18      	ldr	r4, [pc, #96]	; (80230 <send_package+0x74>)
   801d0:	47a0      	blx	r4
   801d2:	4a19      	ldr	r2, [pc, #100]	; (80238 <send_package+0x7c>)
   801d4:	7015      	strb	r5, [r2, #0]
   801d6:	4b19      	ldr	r3, [pc, #100]	; (8023c <send_package+0x80>)
   801d8:	2103      	movs	r1, #3
   801da:	7419      	strb	r1, [r3, #16]
   801dc:	609a      	str	r2, [r3, #8]
   801de:	4818      	ldr	r0, [pc, #96]	; (80240 <send_package+0x84>)
   801e0:	47a0      	blx	r4
   801e2:	4e18      	ldr	r6, [pc, #96]	; (80244 <send_package+0x88>)
   801e4:	4d15      	ldr	r5, [pc, #84]	; (8023c <send_package+0x80>)
   801e6:	4c18      	ldr	r4, [pc, #96]	; (80248 <send_package+0x8c>)
   801e8:	4630      	mov	r0, r6
   801ea:	4629      	mov	r1, r5
   801ec:	47a0      	blx	r4
   801ee:	2800      	cmp	r0, #0
   801f0:	d1fa      	bne.n	801e8 <send_package+0x2c>
   801f2:	4816      	ldr	r0, [pc, #88]	; (8024c <send_package+0x90>)
   801f4:	4b0e      	ldr	r3, [pc, #56]	; (80230 <send_package+0x74>)
   801f6:	4798      	blx	r3
   801f8:	bd70      	pop	{r4, r5, r6, pc}
   801fa:	2c02      	cmp	r4, #2
   801fc:	d115      	bne.n	8022a <send_package+0x6e>
   801fe:	4814      	ldr	r0, [pc, #80]	; (80250 <send_package+0x94>)
   80200:	4c0b      	ldr	r4, [pc, #44]	; (80230 <send_package+0x74>)
   80202:	47a0      	blx	r4
   80204:	4a13      	ldr	r2, [pc, #76]	; (80254 <send_package+0x98>)
   80206:	7015      	strb	r5, [r2, #0]
   80208:	4b13      	ldr	r3, [pc, #76]	; (80258 <send_package+0x9c>)
   8020a:	2102      	movs	r1, #2
   8020c:	7419      	strb	r1, [r3, #16]
   8020e:	609a      	str	r2, [r3, #8]
   80210:	480b      	ldr	r0, [pc, #44]	; (80240 <send_package+0x84>)
   80212:	47a0      	blx	r4
   80214:	4e0b      	ldr	r6, [pc, #44]	; (80244 <send_package+0x88>)
   80216:	4d10      	ldr	r5, [pc, #64]	; (80258 <send_package+0x9c>)
   80218:	4c0b      	ldr	r4, [pc, #44]	; (80248 <send_package+0x8c>)
   8021a:	4630      	mov	r0, r6
   8021c:	4629      	mov	r1, r5
   8021e:	47a0      	blx	r4
   80220:	2800      	cmp	r0, #0
   80222:	d1fa      	bne.n	8021a <send_package+0x5e>
   80224:	480d      	ldr	r0, [pc, #52]	; (8025c <send_package+0xa0>)
   80226:	4b02      	ldr	r3, [pc, #8]	; (80230 <send_package+0x74>)
   80228:	4798      	blx	r3
   8022a:	bd70      	pop	{r4, r5, r6, pc}
   8022c:	0008a52c 	.word	0x0008a52c
   80230:	00084959 	.word	0x00084959
   80234:	0008a538 	.word	0x0008a538
   80238:	20070a70 	.word	0x20070a70
   8023c:	20070174 	.word	0x20070174
   80240:	0008a544 	.word	0x0008a544
   80244:	4008c000 	.word	0x4008c000
   80248:	00080639 	.word	0x00080639
   8024c:	0008a554 	.word	0x0008a554
   80250:	0008a568 	.word	0x0008a568
   80254:	20070a6c 	.word	0x20070a6c
   80258:	20070160 	.word	0x20070160
   8025c:	0008a574 	.word	0x0008a574

00080260 <receive_package>:
   80260:	b570      	push	{r4, r5, r6, lr}
   80262:	4604      	mov	r4, r0
   80264:	4812      	ldr	r0, [pc, #72]	; (802b0 <receive_package+0x50>)
   80266:	4b13      	ldr	r3, [pc, #76]	; (802b4 <receive_package+0x54>)
   80268:	4798      	blx	r3
   8026a:	2c03      	cmp	r4, #3
   8026c:	d10e      	bne.n	8028c <receive_package+0x2c>
   8026e:	4812      	ldr	r0, [pc, #72]	; (802b8 <receive_package+0x58>)
   80270:	4b10      	ldr	r3, [pc, #64]	; (802b4 <receive_package+0x54>)
   80272:	4798      	blx	r3
   80274:	4e11      	ldr	r6, [pc, #68]	; (802bc <receive_package+0x5c>)
   80276:	4d12      	ldr	r5, [pc, #72]	; (802c0 <receive_package+0x60>)
   80278:	4c12      	ldr	r4, [pc, #72]	; (802c4 <receive_package+0x64>)
   8027a:	4630      	mov	r0, r6
   8027c:	4629      	mov	r1, r5
   8027e:	47a0      	blx	r4
   80280:	2800      	cmp	r0, #0
   80282:	d1fa      	bne.n	8027a <receive_package+0x1a>
   80284:	4810      	ldr	r0, [pc, #64]	; (802c8 <receive_package+0x68>)
   80286:	4b0b      	ldr	r3, [pc, #44]	; (802b4 <receive_package+0x54>)
   80288:	4798      	blx	r3
   8028a:	bd70      	pop	{r4, r5, r6, pc}
   8028c:	2c02      	cmp	r4, #2
   8028e:	d10d      	bne.n	802ac <receive_package+0x4c>
   80290:	480e      	ldr	r0, [pc, #56]	; (802cc <receive_package+0x6c>)
   80292:	4b08      	ldr	r3, [pc, #32]	; (802b4 <receive_package+0x54>)
   80294:	4798      	blx	r3
   80296:	4e09      	ldr	r6, [pc, #36]	; (802bc <receive_package+0x5c>)
   80298:	4d0d      	ldr	r5, [pc, #52]	; (802d0 <receive_package+0x70>)
   8029a:	4c0a      	ldr	r4, [pc, #40]	; (802c4 <receive_package+0x64>)
   8029c:	4630      	mov	r0, r6
   8029e:	4629      	mov	r1, r5
   802a0:	47a0      	blx	r4
   802a2:	2800      	cmp	r0, #0
   802a4:	d1fa      	bne.n	8029c <receive_package+0x3c>
   802a6:	4808      	ldr	r0, [pc, #32]	; (802c8 <receive_package+0x68>)
   802a8:	4b02      	ldr	r3, [pc, #8]	; (802b4 <receive_package+0x54>)
   802aa:	4798      	blx	r3
   802ac:	bd70      	pop	{r4, r5, r6, pc}
   802ae:	bf00      	nop
   802b0:	0008a588 	.word	0x0008a588
   802b4:	00084959 	.word	0x00084959
   802b8:	0008a59c 	.word	0x0008a59c
   802bc:	4008c000 	.word	0x4008c000
   802c0:	2007014c 	.word	0x2007014c
   802c4:	00080565 	.word	0x00080565
   802c8:	0008a5b4 	.word	0x0008a5b4
   802cc:	0008a5c4 	.word	0x0008a5c4
   802d0:	20070138 	.word	0x20070138

000802d4 <na_sendstatus>:
   802d4:	b508      	push	{r3, lr}
   802d6:	3850      	subs	r0, #80	; 0x50
   802d8:	2805      	cmp	r0, #5
   802da:	d872      	bhi.n	803c2 <na_sendstatus+0xee>
   802dc:	e8df f000 	tbb	[pc, r0]
   802e0:	30160e03 	.word	0x30160e03
   802e4:	5c46      	.short	0x5c46
   802e6:	2050      	movs	r0, #80	; 0x50
   802e8:	2103      	movs	r1, #3
   802ea:	4b36      	ldr	r3, [pc, #216]	; (803c4 <na_sendstatus+0xf0>)
   802ec:	4798      	blx	r3
   802ee:	200a      	movs	r0, #10
   802f0:	4b35      	ldr	r3, [pc, #212]	; (803c8 <na_sendstatus+0xf4>)
   802f2:	4798      	blx	r3
   802f4:	2003      	movs	r0, #3
   802f6:	4b35      	ldr	r3, [pc, #212]	; (803cc <na_sendstatus+0xf8>)
   802f8:	4798      	blx	r3
   802fa:	bd08      	pop	{r3, pc}
   802fc:	2051      	movs	r0, #81	; 0x51
   802fe:	2103      	movs	r1, #3
   80300:	4b30      	ldr	r3, [pc, #192]	; (803c4 <na_sendstatus+0xf0>)
   80302:	4798      	blx	r3
   80304:	2003      	movs	r0, #3
   80306:	4b31      	ldr	r3, [pc, #196]	; (803cc <na_sendstatus+0xf8>)
   80308:	4798      	blx	r3
   8030a:	bd08      	pop	{r3, pc}
   8030c:	2052      	movs	r0, #82	; 0x52
   8030e:	2103      	movs	r1, #3
   80310:	4b2c      	ldr	r3, [pc, #176]	; (803c4 <na_sendstatus+0xf0>)
   80312:	4798      	blx	r3
   80314:	f24c 3050 	movw	r0, #50000	; 0xc350
   80318:	4b2d      	ldr	r3, [pc, #180]	; (803d0 <na_sendstatus+0xfc>)
   8031a:	4798      	blx	r3
   8031c:	2003      	movs	r0, #3
   8031e:	4b2b      	ldr	r3, [pc, #172]	; (803cc <na_sendstatus+0xf8>)
   80320:	4798      	blx	r3
   80322:	4a2c      	ldr	r2, [pc, #176]	; (803d4 <na_sendstatus+0x100>)
   80324:	2302      	movs	r3, #2
   80326:	7013      	strb	r3, [r2, #0]
   80328:	4b2b      	ldr	r3, [pc, #172]	; (803d8 <na_sendstatus+0x104>)
   8032a:	7858      	ldrb	r0, [r3, #1]
   8032c:	7899      	ldrb	r1, [r3, #2]
   8032e:	ea41 2100 	orr.w	r1, r1, r0, lsl #8
   80332:	8051      	strh	r1, [r2, #2]
   80334:	78d9      	ldrb	r1, [r3, #3]
   80336:	791b      	ldrb	r3, [r3, #4]
   80338:	ea43 2301 	orr.w	r3, r3, r1, lsl #8
   8033c:	8093      	strh	r3, [r2, #4]
   8033e:	bd08      	pop	{r3, pc}
   80340:	2053      	movs	r0, #83	; 0x53
   80342:	2103      	movs	r1, #3
   80344:	4b1f      	ldr	r3, [pc, #124]	; (803c4 <na_sendstatus+0xf0>)
   80346:	4798      	blx	r3
   80348:	2003      	movs	r0, #3
   8034a:	4b20      	ldr	r3, [pc, #128]	; (803cc <na_sendstatus+0xf8>)
   8034c:	4798      	blx	r3
   8034e:	4a21      	ldr	r2, [pc, #132]	; (803d4 <na_sendstatus+0x100>)
   80350:	2303      	movs	r3, #3
   80352:	7193      	strb	r3, [r2, #6]
   80354:	4b20      	ldr	r3, [pc, #128]	; (803d8 <na_sendstatus+0x104>)
   80356:	7858      	ldrb	r0, [r3, #1]
   80358:	7899      	ldrb	r1, [r3, #2]
   8035a:	ea41 2100 	orr.w	r1, r1, r0, lsl #8
   8035e:	8111      	strh	r1, [r2, #8]
   80360:	78d9      	ldrb	r1, [r3, #3]
   80362:	791b      	ldrb	r3, [r3, #4]
   80364:	ea43 2301 	orr.w	r3, r3, r1, lsl #8
   80368:	8153      	strh	r3, [r2, #10]
   8036a:	bd08      	pop	{r3, pc}
   8036c:	2054      	movs	r0, #84	; 0x54
   8036e:	2103      	movs	r1, #3
   80370:	4b14      	ldr	r3, [pc, #80]	; (803c4 <na_sendstatus+0xf0>)
   80372:	4798      	blx	r3
   80374:	2003      	movs	r0, #3
   80376:	4b15      	ldr	r3, [pc, #84]	; (803cc <na_sendstatus+0xf8>)
   80378:	4798      	blx	r3
   8037a:	4a16      	ldr	r2, [pc, #88]	; (803d4 <na_sendstatus+0x100>)
   8037c:	2304      	movs	r3, #4
   8037e:	7313      	strb	r3, [r2, #12]
   80380:	4b15      	ldr	r3, [pc, #84]	; (803d8 <na_sendstatus+0x104>)
   80382:	7858      	ldrb	r0, [r3, #1]
   80384:	7899      	ldrb	r1, [r3, #2]
   80386:	ea41 2100 	orr.w	r1, r1, r0, lsl #8
   8038a:	81d1      	strh	r1, [r2, #14]
   8038c:	78d9      	ldrb	r1, [r3, #3]
   8038e:	791b      	ldrb	r3, [r3, #4]
   80390:	ea43 2301 	orr.w	r3, r3, r1, lsl #8
   80394:	8213      	strh	r3, [r2, #16]
   80396:	bd08      	pop	{r3, pc}
   80398:	2055      	movs	r0, #85	; 0x55
   8039a:	2103      	movs	r1, #3
   8039c:	4b09      	ldr	r3, [pc, #36]	; (803c4 <na_sendstatus+0xf0>)
   8039e:	4798      	blx	r3
   803a0:	2003      	movs	r0, #3
   803a2:	4b0a      	ldr	r3, [pc, #40]	; (803cc <na_sendstatus+0xf8>)
   803a4:	4798      	blx	r3
   803a6:	4a0b      	ldr	r2, [pc, #44]	; (803d4 <na_sendstatus+0x100>)
   803a8:	2355      	movs	r3, #85	; 0x55
   803aa:	7493      	strb	r3, [r2, #18]
   803ac:	4b0a      	ldr	r3, [pc, #40]	; (803d8 <na_sendstatus+0x104>)
   803ae:	7858      	ldrb	r0, [r3, #1]
   803b0:	7899      	ldrb	r1, [r3, #2]
   803b2:	ea41 2100 	orr.w	r1, r1, r0, lsl #8
   803b6:	8291      	strh	r1, [r2, #20]
   803b8:	78d9      	ldrb	r1, [r3, #3]
   803ba:	791b      	ldrb	r3, [r3, #4]
   803bc:	ea43 2301 	orr.w	r3, r3, r1, lsl #8
   803c0:	82d3      	strh	r3, [r2, #22]
   803c2:	bd08      	pop	{r3, pc}
   803c4:	000801bd 	.word	0x000801bd
   803c8:	00082861 	.word	0x00082861
   803cc:	00080261 	.word	0x00080261
   803d0:	00081941 	.word	0x00081941
   803d4:	20078da0 	.word	0x20078da0
   803d8:	20070a78 	.word	0x20070a78

000803dc <pa_sendstatus>:
   803dc:	e92d 43f8 	stmdb	sp!, {r3, r4, r5, r6, r7, r8, r9, lr}
   803e0:	3820      	subs	r0, #32
   803e2:	2805      	cmp	r0, #5
   803e4:	d86d      	bhi.n	804c2 <pa_sendstatus+0xe6>
   803e6:	e8df f000 	tbb	[pc, r0]
   803ea:	3003      	.short	0x3003
   803ec:	68556236 	.word	0x68556236
   803f0:	f8df 90e4 	ldr.w	r9, [pc, #228]	; 804d8 <pa_sendstatus+0xfc>
   803f4:	2402      	movs	r4, #2
   803f6:	f889 4001 	strb.w	r4, [r9, #1]
   803fa:	2020      	movs	r0, #32
   803fc:	4621      	mov	r1, r4
   803fe:	f8df 80d4 	ldr.w	r8, [pc, #212]	; 804d4 <pa_sendstatus+0xf8>
   80402:	47c0      	blx	r8
   80404:	4620      	mov	r0, r4
   80406:	4f30      	ldr	r7, [pc, #192]	; (804c8 <pa_sendstatus+0xec>)
   80408:	47b8      	blx	r7
   8040a:	4d30      	ldr	r5, [pc, #192]	; (804cc <pa_sendstatus+0xf0>)
   8040c:	4e30      	ldr	r6, [pc, #192]	; (804d0 <pa_sendstatus+0xf4>)
   8040e:	7873      	ldrb	r3, [r6, #1]
   80410:	702b      	strb	r3, [r5, #0]
   80412:	78b3      	ldrb	r3, [r6, #2]
   80414:	706b      	strb	r3, [r5, #1]
   80416:	2303      	movs	r3, #3
   80418:	f889 3001 	strb.w	r3, [r9, #1]
   8041c:	2020      	movs	r0, #32
   8041e:	4621      	mov	r1, r4
   80420:	47c0      	blx	r8
   80422:	4620      	mov	r0, r4
   80424:	47b8      	blx	r7
   80426:	7873      	ldrb	r3, [r6, #1]
   80428:	70ab      	strb	r3, [r5, #2]
   8042a:	78b3      	ldrb	r3, [r6, #2]
   8042c:	70eb      	strb	r3, [r5, #3]
   8042e:	2304      	movs	r3, #4
   80430:	f889 3001 	strb.w	r3, [r9, #1]
   80434:	2020      	movs	r0, #32
   80436:	4621      	mov	r1, r4
   80438:	47c0      	blx	r8
   8043a:	4620      	mov	r0, r4
   8043c:	47b8      	blx	r7
   8043e:	7873      	ldrb	r3, [r6, #1]
   80440:	712b      	strb	r3, [r5, #4]
   80442:	78b3      	ldrb	r3, [r6, #2]
   80444:	716b      	strb	r3, [r5, #5]
   80446:	e8bd 83f8 	ldmia.w	sp!, {r3, r4, r5, r6, r7, r8, r9, pc}
   8044a:	2021      	movs	r0, #33	; 0x21
   8044c:	2102      	movs	r1, #2
   8044e:	4b21      	ldr	r3, [pc, #132]	; (804d4 <pa_sendstatus+0xf8>)
   80450:	4798      	blx	r3
   80452:	e8bd 83f8 	ldmia.w	sp!, {r3, r4, r5, r6, r7, r8, r9, pc}
   80456:	2902      	cmp	r1, #2
   80458:	d106      	bne.n	80468 <pa_sendstatus+0x8c>
   8045a:	4b1f      	ldr	r3, [pc, #124]	; (804d8 <pa_sendstatus+0xfc>)
   8045c:	7059      	strb	r1, [r3, #1]
   8045e:	2022      	movs	r0, #34	; 0x22
   80460:	4b1c      	ldr	r3, [pc, #112]	; (804d4 <pa_sendstatus+0xf8>)
   80462:	4798      	blx	r3
   80464:	e8bd 83f8 	ldmia.w	sp!, {r3, r4, r5, r6, r7, r8, r9, pc}
   80468:	2903      	cmp	r1, #3
   8046a:	d108      	bne.n	8047e <pa_sendstatus+0xa2>
   8046c:	2203      	movs	r2, #3
   8046e:	4b1a      	ldr	r3, [pc, #104]	; (804d8 <pa_sendstatus+0xfc>)
   80470:	705a      	strb	r2, [r3, #1]
   80472:	2022      	movs	r0, #34	; 0x22
   80474:	2102      	movs	r1, #2
   80476:	4b17      	ldr	r3, [pc, #92]	; (804d4 <pa_sendstatus+0xf8>)
   80478:	4798      	blx	r3
   8047a:	e8bd 83f8 	ldmia.w	sp!, {r3, r4, r5, r6, r7, r8, r9, pc}
   8047e:	2904      	cmp	r1, #4
   80480:	d11f      	bne.n	804c2 <pa_sendstatus+0xe6>
   80482:	2204      	movs	r2, #4
   80484:	4b14      	ldr	r3, [pc, #80]	; (804d8 <pa_sendstatus+0xfc>)
   80486:	705a      	strb	r2, [r3, #1]
   80488:	2022      	movs	r0, #34	; 0x22
   8048a:	2102      	movs	r1, #2
   8048c:	4b11      	ldr	r3, [pc, #68]	; (804d4 <pa_sendstatus+0xf8>)
   8048e:	4798      	blx	r3
   80490:	e8bd 83f8 	ldmia.w	sp!, {r3, r4, r5, r6, r7, r8, r9, pc}
   80494:	2024      	movs	r0, #36	; 0x24
   80496:	2102      	movs	r1, #2
   80498:	4b0e      	ldr	r3, [pc, #56]	; (804d4 <pa_sendstatus+0xf8>)
   8049a:	4798      	blx	r3
   8049c:	f64e 2060 	movw	r0, #60000	; 0xea60
   804a0:	4b0e      	ldr	r3, [pc, #56]	; (804dc <pa_sendstatus+0x100>)
   804a2:	4798      	blx	r3
   804a4:	2002      	movs	r0, #2
   804a6:	4b08      	ldr	r3, [pc, #32]	; (804c8 <pa_sendstatus+0xec>)
   804a8:	4798      	blx	r3
   804aa:	e8bd 83f8 	ldmia.w	sp!, {r3, r4, r5, r6, r7, r8, r9, pc}
   804ae:	2023      	movs	r0, #35	; 0x23
   804b0:	2102      	movs	r1, #2
   804b2:	4b08      	ldr	r3, [pc, #32]	; (804d4 <pa_sendstatus+0xf8>)
   804b4:	4798      	blx	r3
   804b6:	e8bd 83f8 	ldmia.w	sp!, {r3, r4, r5, r6, r7, r8, r9, pc}
   804ba:	2025      	movs	r0, #37	; 0x25
   804bc:	2102      	movs	r1, #2
   804be:	4b05      	ldr	r3, [pc, #20]	; (804d4 <pa_sendstatus+0xf8>)
   804c0:	4798      	blx	r3
   804c2:	e8bd 83f8 	ldmia.w	sp!, {r3, r4, r5, r6, r7, r8, r9, pc}
   804c6:	bf00      	nop
   804c8:	00080261 	.word	0x00080261
   804cc:	20078dbc 	.word	0x20078dbc
   804d0:	20070a74 	.word	0x20070a74
   804d4:	000801bd 	.word	0x000801bd
   804d8:	20070a6c 	.word	0x20070a6c
   804dc:	20070001 	.word	0x20070001

000804e0 <twi_set_speed>:
   804e0:	4b0f      	ldr	r3, [pc, #60]	; (80520 <twi_set_speed+0x40>)
   804e2:	4299      	cmp	r1, r3
   804e4:	d819      	bhi.n	8051a <twi_set_speed+0x3a>
   804e6:	0049      	lsls	r1, r1, #1
   804e8:	fbb2 f2f1 	udiv	r2, r2, r1
   804ec:	3a04      	subs	r2, #4
   804ee:	2aff      	cmp	r2, #255	; 0xff
   804f0:	d907      	bls.n	80502 <twi_set_speed+0x22>
   804f2:	2300      	movs	r3, #0
   804f4:	3301      	adds	r3, #1
   804f6:	0852      	lsrs	r2, r2, #1
   804f8:	2aff      	cmp	r2, #255	; 0xff
   804fa:	d903      	bls.n	80504 <twi_set_speed+0x24>
   804fc:	2b07      	cmp	r3, #7
   804fe:	d1f9      	bne.n	804f4 <twi_set_speed+0x14>
   80500:	e000      	b.n	80504 <twi_set_speed+0x24>
   80502:	2300      	movs	r3, #0
   80504:	0211      	lsls	r1, r2, #8
   80506:	b289      	uxth	r1, r1
   80508:	041b      	lsls	r3, r3, #16
   8050a:	f403 23e0 	and.w	r3, r3, #458752	; 0x70000
   8050e:	430b      	orrs	r3, r1
   80510:	b2d2      	uxtb	r2, r2
   80512:	431a      	orrs	r2, r3
   80514:	6102      	str	r2, [r0, #16]
   80516:	2000      	movs	r0, #0
   80518:	4770      	bx	lr
   8051a:	2001      	movs	r0, #1
   8051c:	4770      	bx	lr
   8051e:	bf00      	nop
   80520:	00061a80 	.word	0x00061a80

00080524 <twi_master_init>:
   80524:	b538      	push	{r3, r4, r5, lr}
   80526:	4604      	mov	r4, r0
   80528:	460d      	mov	r5, r1
   8052a:	f04f 33ff 	mov.w	r3, #4294967295
   8052e:	6283      	str	r3, [r0, #40]	; 0x28
   80530:	6a03      	ldr	r3, [r0, #32]
   80532:	2380      	movs	r3, #128	; 0x80
   80534:	6003      	str	r3, [r0, #0]
   80536:	6b03      	ldr	r3, [r0, #48]	; 0x30
   80538:	2308      	movs	r3, #8
   8053a:	6003      	str	r3, [r0, #0]
   8053c:	2320      	movs	r3, #32
   8053e:	6003      	str	r3, [r0, #0]
   80540:	2304      	movs	r3, #4
   80542:	6003      	str	r3, [r0, #0]
   80544:	6849      	ldr	r1, [r1, #4]
   80546:	682a      	ldr	r2, [r5, #0]
   80548:	4b05      	ldr	r3, [pc, #20]	; (80560 <twi_master_init+0x3c>)
   8054a:	4798      	blx	r3
   8054c:	2801      	cmp	r0, #1
   8054e:	bf14      	ite	ne
   80550:	2000      	movne	r0, #0
   80552:	2001      	moveq	r0, #1
   80554:	7a6b      	ldrb	r3, [r5, #9]
   80556:	2b01      	cmp	r3, #1
   80558:	bf04      	itt	eq
   8055a:	2340      	moveq	r3, #64	; 0x40
   8055c:	6023      	streq	r3, [r4, #0]
   8055e:	bd38      	pop	{r3, r4, r5, pc}
   80560:	000804e1 	.word	0x000804e1

00080564 <twi_master_read>:
   80564:	e92d 03f0 	stmdb	sp!, {r4, r5, r6, r7, r8, r9}
   80568:	4604      	mov	r4, r0
   8056a:	68cb      	ldr	r3, [r1, #12]
   8056c:	688e      	ldr	r6, [r1, #8]
   8056e:	2b00      	cmp	r3, #0
   80570:	d049      	beq.n	80606 <twi_master_read+0xa2>
   80572:	2200      	movs	r2, #0
   80574:	6042      	str	r2, [r0, #4]
   80576:	6848      	ldr	r0, [r1, #4]
   80578:	0200      	lsls	r0, r0, #8
   8057a:	f400 7040 	and.w	r0, r0, #768	; 0x300
   8057e:	f440 5080 	orr.w	r0, r0, #4096	; 0x1000
   80582:	7c0d      	ldrb	r5, [r1, #16]
   80584:	042d      	lsls	r5, r5, #16
   80586:	f405 05fe 	and.w	r5, r5, #8323072	; 0x7f0000
   8058a:	4328      	orrs	r0, r5
   8058c:	6060      	str	r0, [r4, #4]
   8058e:	60e2      	str	r2, [r4, #12]
   80590:	684a      	ldr	r2, [r1, #4]
   80592:	b15a      	cbz	r2, 805ac <twi_master_read+0x48>
   80594:	7808      	ldrb	r0, [r1, #0]
   80596:	2a01      	cmp	r2, #1
   80598:	bfc4      	itt	gt
   8059a:	784d      	ldrbgt	r5, [r1, #1]
   8059c:	ea45 2000 	orrgt.w	r0, r5, r0, lsl #8
   805a0:	2a02      	cmp	r2, #2
   805a2:	dd04      	ble.n	805ae <twi_master_read+0x4a>
   805a4:	788a      	ldrb	r2, [r1, #2]
   805a6:	ea42 2000 	orr.w	r0, r2, r0, lsl #8
   805aa:	e000      	b.n	805ae <twi_master_read+0x4a>
   805ac:	2000      	movs	r0, #0
   805ae:	60e0      	str	r0, [r4, #12]
   805b0:	2b01      	cmp	r3, #1
   805b2:	d104      	bne.n	805be <twi_master_read+0x5a>
   805b4:	2203      	movs	r2, #3
   805b6:	6022      	str	r2, [r4, #0]
   805b8:	f04f 0c01 	mov.w	ip, #1
   805bc:	e02b      	b.n	80616 <twi_master_read+0xb2>
   805be:	2201      	movs	r2, #1
   805c0:	6022      	str	r2, [r4, #0]
   805c2:	f04f 0c00 	mov.w	ip, #0
   805c6:	e026      	b.n	80616 <twi_master_read+0xb2>
   805c8:	6a21      	ldr	r1, [r4, #32]
   805ca:	f411 7f80 	tst.w	r1, #256	; 0x100
   805ce:	d11c      	bne.n	8060a <twi_master_read+0xa6>
   805d0:	1e55      	subs	r5, r2, #1
   805d2:	b1e2      	cbz	r2, 8060e <twi_master_read+0xaa>
   805d4:	462a      	mov	r2, r5
   805d6:	2b01      	cmp	r3, #1
   805d8:	d105      	bne.n	805e6 <twi_master_read+0x82>
   805da:	f1bc 0f00 	cmp.w	ip, #0
   805de:	d102      	bne.n	805e6 <twi_master_read+0x82>
   805e0:	f8c4 9000 	str.w	r9, [r4]
   805e4:	46c4      	mov	ip, r8
   805e6:	f011 0f02 	tst.w	r1, #2
   805ea:	d004      	beq.n	805f6 <twi_master_read+0x92>
   805ec:	6b22      	ldr	r2, [r4, #48]	; 0x30
   805ee:	7032      	strb	r2, [r6, #0]
   805f0:	3b01      	subs	r3, #1
   805f2:	3601      	adds	r6, #1
   805f4:	463a      	mov	r2, r7
   805f6:	2b00      	cmp	r3, #0
   805f8:	d1e6      	bne.n	805c8 <twi_master_read+0x64>
   805fa:	6a23      	ldr	r3, [r4, #32]
   805fc:	f013 0f01 	tst.w	r3, #1
   80600:	d0fb      	beq.n	805fa <twi_master_read+0x96>
   80602:	6a23      	ldr	r3, [r4, #32]
   80604:	e014      	b.n	80630 <twi_master_read+0xcc>
   80606:	2001      	movs	r0, #1
   80608:	e012      	b.n	80630 <twi_master_read+0xcc>
   8060a:	2005      	movs	r0, #5
   8060c:	e010      	b.n	80630 <twi_master_read+0xcc>
   8060e:	2009      	movs	r0, #9
   80610:	e00e      	b.n	80630 <twi_master_read+0xcc>
   80612:	2005      	movs	r0, #5
   80614:	e00c      	b.n	80630 <twi_master_read+0xcc>
   80616:	6a21      	ldr	r1, [r4, #32]
   80618:	f411 7080 	ands.w	r0, r1, #256	; 0x100
   8061c:	d1f9      	bne.n	80612 <twi_master_read+0xae>
   8061e:	f643 2297 	movw	r2, #14999	; 0x3a97
   80622:	f04f 0902 	mov.w	r9, #2
   80626:	f04f 0801 	mov.w	r8, #1
   8062a:	f643 2798 	movw	r7, #15000	; 0x3a98
   8062e:	e7d2      	b.n	805d6 <twi_master_read+0x72>
   80630:	e8bd 03f0 	ldmia.w	sp!, {r4, r5, r6, r7, r8, r9}
   80634:	4770      	bx	lr
   80636:	bf00      	nop

00080638 <twi_master_write>:
   80638:	b470      	push	{r4, r5, r6}
   8063a:	4603      	mov	r3, r0
   8063c:	68ca      	ldr	r2, [r1, #12]
   8063e:	6888      	ldr	r0, [r1, #8]
   80640:	2a00      	cmp	r2, #0
   80642:	d03f      	beq.n	806c4 <twi_master_write+0x8c>
   80644:	2400      	movs	r4, #0
   80646:	605c      	str	r4, [r3, #4]
   80648:	7c0e      	ldrb	r6, [r1, #16]
   8064a:	0436      	lsls	r6, r6, #16
   8064c:	f406 06fe 	and.w	r6, r6, #8323072	; 0x7f0000
   80650:	684d      	ldr	r5, [r1, #4]
   80652:	022d      	lsls	r5, r5, #8
   80654:	f405 7540 	and.w	r5, r5, #768	; 0x300
   80658:	4335      	orrs	r5, r6
   8065a:	605d      	str	r5, [r3, #4]
   8065c:	60dc      	str	r4, [r3, #12]
   8065e:	684c      	ldr	r4, [r1, #4]
   80660:	b15c      	cbz	r4, 8067a <twi_master_write+0x42>
   80662:	780d      	ldrb	r5, [r1, #0]
   80664:	2c01      	cmp	r4, #1
   80666:	bfc4      	itt	gt
   80668:	784e      	ldrbgt	r6, [r1, #1]
   8066a:	ea46 2505 	orrgt.w	r5, r6, r5, lsl #8
   8066e:	2c02      	cmp	r4, #2
   80670:	dd04      	ble.n	8067c <twi_master_write+0x44>
   80672:	7889      	ldrb	r1, [r1, #2]
   80674:	ea41 2505 	orr.w	r5, r1, r5, lsl #8
   80678:	e000      	b.n	8067c <twi_master_write+0x44>
   8067a:	2500      	movs	r5, #0
   8067c:	60dd      	str	r5, [r3, #12]
   8067e:	e00b      	b.n	80698 <twi_master_write+0x60>
   80680:	6a19      	ldr	r1, [r3, #32]
   80682:	f411 7f80 	tst.w	r1, #256	; 0x100
   80686:	d11f      	bne.n	806c8 <twi_master_write+0x90>
   80688:	f011 0f04 	tst.w	r1, #4
   8068c:	d0f8      	beq.n	80680 <twi_master_write+0x48>
   8068e:	f810 1b01 	ldrb.w	r1, [r0], #1
   80692:	6359      	str	r1, [r3, #52]	; 0x34
   80694:	3a01      	subs	r2, #1
   80696:	d007      	beq.n	806a8 <twi_master_write+0x70>
   80698:	6a19      	ldr	r1, [r3, #32]
   8069a:	f411 7f80 	tst.w	r1, #256	; 0x100
   8069e:	d115      	bne.n	806cc <twi_master_write+0x94>
   806a0:	f011 0f04 	tst.w	r1, #4
   806a4:	d1f3      	bne.n	8068e <twi_master_write+0x56>
   806a6:	e7eb      	b.n	80680 <twi_master_write+0x48>
   806a8:	6a1a      	ldr	r2, [r3, #32]
   806aa:	f412 7080 	ands.w	r0, r2, #256	; 0x100
   806ae:	d10f      	bne.n	806d0 <twi_master_write+0x98>
   806b0:	f012 0f04 	tst.w	r2, #4
   806b4:	d0f8      	beq.n	806a8 <twi_master_write+0x70>
   806b6:	2202      	movs	r2, #2
   806b8:	601a      	str	r2, [r3, #0]
   806ba:	6a1a      	ldr	r2, [r3, #32]
   806bc:	f012 0f01 	tst.w	r2, #1
   806c0:	d0fb      	beq.n	806ba <twi_master_write+0x82>
   806c2:	e006      	b.n	806d2 <twi_master_write+0x9a>
   806c4:	2001      	movs	r0, #1
   806c6:	e004      	b.n	806d2 <twi_master_write+0x9a>
   806c8:	2005      	movs	r0, #5
   806ca:	e002      	b.n	806d2 <twi_master_write+0x9a>
   806cc:	2005      	movs	r0, #5
   806ce:	e000      	b.n	806d2 <twi_master_write+0x9a>
   806d0:	2005      	movs	r0, #5
   806d2:	bc70      	pop	{r4, r5, r6}
   806d4:	4770      	bx	lr
   806d6:	bf00      	nop

000806d8 <calculateDistance>:
 *  Author: Andre & Elias
 */ 

#include "Functions/calculations.h"

int calculateDistance (uint16_t x1, uint16_t y1, uint16_t x2, uint16_t y2){ //Avståndet för x1 & y1 = Position, x2 & y2 = Destination
   806d8:	b530      	push	{r4, r5, lr}
   806da:	b087      	sub	sp, #28
	
	int mot, nar;
	
	nar = x2 - x1;
   806dc:	1a12      	subs	r2, r2, r0
	mot = y2 - y1;
   806de:	1a5b      	subs	r3, r3, r1
	
	int dist = sqrt((mot*mot)+(nar*nar));
   806e0:	fb02 f202 	mul.w	r2, r2, r2
   806e4:	fb03 2503 	mla	r5, r3, r3, r2
   806e8:	4c0a      	ldr	r4, [pc, #40]	; (80714 <calculateDistance+0x3c>)
   806ea:	4628      	mov	r0, r5
   806ec:	47a0      	blx	r4
   806ee:	4b0a      	ldr	r3, [pc, #40]	; (80718 <calculateDistance+0x40>)
   806f0:	4798      	blx	r3
   806f2:	4b0a      	ldr	r3, [pc, #40]	; (8071c <calculateDistance+0x44>)
   806f4:	4798      	blx	r3
   806f6:	4604      	mov	r4, r0
	
	char strCalc[20];
	sprintf(strCalc,"\nCalc = %d",dist);
   806f8:	a801      	add	r0, sp, #4
   806fa:	4909      	ldr	r1, [pc, #36]	; (80720 <calculateDistance+0x48>)
   806fc:	4622      	mov	r2, r4
   806fe:	4b09      	ldr	r3, [pc, #36]	; (80724 <calculateDistance+0x4c>)
   80700:	4798      	blx	r3
	printf(strCalc);	
   80702:	a801      	add	r0, sp, #4
   80704:	4d08      	ldr	r5, [pc, #32]	; (80728 <calculateDistance+0x50>)
   80706:	47a8      	blx	r5
	printf("Hello?");
   80708:	4808      	ldr	r0, [pc, #32]	; (8072c <calculateDistance+0x54>)
   8070a:	47a8      	blx	r5
	return dist;
	
}
   8070c:	4620      	mov	r0, r4
   8070e:	b007      	add	sp, #28
   80710:	bd30      	pop	{r4, r5, pc}
   80712:	bf00      	nop
   80714:	000842ad 	.word	0x000842ad
   80718:	000838b9 	.word	0x000838b9
   8071c:	000848ad 	.word	0x000848ad
   80720:	0008a5dc 	.word	0x0008a5dc
   80724:	00084c11 	.word	0x00084c11
   80728:	00084959 	.word	0x00084959
   8072c:	0008a5e8 	.word	0x0008a5e8

00080730 <calculateAngle>:

int calculateAngle(uint16_t x1, uint16_t y1, uint16_t x2, uint16_t y2 ){	//Vinkeln för x1 & y1 = Position, x2 & y2 = Destination
   80730:	e92d 41f0 	stmdb	sp!, {r4, r5, r6, r7, r8, lr}
	
	int mot, nar;
	nar = x2 - x1;
   80734:	1a16      	subs	r6, r2, r0
	mot = y2 - y1;
   80736:	1a5f      	subs	r7, r3, r1
	
	
	int angle = (acos(nar/(sqrt((mot*mot)+(nar*nar)))) * (180/M_PI));
   80738:	fb06 f406 	mul.w	r4, r6, r6
   8073c:	fb07 4407 	mla	r4, r7, r7, r4
   80740:	f8df 8084 	ldr.w	r8, [pc, #132]	; 807c8 <calculateAngle+0x98>
   80744:	4620      	mov	r0, r4
   80746:	47c0      	blx	r8
   80748:	4b19      	ldr	r3, [pc, #100]	; (807b0 <calculateAngle+0x80>)
   8074a:	4798      	blx	r3
   8074c:	4604      	mov	r4, r0
   8074e:	460d      	mov	r5, r1
   80750:	4630      	mov	r0, r6
   80752:	47c0      	blx	r8
   80754:	4622      	mov	r2, r4
   80756:	462b      	mov	r3, r5
   80758:	4c16      	ldr	r4, [pc, #88]	; (807b4 <calculateAngle+0x84>)
   8075a:	47a0      	blx	r4
   8075c:	4b16      	ldr	r3, [pc, #88]	; (807b8 <calculateAngle+0x88>)
   8075e:	4798      	blx	r3
   80760:	a311      	add	r3, pc, #68	; (adr r3, 807a8 <calculateAngle+0x78>)
   80762:	e9d3 2300 	ldrd	r2, r3, [r3]
   80766:	4c15      	ldr	r4, [pc, #84]	; (807bc <calculateAngle+0x8c>)
   80768:	47a0      	blx	r4
   8076a:	4b15      	ldr	r3, [pc, #84]	; (807c0 <calculateAngle+0x90>)
   8076c:	4798      	blx	r3
	
	if(nar < 0 && mot > 0){
   8076e:	2e00      	cmp	r6, #0
   80770:	da07      	bge.n	80782 <calculateAngle+0x52>
   80772:	2f00      	cmp	r7, #0
   80774:	dd01      	ble.n	8077a <calculateAngle+0x4a>
		angle = angle + 90;
   80776:	305a      	adds	r0, #90	; 0x5a
   80778:	e009      	b.n	8078e <calculateAngle+0x5e>
	}
	else if(nar < 0 && mot < 0){
   8077a:	2f00      	cmp	r7, #0
   8077c:	da07      	bge.n	8078e <calculateAngle+0x5e>
		angle = angle + 180;
   8077e:	30b4      	adds	r0, #180	; 0xb4
   80780:	e005      	b.n	8078e <calculateAngle+0x5e>
	}
	else if(nar > 0 && mot < 0){
   80782:	2e00      	cmp	r6, #0
   80784:	dd03      	ble.n	8078e <calculateAngle+0x5e>
   80786:	2f00      	cmp	r7, #0
		angle = angle + 270;
   80788:	bfb8      	it	lt
   8078a:	f500 7087 	addlt.w	r0, r0, #270	; 0x10e
	}
	
	angle = angle % 360;
   8078e:	4a0d      	ldr	r2, [pc, #52]	; (807c4 <calculateAngle+0x94>)
   80790:	fb80 2302 	smull	r2, r3, r0, r2
   80794:	18c2      	adds	r2, r0, r3
   80796:	17c3      	asrs	r3, r0, #31
   80798:	ebc3 2322 	rsb	r3, r3, r2, asr #8
	
	return angle;
}
   8079c:	f44f 72b4 	mov.w	r2, #360	; 0x168
   807a0:	fb02 0013 	mls	r0, r2, r3, r0
   807a4:	e8bd 81f0 	ldmia.w	sp!, {r4, r5, r6, r7, r8, pc}
   807a8:	1a63c1f8 	.word	0x1a63c1f8
   807ac:	404ca5dc 	.word	0x404ca5dc
   807b0:	000838b9 	.word	0x000838b9
   807b4:	000845cd 	.word	0x000845cd
   807b8:	00083811 	.word	0x00083811
   807bc:	00084379 	.word	0x00084379
   807c0:	000848ad 	.word	0x000848ad
   807c4:	b60b60b7 	.word	0xb60b60b7
   807c8:	000842ad 	.word	0x000842ad
   807cc:	f3af 8000 	nop.w

000807d0 <calculateDirection>:
	}
	
	return set_point;
}

int calculateDirection(uint16_t xLeft, uint16_t yLeft, uint16_t xRight, uint16_t yRight){				//Ena lampan och andra lampan
   807d0:	e92d 41f0 	stmdb	sp!, {r4, r5, r6, r7, r8, lr}
	int mot, nar;
	nar = xRight - xLeft;
   807d4:	1a16      	subs	r6, r2, r0
	mot = yRight - yLeft;
   807d6:	1a5f      	subs	r7, r3, r1
	
	
	int dir = (acos(nar/(sqrt((mot*mot)+(nar*nar)))) * (180/M_PI));
   807d8:	fb06 f406 	mul.w	r4, r6, r6
   807dc:	fb07 4407 	mla	r4, r7, r7, r4
   807e0:	f8df 808c 	ldr.w	r8, [pc, #140]	; 80870 <calculateDirection+0xa0>
   807e4:	4620      	mov	r0, r4
   807e6:	47c0      	blx	r8
   807e8:	4b1b      	ldr	r3, [pc, #108]	; (80858 <calculateDirection+0x88>)
   807ea:	4798      	blx	r3
   807ec:	4604      	mov	r4, r0
   807ee:	460d      	mov	r5, r1
   807f0:	4630      	mov	r0, r6
   807f2:	47c0      	blx	r8
   807f4:	4622      	mov	r2, r4
   807f6:	462b      	mov	r3, r5
   807f8:	4c18      	ldr	r4, [pc, #96]	; (8085c <calculateDirection+0x8c>)
   807fa:	47a0      	blx	r4
   807fc:	4b18      	ldr	r3, [pc, #96]	; (80860 <calculateDirection+0x90>)
   807fe:	4798      	blx	r3
   80800:	a313      	add	r3, pc, #76	; (adr r3, 80850 <calculateDirection+0x80>)
   80802:	e9d3 2300 	ldrd	r2, r3, [r3]
   80806:	4c17      	ldr	r4, [pc, #92]	; (80864 <calculateDirection+0x94>)
   80808:	47a0      	blx	r4
   8080a:	4b17      	ldr	r3, [pc, #92]	; (80868 <calculateDirection+0x98>)
   8080c:	4798      	blx	r3
	
	if(nar < 0 && mot > 0){
   8080e:	2e00      	cmp	r6, #0
   80810:	da07      	bge.n	80822 <calculateDirection+0x52>
   80812:	2f00      	cmp	r7, #0
   80814:	dd01      	ble.n	8081a <calculateDirection+0x4a>
		dir = dir + 90;
   80816:	305a      	adds	r0, #90	; 0x5a
   80818:	e009      	b.n	8082e <calculateDirection+0x5e>
	}
	else if(nar < 0 && mot < 0){
   8081a:	2f00      	cmp	r7, #0
   8081c:	da07      	bge.n	8082e <calculateDirection+0x5e>
		dir = dir + 180;
   8081e:	30b4      	adds	r0, #180	; 0xb4
   80820:	e005      	b.n	8082e <calculateDirection+0x5e>
	}
	else if(nar > 0 && mot < 0){
   80822:	2e00      	cmp	r6, #0
   80824:	dd03      	ble.n	8082e <calculateDirection+0x5e>
   80826:	2f00      	cmp	r7, #0
		dir = dir + 270;
   80828:	bfb8      	it	lt
   8082a:	f500 7087 	addlt.w	r0, r0, #270	; 0x10e
	}
	
	dir = (dir + 90) % 360;
   8082e:	f100 015a 	add.w	r1, r0, #90	; 0x5a
   80832:	4a0e      	ldr	r2, [pc, #56]	; (8086c <calculateDirection+0x9c>)
   80834:	fb81 2302 	smull	r2, r3, r1, r2
   80838:	18ca      	adds	r2, r1, r3
   8083a:	17cb      	asrs	r3, r1, #31
   8083c:	ebc3 2322 	rsb	r3, r3, r2, asr #8
	
	return dir;
	
}
   80840:	f44f 70b4 	mov.w	r0, #360	; 0x168
   80844:	fb00 1013 	mls	r0, r0, r3, r1
   80848:	e8bd 81f0 	ldmia.w	sp!, {r4, r5, r6, r7, r8, pc}
   8084c:	f3af 8000 	nop.w
   80850:	1a63c1f8 	.word	0x1a63c1f8
   80854:	404ca5dc 	.word	0x404ca5dc
   80858:	000838b9 	.word	0x000838b9
   8085c:	000845cd 	.word	0x000845cd
   80860:	00083811 	.word	0x00083811
   80864:	00084379 	.word	0x00084379
   80868:	000848ad 	.word	0x000848ad
   8086c:	b60b60b7 	.word	0xb60b60b7
   80870:	000842ad 	.word	0x000842ad
   80874:	f3af 8000 	nop.w

00080878 <init_taskFunctions>:
int16_t currentx1,currenty1,currentx2,currenty2;


char str[20];

void init_taskFunctions(void){
   80878:	b570      	push	{r4, r5, r6, lr}
		enum ioport_direction dir)
{
	Pio *base = arch_ioport_pin_to_base(pin);

	if (dir == IOPORT_DIR_OUTPUT) {
		base->PIO_OER = arch_ioport_pin_to_mask(pin);
   8087a:	4b2c      	ldr	r3, [pc, #176]	; (8092c <init_taskFunctions+0xb4>)
   8087c:	f04f 6280 	mov.w	r2, #67108864	; 0x4000000
   80880:	611a      	str	r2, [r3, #16]
	} else if (dir == IOPORT_DIR_INPUT) {
		base->PIO_ODR = arch_ioport_pin_to_mask(pin);
	}

	base->PIO_OWER = arch_ioport_pin_to_mask(pin);
   80882:	f8c3 20a0 	str.w	r2, [r3, #160]	; 0xa0
		enum ioport_direction dir)
{
	Pio *base = arch_ioport_pin_to_base(pin);

	if (dir == IOPORT_DIR_OUTPUT) {
		base->PIO_OER = arch_ioport_pin_to_mask(pin);
   80886:	492a      	ldr	r1, [pc, #168]	; (80930 <init_taskFunctions+0xb8>)
   80888:	f44f 4380 	mov.w	r3, #16384	; 0x4000
   8088c:	610b      	str	r3, [r1, #16]
	} else if (dir == IOPORT_DIR_INPUT) {
		base->PIO_ODR = arch_ioport_pin_to_mask(pin);
	}

	base->PIO_OWER = arch_ioport_pin_to_mask(pin);
   8088e:	f8c1 30a0 	str.w	r3, [r1, #160]	; 0xa0
	Pio *base = arch_ioport_pin_to_base(pin);

	if (dir == IOPORT_DIR_OUTPUT) {
		base->PIO_OER = arch_ioport_pin_to_mask(pin);
	} else if (dir == IOPORT_DIR_INPUT) {
		base->PIO_ODR = arch_ioport_pin_to_mask(pin);
   80892:	f44f 4300 	mov.w	r3, #32768	; 0x8000
   80896:	614b      	str	r3, [r1, #20]
	}

	base->PIO_OWER = arch_ioport_pin_to_mask(pin);
   80898:	f8c1 30a0 	str.w	r3, [r1, #160]	; 0xa0
	Pio *base = arch_ioport_pin_to_base(pin);

	if (dir == IOPORT_DIR_OUTPUT) {
		base->PIO_OER = arch_ioport_pin_to_mask(pin);
	} else if (dir == IOPORT_DIR_INPUT) {
		base->PIO_ODR = arch_ioport_pin_to_mask(pin);
   8089c:	4a25      	ldr	r2, [pc, #148]	; (80934 <init_taskFunctions+0xbc>)
   8089e:	2402      	movs	r4, #2
   808a0:	6154      	str	r4, [r2, #20]
	}

	base->PIO_OWER = arch_ioport_pin_to_mask(pin);
   808a2:	f8c2 40a0 	str.w	r4, [r2, #160]	; 0xa0
	Pio *base = arch_ioport_pin_to_base(pin);

	if (dir == IOPORT_DIR_OUTPUT) {
		base->PIO_OER = arch_ioport_pin_to_mask(pin);
	} else if (dir == IOPORT_DIR_INPUT) {
		base->PIO_ODR = arch_ioport_pin_to_mask(pin);
   808a6:	2008      	movs	r0, #8
   808a8:	6150      	str	r0, [r2, #20]
	}

	base->PIO_OWER = arch_ioport_pin_to_mask(pin);
   808aa:	f8c2 00a0 	str.w	r0, [r2, #160]	; 0xa0
	Pio *base = arch_ioport_pin_to_base(pin);

	if (dir == IOPORT_DIR_OUTPUT) {
		base->PIO_OER = arch_ioport_pin_to_mask(pin);
	} else if (dir == IOPORT_DIR_INPUT) {
		base->PIO_ODR = arch_ioport_pin_to_mask(pin);
   808ae:	f44f 7300 	mov.w	r3, #512	; 0x200
   808b2:	6153      	str	r3, [r2, #20]
	}

	base->PIO_OWER = arch_ioport_pin_to_mask(pin);
   808b4:	f8c2 30a0 	str.w	r3, [r2, #160]	; 0xa0
	Pio *base = arch_ioport_pin_to_base(pin);

	if (dir == IOPORT_DIR_OUTPUT) {
		base->PIO_OER = arch_ioport_pin_to_mask(pin);
	} else if (dir == IOPORT_DIR_INPUT) {
		base->PIO_ODR = arch_ioport_pin_to_mask(pin);
   808b8:	f44f 6380 	mov.w	r3, #1024	; 0x400
   808bc:	6153      	str	r3, [r2, #20]
	}

	base->PIO_OWER = arch_ioport_pin_to_mask(pin);
   808be:	f8c2 30a0 	str.w	r3, [r2, #160]	; 0xa0
	Pio *base = arch_ioport_pin_to_base(pin);

	if (dir == IOPORT_DIR_OUTPUT) {
		base->PIO_OER = arch_ioport_pin_to_mask(pin);
	} else if (dir == IOPORT_DIR_INPUT) {
		base->PIO_ODR = arch_ioport_pin_to_mask(pin);
   808c2:	4b1d      	ldr	r3, [pc, #116]	; (80938 <init_taskFunctions+0xc0>)
   808c4:	2504      	movs	r5, #4
   808c6:	615d      	str	r5, [r3, #20]
	}

	base->PIO_OWER = arch_ioport_pin_to_mask(pin);
   808c8:	f8c3 50a0 	str.w	r5, [r3, #160]	; 0xa0
	Pio *base = arch_ioport_pin_to_base(pin);

	if (dir == IOPORT_DIR_OUTPUT) {
		base->PIO_OER = arch_ioport_pin_to_mask(pin);
	} else if (dir == IOPORT_DIR_INPUT) {
		base->PIO_ODR = arch_ioport_pin_to_mask(pin);
   808cc:	2601      	movs	r6, #1
   808ce:	6156      	str	r6, [r2, #20]
	}

	base->PIO_OWER = arch_ioport_pin_to_mask(pin);
   808d0:	f8c2 60a0 	str.w	r6, [r2, #160]	; 0xa0
	Pio *base = arch_ioport_pin_to_base(pin);

	if (dir == IOPORT_DIR_OUTPUT) {
		base->PIO_OER = arch_ioport_pin_to_mask(pin);
	} else if (dir == IOPORT_DIR_INPUT) {
		base->PIO_ODR = arch_ioport_pin_to_mask(pin);
   808d4:	6155      	str	r5, [r2, #20]
	}

	base->PIO_OWER = arch_ioport_pin_to_mask(pin);
   808d6:	f8c2 50a0 	str.w	r5, [r2, #160]	; 0xa0
	Pio *base = arch_ioport_pin_to_base(pin);

	if (dir == IOPORT_DIR_OUTPUT) {
		base->PIO_OER = arch_ioport_pin_to_mask(pin);
	} else if (dir == IOPORT_DIR_INPUT) {
		base->PIO_ODR = arch_ioport_pin_to_mask(pin);
   808da:	2540      	movs	r5, #64	; 0x40
   808dc:	6155      	str	r5, [r2, #20]
	}

	base->PIO_OWER = arch_ioport_pin_to_mask(pin);
   808de:	f8c2 50a0 	str.w	r5, [r2, #160]	; 0xa0
	Pio *base = arch_ioport_pin_to_base(pin);

	if (dir == IOPORT_DIR_OUTPUT) {
		base->PIO_OER = arch_ioport_pin_to_mask(pin);
	} else if (dir == IOPORT_DIR_INPUT) {
		base->PIO_ODR = arch_ioport_pin_to_mask(pin);
   808e2:	2280      	movs	r2, #128	; 0x80
   808e4:	614a      	str	r2, [r1, #20]
	}

	base->PIO_OWER = arch_ioport_pin_to_mask(pin);
   808e6:	f8c1 20a0 	str.w	r2, [r1, #160]	; 0xa0
	Pio *base = arch_ioport_pin_to_base(pin);

	if (dir == IOPORT_DIR_OUTPUT) {
		base->PIO_OER = arch_ioport_pin_to_mask(pin);
	} else if (dir == IOPORT_DIR_INPUT) {
		base->PIO_ODR = arch_ioport_pin_to_mask(pin);
   808ea:	615c      	str	r4, [r3, #20]
	}

	base->PIO_OWER = arch_ioport_pin_to_mask(pin);
   808ec:	f8c3 40a0 	str.w	r4, [r3, #160]	; 0xa0
	Pio *base = arch_ioport_pin_to_base(pin);

	if (dir == IOPORT_DIR_OUTPUT) {
		base->PIO_OER = arch_ioport_pin_to_mask(pin);
	} else if (dir == IOPORT_DIR_INPUT) {
		base->PIO_ODR = arch_ioport_pin_to_mask(pin);
   808f0:	6158      	str	r0, [r3, #20]
	}

	base->PIO_OWER = arch_ioport_pin_to_mask(pin);
   808f2:	f8c3 00a0 	str.w	r0, [r3, #160]	; 0xa0
	Pio *base = arch_ioport_pin_to_base(pin);

	if (dir == IOPORT_DIR_OUTPUT) {
		base->PIO_OER = arch_ioport_pin_to_mask(pin);
	} else if (dir == IOPORT_DIR_INPUT) {
		base->PIO_ODR = arch_ioport_pin_to_mask(pin);
   808f6:	f44f 7080 	mov.w	r0, #256	; 0x100
   808fa:	6158      	str	r0, [r3, #20]
	}

	base->PIO_OWER = arch_ioport_pin_to_mask(pin);
   808fc:	f8c3 00a0 	str.w	r0, [r3, #160]	; 0xa0
	Pio *base = arch_ioport_pin_to_base(pin);

	if (dir == IOPORT_DIR_OUTPUT) {
		base->PIO_OER = arch_ioport_pin_to_mask(pin);
	} else if (dir == IOPORT_DIR_INPUT) {
		base->PIO_ODR = arch_ioport_pin_to_mask(pin);
   80900:	f44f 2000 	mov.w	r0, #524288	; 0x80000
   80904:	6158      	str	r0, [r3, #20]
	}

	base->PIO_OWER = arch_ioport_pin_to_mask(pin);
   80906:	f8c3 00a0 	str.w	r0, [r3, #160]	; 0xa0
	Pio *base = arch_ioport_pin_to_base(pin);

	if (dir == IOPORT_DIR_OUTPUT) {
		base->PIO_OER = arch_ioport_pin_to_mask(pin);
	} else if (dir == IOPORT_DIR_INPUT) {
		base->PIO_ODR = arch_ioport_pin_to_mask(pin);
   8090a:	6148      	str	r0, [r1, #20]
	}

	base->PIO_OWER = arch_ioport_pin_to_mask(pin);
   8090c:	f8c1 00a0 	str.w	r0, [r1, #160]	; 0xa0
	Pio *base = arch_ioport_pin_to_base(pin);

	if (dir == IOPORT_DIR_OUTPUT) {
		base->PIO_OER = arch_ioport_pin_to_mask(pin);
	} else if (dir == IOPORT_DIR_INPUT) {
		base->PIO_ODR = arch_ioport_pin_to_mask(pin);
   80910:	f44f 3100 	mov.w	r1, #131072	; 0x20000
   80914:	6159      	str	r1, [r3, #20]
	}

	base->PIO_OWER = arch_ioport_pin_to_mask(pin);
   80916:	f8c3 10a0 	str.w	r1, [r3, #160]	; 0xa0
		enum ioport_direction dir)
{
	Pio *base = arch_ioport_pin_to_base(pin);

	if (dir == IOPORT_DIR_OUTPUT) {
		base->PIO_OER = arch_ioport_pin_to_mask(pin);
   8091a:	611a      	str	r2, [r3, #16]
	} else if (dir == IOPORT_DIR_INPUT) {
		base->PIO_ODR = arch_ioport_pin_to_mask(pin);
	}

	base->PIO_OWER = arch_ioport_pin_to_mask(pin);
   8091c:	f8c3 20a0 	str.w	r2, [r3, #160]	; 0xa0
	Pio *base = arch_ioport_pin_to_base(pin);

	if (level) {
		base->PIO_SODR = arch_ioport_pin_to_mask(pin);
	} else {
		base->PIO_CODR = arch_ioport_pin_to_mask(pin);
   80920:	635a      	str	r2, [r3, #52]	; 0x34
	
	ioport_set_pin_level(START_CAMERA,LOW);

	
	
	printf("\nPins OK");
   80922:	4806      	ldr	r0, [pc, #24]	; (8093c <init_taskFunctions+0xc4>)
   80924:	4b06      	ldr	r3, [pc, #24]	; (80940 <init_taskFunctions+0xc8>)
   80926:	4798      	blx	r3
   80928:	bd70      	pop	{r4, r5, r6, pc}
   8092a:	bf00      	nop
   8092c:	400e1000 	.word	0x400e1000
   80930:	400e0e00 	.word	0x400e0e00
   80934:	400e1400 	.word	0x400e1400
   80938:	400e1200 	.word	0x400e1200
   8093c:	0008a5f0 	.word	0x0008a5f0
   80940:	00084959 	.word	0x00084959

00080944 <driveForward>:
void resetCounter(void){
	interruptCounter = 0;
}


int driveForward(int tarDist){
   80944:	e92d 47f0 	stmdb	sp!, {r4, r5, r6, r7, r8, r9, sl, lr}
   80948:	4604      	mov	r4, r0
	
	 sprintf(str,"\nTarget Distance: %d",tarDist);
   8094a:	4d61      	ldr	r5, [pc, #388]	; (80ad0 <driveForward+0x18c>)
   8094c:	4628      	mov	r0, r5
   8094e:	4961      	ldr	r1, [pc, #388]	; (80ad4 <driveForward+0x190>)
   80950:	4622      	mov	r2, r4
   80952:	4b61      	ldr	r3, [pc, #388]	; (80ad8 <driveForward+0x194>)
   80954:	4798      	blx	r3
	 printf(str);
   80956:	4628      	mov	r0, r5
   80958:	4b60      	ldr	r3, [pc, #384]	; (80adc <driveForward+0x198>)
   8095a:	4798      	blx	r3
	
	r_count = 0;
   8095c:	2300      	movs	r3, #0
   8095e:	4a60      	ldr	r2, [pc, #384]	; (80ae0 <driveForward+0x19c>)
   80960:	6013      	str	r3, [r2, #0]
	l_count = 0;
   80962:	4a60      	ldr	r2, [pc, #384]	; (80ae4 <driveForward+0x1a0>)
   80964:	6013      	str	r3, [r2, #0]
	int testing = 0;
// 	int v_test = 0;
// 	int h_test = 0;
	int e_test = 0;
	
	r_speed=speed;
   80966:	4b60      	ldr	r3, [pc, #384]	; (80ae8 <driveForward+0x1a4>)
   80968:	6819      	ldr	r1, [r3, #0]
   8096a:	4b60      	ldr	r3, [pc, #384]	; (80aec <driveForward+0x1a8>)
   8096c:	6019      	str	r1, [r3, #0]
	l_speed=speed;
   8096e:	4b60      	ldr	r3, [pc, #384]	; (80af0 <driveForward+0x1ac>)
   80970:	6019      	str	r1, [r3, #0]
	
	moveForward(l_speed,r_speed);
   80972:	4608      	mov	r0, r1
   80974:	4b5f      	ldr	r3, [pc, #380]	; (80af4 <driveForward+0x1b0>)
   80976:	4798      	blx	r3
	
	
	if (70 < tarDist){
   80978:	2c46      	cmp	r4, #70	; 0x46
   8097a:	dd06      	ble.n	8098a <driveForward+0x46>
		moveForward(1650,1650);
   8097c:	f240 6072 	movw	r0, #1650	; 0x672
   80980:	4601      	mov	r1, r0
   80982:	4b5c      	ldr	r3, [pc, #368]	; (80af4 <driveForward+0x1b0>)
   80984:	4798      	blx	r3
	
	r_count = 0;
	l_count = 0;
	
	int driveCount = 0;
	int testing = 0;
   80986:	2600      	movs	r6, #0
   80988:	e005      	b.n	80996 <driveForward+0x52>
	
	if (70 < tarDist){
		moveForward(1650,1650);
	} 
	else{
		moveForward(1500,1500);
   8098a:	f240 50dc 	movw	r0, #1500	; 0x5dc
   8098e:	4601      	mov	r1, r0
   80990:	4b58      	ldr	r3, [pc, #352]	; (80af4 <driveForward+0x1b0>)
   80992:	4798      	blx	r3
		testing = 1;
   80994:	2601      	movs	r6, #1
	base->PIO_CODR = mask & ~level;
}

__always_inline static bool arch_ioport_get_pin_level(ioport_pin_t pin)
{
	return arch_ioport_pin_to_base(pin)->PIO_PDSR & arch_ioport_pin_to_mask(pin);
   80996:	4c58      	ldr	r4, [pc, #352]	; (80af8 <driveForward+0x1b4>)
   80998:	f8d4 803c 	ldr.w	r8, [r4, #60]	; 0x3c
   8099c:	4b57      	ldr	r3, [pc, #348]	; (80afc <driveForward+0x1b8>)
   8099e:	f8d3 c03c 	ldr.w	ip, [r3, #60]	; 0x3c
   809a2:	f8d3 e03c 	ldr.w	lr, [r3, #60]	; 0x3c
   809a6:	6bdf      	ldr	r7, [r3, #60]	; 0x3c
   809a8:	6bd8      	ldr	r0, [r3, #60]	; 0x3c
   809aa:	4a55      	ldr	r2, [pc, #340]	; (80b00 <driveForward+0x1bc>)
   809ac:	6bd1      	ldr	r1, [r2, #60]	; 0x3c
	

// 	ioport_set_pin_level(R_RESET,LOW);
// 	ioport_set_pin_level(L_RESET,LOW);
	
		r_count = ioport_get_pin_level(R0)+ioport_get_pin_level(R1)*2+ioport_get_pin_level(R2)*4+ioport_get_pin_level(R3)*8
   809ae:	4d4c      	ldr	r5, [pc, #304]	; (80ae0 <driveForward+0x19c>)
   809b0:	f3c8 38c0 	ubfx	r8, r8, #15, #1
   809b4:	f3cc 0c40 	ubfx	ip, ip, #1, #1
   809b8:	eb08 0c4c 	add.w	ip, r8, ip, lsl #1
   809bc:	f3ce 0ec0 	ubfx	lr, lr, #3, #1
   809c0:	eb0c 0e8e 	add.w	lr, ip, lr, lsl #2
   809c4:	f3c7 2740 	ubfx	r7, r7, #9, #1
   809c8:	eb0e 07c7 	add.w	r7, lr, r7, lsl #3
   809cc:	f3c0 2080 	ubfx	r0, r0, #10, #1
		+ioport_get_pin_level(R4)*16+ioport_get_pin_level(R5)*32;
   809d0:	eb07 1000 	add.w	r0, r7, r0, lsl #4
   809d4:	f3c1 0180 	ubfx	r1, r1, #2, #1
   809d8:	eb00 1141 	add.w	r1, r0, r1, lsl #5
	

// 	ioport_set_pin_level(R_RESET,LOW);
// 	ioport_set_pin_level(L_RESET,LOW);
	
		r_count = ioport_get_pin_level(R0)+ioport_get_pin_level(R1)*2+ioport_get_pin_level(R2)*4+ioport_get_pin_level(R3)*8
   809dc:	6029      	str	r1, [r5, #0]
   809de:	f8d3 803c 	ldr.w	r8, [r3, #60]	; 0x3c
   809e2:	f8d3 c03c 	ldr.w	ip, [r3, #60]	; 0x3c
   809e6:	f8d3 e03c 	ldr.w	lr, [r3, #60]	; 0x3c
   809ea:	6be1      	ldr	r1, [r4, #60]	; 0x3c
   809ec:	6bd0      	ldr	r0, [r2, #60]	; 0x3c
   809ee:	6bd3      	ldr	r3, [r2, #60]	; 0x3c
		+ioport_get_pin_level(R4)*16+ioport_get_pin_level(R5)*32;
	
		l_count = ioport_get_pin_level(L0)+ioport_get_pin_level(L1)*2+ioport_get_pin_level(L2)*4+ioport_get_pin_level(L3)*8
   809f0:	4f3c      	ldr	r7, [pc, #240]	; (80ae4 <driveForward+0x1a0>)
   809f2:	f008 0201 	and.w	r2, r8, #1
   809f6:	f3cc 0c80 	ubfx	ip, ip, #2, #1
   809fa:	eb02 0c4c 	add.w	ip, r2, ip, lsl #1
   809fe:	f3ce 1e80 	ubfx	lr, lr, #6, #1
   80a02:	eb0c 0e8e 	add.w	lr, ip, lr, lsl #2
   80a06:	f3c1 11c0 	ubfx	r1, r1, #7, #1
   80a0a:	eb0e 01c1 	add.w	r1, lr, r1, lsl #3
   80a0e:	f3c0 0240 	ubfx	r2, r0, #1, #1
		+ioport_get_pin_level(L4)*16+ioport_get_pin_level(L5)*32;
   80a12:	eb01 1202 	add.w	r2, r1, r2, lsl #4
   80a16:	f3c3 03c0 	ubfx	r3, r3, #3, #1
   80a1a:	eb02 1343 	add.w	r3, r2, r3, lsl #5
// 	ioport_set_pin_level(L_RESET,LOW);
	
		r_count = ioport_get_pin_level(R0)+ioport_get_pin_level(R1)*2+ioport_get_pin_level(R2)*4+ioport_get_pin_level(R3)*8
		+ioport_get_pin_level(R4)*16+ioport_get_pin_level(R5)*32;
	
		l_count = ioport_get_pin_level(L0)+ioport_get_pin_level(L1)*2+ioport_get_pin_level(L2)*4+ioport_get_pin_level(L3)*8
   80a1e:	603b      	str	r3, [r7, #0]
		bool level)
{
	Pio *base = arch_ioport_pin_to_base(pin);

	if (level) {
		base->PIO_SODR = arch_ioport_pin_to_mask(pin);
   80a20:	f8df 90f4 	ldr.w	r9, [pc, #244]	; 80b18 <driveForward+0x1d4>
   80a24:	f04f 6a80 	mov.w	sl, #67108864	; 0x4000000
   80a28:	f8c9 a030 	str.w	sl, [r9, #48]	; 0x30
   80a2c:	f44f 4880 	mov.w	r8, #16384	; 0x4000
   80a30:	f8c4 8030 	str.w	r8, [r4, #48]	; 0x30
		+ioport_get_pin_level(L4)*16+ioport_get_pin_level(L5)*32;
	
		ioport_set_pin_level(R_RESET,HIGH);
		ioport_set_pin_level(L_RESET,HIGH);
		vTaskDelay(3);
   80a34:	2003      	movs	r0, #3
   80a36:	4b33      	ldr	r3, [pc, #204]	; (80b04 <driveForward+0x1c0>)
   80a38:	4798      	blx	r3
	} else {
		base->PIO_CODR = arch_ioport_pin_to_mask(pin);
   80a3a:	f8c9 a034 	str.w	sl, [r9, #52]	; 0x34
   80a3e:	f8c4 8034 	str.w	r8, [r4, #52]	; 0x34
	
	
	
	
	
		e_test = 0 -	(r_count - l_count);
   80a42:	683a      	ldr	r2, [r7, #0]
   80a44:	682b      	ldr	r3, [r5, #0]
   80a46:	1ad5      	subs	r5, r2, r3
	
	
	sprintf(str,"\nFelvärde: %d",e);
   80a48:	4c21      	ldr	r4, [pc, #132]	; (80ad0 <driveForward+0x18c>)
   80a4a:	4620      	mov	r0, r4
   80a4c:	492e      	ldr	r1, [pc, #184]	; (80b08 <driveForward+0x1c4>)
   80a4e:	4b2f      	ldr	r3, [pc, #188]	; (80b0c <driveForward+0x1c8>)
   80a50:	681a      	ldr	r2, [r3, #0]
   80a52:	4b21      	ldr	r3, [pc, #132]	; (80ad8 <driveForward+0x194>)
   80a54:	4798      	blx	r3
	printf(str);
   80a56:	4620      	mov	r0, r4
   80a58:	4b20      	ldr	r3, [pc, #128]	; (80adc <driveForward+0x198>)
   80a5a:	4798      	blx	r3
	
	r_speed=speed;
   80a5c:	4b22      	ldr	r3, [pc, #136]	; (80ae8 <driveForward+0x1a4>)
   80a5e:	6819      	ldr	r1, [r3, #0]
   80a60:	4b22      	ldr	r3, [pc, #136]	; (80aec <driveForward+0x1a8>)
   80a62:	6019      	str	r1, [r3, #0]
	l_speed=speed;
   80a64:	4b22      	ldr	r3, [pc, #136]	; (80af0 <driveForward+0x1ac>)
   80a66:	6019      	str	r1, [r3, #0]
		if(e_test > 0) {
   80a68:	2d00      	cmp	r5, #0
   80a6a:	dd0c      	ble.n	80a86 <driveForward+0x142>
		
			r_speed=speed-(e*Kp);
   80a6c:	4b27      	ldr	r3, [pc, #156]	; (80b0c <driveForward+0x1c8>)
   80a6e:	681b      	ldr	r3, [r3, #0]
   80a70:	4a27      	ldr	r2, [pc, #156]	; (80b10 <driveForward+0x1cc>)
   80a72:	6812      	ldr	r2, [r2, #0]
   80a74:	fb02 f303 	mul.w	r3, r2, r3
   80a78:	1ac8      	subs	r0, r1, r3
   80a7a:	4a1c      	ldr	r2, [pc, #112]	; (80aec <driveForward+0x1a8>)
   80a7c:	6010      	str	r0, [r2, #0]
			l_speed=speed+(e*Kp);
   80a7e:	4419      	add	r1, r3
   80a80:	4a1b      	ldr	r2, [pc, #108]	; (80af0 <driveForward+0x1ac>)
   80a82:	6011      	str	r1, [r2, #0]
   80a84:	e011      	b.n	80aaa <driveForward+0x166>
		
		}
		else if (e_test < 0){
   80a86:	2d00      	cmp	r5, #0
   80a88:	da0c      	bge.n	80aa4 <driveForward+0x160>
		
			r_speed=speed+(e*Kp);
   80a8a:	4b20      	ldr	r3, [pc, #128]	; (80b0c <driveForward+0x1c8>)
   80a8c:	681b      	ldr	r3, [r3, #0]
   80a8e:	4a20      	ldr	r2, [pc, #128]	; (80b10 <driveForward+0x1cc>)
   80a90:	6812      	ldr	r2, [r2, #0]
   80a92:	fb02 f303 	mul.w	r3, r2, r3
   80a96:	18c8      	adds	r0, r1, r3
   80a98:	4a14      	ldr	r2, [pc, #80]	; (80aec <driveForward+0x1a8>)
   80a9a:	6010      	str	r0, [r2, #0]
			l_speed=speed-(e*Kp);
   80a9c:	1ac9      	subs	r1, r1, r3
   80a9e:	4a14      	ldr	r2, [pc, #80]	; (80af0 <driveForward+0x1ac>)
   80aa0:	6011      	str	r1, [r2, #0]
   80aa2:	e002      	b.n	80aaa <driveForward+0x166>
		}
		else{
			moveForward(l_speed,r_speed);
   80aa4:	4608      	mov	r0, r1
   80aa6:	4b13      	ldr	r3, [pc, #76]	; (80af4 <driveForward+0x1b0>)
   80aa8:	4798      	blx	r3
	


	driveCount = (r_count+l_count)/2;
	
	sprintf(str,"\ndriveCount = %d",driveCount);
   80aaa:	4c09      	ldr	r4, [pc, #36]	; (80ad0 <driveForward+0x18c>)
			moveForward(l_speed,r_speed);
		}
	


	driveCount = (r_count+l_count)/2;
   80aac:	4b0c      	ldr	r3, [pc, #48]	; (80ae0 <driveForward+0x19c>)
   80aae:	681a      	ldr	r2, [r3, #0]
   80ab0:	4b0c      	ldr	r3, [pc, #48]	; (80ae4 <driveForward+0x1a0>)
   80ab2:	681b      	ldr	r3, [r3, #0]
   80ab4:	441a      	add	r2, r3
   80ab6:	eb02 72d2 	add.w	r2, r2, r2, lsr #31
	
	sprintf(str,"\ndriveCount = %d",driveCount);
   80aba:	4620      	mov	r0, r4
   80abc:	4915      	ldr	r1, [pc, #84]	; (80b14 <driveForward+0x1d0>)
   80abe:	1052      	asrs	r2, r2, #1
   80ac0:	4b05      	ldr	r3, [pc, #20]	; (80ad8 <driveForward+0x194>)
   80ac2:	4798      	blx	r3
	printf(str);
   80ac4:	4620      	mov	r0, r4
   80ac6:	4b05      	ldr	r3, [pc, #20]	; (80adc <driveForward+0x198>)
   80ac8:	4798      	blx	r3
	
	return testing;
}
   80aca:	4630      	mov	r0, r6
   80acc:	e8bd 87f0 	ldmia.w	sp!, {r4, r5, r6, r7, r8, r9, sl, pc}
   80ad0:	20078dd8 	.word	0x20078dd8
   80ad4:	0008a610 	.word	0x0008a610
   80ad8:	00084c11 	.word	0x00084c11
   80adc:	00084959 	.word	0x00084959
   80ae0:	20070a98 	.word	0x20070a98
   80ae4:	20070a80 	.word	0x20070a80
   80ae8:	2007018c 	.word	0x2007018c
   80aec:	20070a90 	.word	0x20070a90
   80af0:	20070a94 	.word	0x20070a94
   80af4:	000819c5 	.word	0x000819c5
   80af8:	400e0e00 	.word	0x400e0e00
   80afc:	400e1400 	.word	0x400e1400
   80b00:	400e1200 	.word	0x400e1200
   80b04:	00082861 	.word	0x00082861
   80b08:	0008a628 	.word	0x0008a628
   80b0c:	20070a88 	.word	0x20070a88
   80b10:	20070188 	.word	0x20070188
   80b14:	0008a638 	.word	0x0008a638
   80b18:	400e1000 	.word	0x400e1000

00080b1c <rotate>:

int rotate(int turn_angle){		//Minimum vinkel är fyra
   80b1c:	e92d 43f8 	stmdb	sp!, {r3, r4, r5, r6, r7, r8, r9, lr}
   80b20:	4681      	mov	r9, r0
// 	printf(str);
// 	
// 	sprintf(str,"\ndirection: %d",direction);
// 	printf(str);
	
	direction = calculateDirection(currentx1,currenty1,currentx2,currenty2);
   80b22:	4b82      	ldr	r3, [pc, #520]	; (80d2c <rotate+0x210>)
   80b24:	8818      	ldrh	r0, [r3, #0]
   80b26:	4b82      	ldr	r3, [pc, #520]	; (80d30 <rotate+0x214>)
   80b28:	8819      	ldrh	r1, [r3, #0]
   80b2a:	4b82      	ldr	r3, [pc, #520]	; (80d34 <rotate+0x218>)
   80b2c:	881a      	ldrh	r2, [r3, #0]
   80b2e:	4b82      	ldr	r3, [pc, #520]	; (80d38 <rotate+0x21c>)
   80b30:	881b      	ldrh	r3, [r3, #0]
   80b32:	4c82      	ldr	r4, [pc, #520]	; (80d3c <rotate+0x220>)
   80b34:	47a0      	blx	r4
   80b36:	4602      	mov	r2, r0
   80b38:	4c81      	ldr	r4, [pc, #516]	; (80d40 <rotate+0x224>)
   80b3a:	6020      	str	r0, [r4, #0]
	
	sprintf(str,"\nDirection: %d",direction);
   80b3c:	4e81      	ldr	r6, [pc, #516]	; (80d44 <rotate+0x228>)
   80b3e:	4630      	mov	r0, r6
   80b40:	4981      	ldr	r1, [pc, #516]	; (80d48 <rotate+0x22c>)
   80b42:	f8df 822c 	ldr.w	r8, [pc, #556]	; 80d70 <rotate+0x254>
   80b46:	47c0      	blx	r8
	printf(str);
   80b48:	4630      	mov	r0, r6
   80b4a:	4f80      	ldr	r7, [pc, #512]	; (80d4c <rotate+0x230>)
   80b4c:	47b8      	blx	r7
	
	int ret = 0;
	
	int reverse_angle = (direction + 180) % 360;
   80b4e:	6823      	ldr	r3, [r4, #0]
   80b50:	33b4      	adds	r3, #180	; 0xb4
   80b52:	4a7f      	ldr	r2, [pc, #508]	; (80d50 <rotate+0x234>)
   80b54:	fb83 4502 	smull	r4, r5, r3, r2
   80b58:	1958      	adds	r0, r3, r5
   80b5a:	17d9      	asrs	r1, r3, #31
   80b5c:	ebc1 2020 	rsb	r0, r1, r0, asr #8
   80b60:	f44f 71b4 	mov.w	r1, #360	; 0x168
   80b64:	fb01 3010 	mls	r0, r1, r0, r3
	

	int direct_angle = ((abs(reverse_angle - 360) + turn_angle) % 360) - 180;
   80b68:	f5a0 70b4 	sub.w	r0, r0, #360	; 0x168
   80b6c:	2800      	cmp	r0, #0
   80b6e:	bfb8      	it	lt
   80b70:	4240      	neglt	r0, r0
   80b72:	4448      	add	r0, r9
   80b74:	fb80 2302 	smull	r2, r3, r0, r2
   80b78:	18c4      	adds	r4, r0, r3
   80b7a:	17c3      	asrs	r3, r0, #31
   80b7c:	ebc3 2424 	rsb	r4, r3, r4, asr #8
   80b80:	fb01 0014 	mls	r0, r1, r4, r0
   80b84:	f1a0 04b4 	sub.w	r4, r0, #180	; 0xb4

	sprintf(str,"\ndirect_angle: %d",direct_angle);
   80b88:	4630      	mov	r0, r6
   80b8a:	4972      	ldr	r1, [pc, #456]	; (80d54 <rotate+0x238>)
   80b8c:	4622      	mov	r2, r4
   80b8e:	47c0      	blx	r8
	printf(str);
   80b90:	4630      	mov	r0, r6
   80b92:	47b8      	blx	r7

	r_count = 0;
   80b94:	2300      	movs	r3, #0
   80b96:	4a70      	ldr	r2, [pc, #448]	; (80d58 <rotate+0x23c>)
   80b98:	6013      	str	r3, [r2, #0]
	l_count = 0;
   80b9a:	4a70      	ldr	r2, [pc, #448]	; (80d5c <rotate+0x240>)
   80b9c:	6013      	str	r3, [r2, #0]

	printf("\ncount null");
   80b9e:	4870      	ldr	r0, [pc, #448]	; (80d60 <rotate+0x244>)
   80ba0:	47b8      	blx	r7
   80ba2:	f44f 4280 	mov.w	r2, #16384	; 0x4000
   80ba6:	4b6f      	ldr	r3, [pc, #444]	; (80d64 <rotate+0x248>)
   80ba8:	635a      	str	r2, [r3, #52]	; 0x34
   80baa:	f04f 6280 	mov.w	r2, #67108864	; 0x4000000
   80bae:	f503 7300 	add.w	r3, r3, #512	; 0x200
   80bb2:	635a      	str	r2, [r3, #52]	; 0x34
	ioport_set_pin_level(L_RESET,LOW);
	ioport_set_pin_level(R_RESET,LOW);

	//Sväng vänster

	if(direct_angle > 0){
   80bb4:	2c00      	cmp	r4, #0
   80bb6:	dd4c      	ble.n	80c52 <rotate+0x136>
		while(r_count < (abs(direct_angle) / 4)){
   80bb8:	2c00      	cmp	r4, #0
   80bba:	bfb8      	it	lt
   80bbc:	4264      	neglt	r4, r4
   80bbe:	4627      	mov	r7, r4
   80bc0:	2c00      	cmp	r4, #0
   80bc2:	bfb8      	it	lt
   80bc4:	1ce7      	addlt	r7, r4, #3
   80bc6:	10bf      	asrs	r7, r7, #2
   80bc8:	4b63      	ldr	r3, [pc, #396]	; (80d58 <rotate+0x23c>)
   80bca:	681a      	ldr	r2, [r3, #0]
   80bcc:	4297      	cmp	r7, r2
   80bce:	dd35      	ble.n	80c3c <rotate+0x120>
	base->PIO_CODR = mask & ~level;
}

__always_inline static bool arch_ioport_get_pin_level(ioport_pin_t pin)
{
	return arch_ioport_pin_to_base(pin)->PIO_PDSR & arch_ioport_pin_to_mask(pin);
   80bd0:	f8df 9190 	ldr.w	r9, [pc, #400]	; 80d64 <rotate+0x248>
   80bd4:	4c64      	ldr	r4, [pc, #400]	; (80d68 <rotate+0x24c>)
   80bd6:	f8df 81a4 	ldr.w	r8, [pc, #420]	; 80d7c <rotate+0x260>
   80bda:	f8d9 603c 	ldr.w	r6, [r9, #60]	; 0x3c
   80bde:	6be5      	ldr	r5, [r4, #60]	; 0x3c
   80be0:	6be0      	ldr	r0, [r4, #60]	; 0x3c
   80be2:	6be1      	ldr	r1, [r4, #60]	; 0x3c
   80be4:	6be3      	ldr	r3, [r4, #60]	; 0x3c
   80be6:	f8d8 203c 	ldr.w	r2, [r8, #60]	; 0x3c
   80bea:	f3c6 36c0 	ubfx	r6, r6, #15, #1
   80bee:	f3c5 0540 	ubfx	r5, r5, #1, #1
			r_count = ioport_get_pin_level(R0)+ioport_get_pin_level(R1)*2+ioport_get_pin_level(R2)*4+ioport_get_pin_level(R3)*8
   80bf2:	eb06 0545 	add.w	r5, r6, r5, lsl #1
   80bf6:	f3c0 00c0 	ubfx	r0, r0, #3, #1
   80bfa:	eb05 0080 	add.w	r0, r5, r0, lsl #2
   80bfe:	f3c1 2140 	ubfx	r1, r1, #9, #1
   80c02:	eb00 01c1 	add.w	r1, r0, r1, lsl #3
   80c06:	f3c3 2380 	ubfx	r3, r3, #10, #1
			+ioport_get_pin_level(R4)*16+ioport_get_pin_level(R5)*32;
   80c0a:	eb01 1303 	add.w	r3, r1, r3, lsl #4
   80c0e:	f3c2 0280 	ubfx	r2, r2, #2, #1
   80c12:	eb03 1242 	add.w	r2, r3, r2, lsl #5

	//Sväng vänster

	if(direct_angle > 0){
		while(r_count < (abs(direct_angle) / 4)){
			r_count = ioport_get_pin_level(R0)+ioport_get_pin_level(R1)*2+ioport_get_pin_level(R2)*4+ioport_get_pin_level(R3)*8
   80c16:	4d50      	ldr	r5, [pc, #320]	; (80d58 <rotate+0x23c>)
   80c18:	602a      	str	r2, [r5, #0]
			+ioport_get_pin_level(R4)*16+ioport_get_pin_level(R5)*32;
			
			sprintf(str,"\nr_count = %d", r_count);
   80c1a:	4e4a      	ldr	r6, [pc, #296]	; (80d44 <rotate+0x228>)
   80c1c:	4630      	mov	r0, r6
   80c1e:	4953      	ldr	r1, [pc, #332]	; (80d6c <rotate+0x250>)
   80c20:	4b53      	ldr	r3, [pc, #332]	; (80d70 <rotate+0x254>)
   80c22:	4798      	blx	r3
			printf(str);
   80c24:	4630      	mov	r0, r6
   80c26:	4b49      	ldr	r3, [pc, #292]	; (80d4c <rotate+0x230>)
   80c28:	4798      	blx	r3

			moveForward(1400,1600);
   80c2a:	f44f 60af 	mov.w	r0, #1400	; 0x578
   80c2e:	f44f 61c8 	mov.w	r1, #1600	; 0x640
   80c32:	4b50      	ldr	r3, [pc, #320]	; (80d74 <rotate+0x258>)
   80c34:	4798      	blx	r3
	ioport_set_pin_level(R_RESET,LOW);

	//Sväng vänster

	if(direct_angle > 0){
		while(r_count < (abs(direct_angle) / 4)){
   80c36:	682a      	ldr	r2, [r5, #0]
   80c38:	42ba      	cmp	r2, r7
   80c3a:	dbce      	blt.n	80bda <rotate+0xbe>
		
		
		
		int count_total = r_count * 4;
		//printf("RCOUNT =%d ",r_count);
		sprintf(str,"\ncount_right = %d", count_total);
   80c3c:	4c41      	ldr	r4, [pc, #260]	; (80d44 <rotate+0x228>)
   80c3e:	4620      	mov	r0, r4
   80c40:	494d      	ldr	r1, [pc, #308]	; (80d78 <rotate+0x25c>)
   80c42:	0092      	lsls	r2, r2, #2
   80c44:	4b4a      	ldr	r3, [pc, #296]	; (80d70 <rotate+0x254>)
   80c46:	4798      	blx	r3
		printf(str);
   80c48:	4620      	mov	r0, r4
   80c4a:	4b40      	ldr	r3, [pc, #256]	; (80d4c <rotate+0x230>)
   80c4c:	4798      	blx	r3

		ret = 1;
   80c4e:	2501      	movs	r5, #1
   80c50:	e056      	b.n	80d00 <rotate+0x1e4>
		
	}

	//Sväng höger

	else if(direct_angle < 0){
   80c52:	2c00      	cmp	r4, #0
   80c54:	da4e      	bge.n	80cf4 <rotate+0x1d8>
		while(l_count < (abs(direct_angle) / 4)){
   80c56:	2c00      	cmp	r4, #0
   80c58:	bfb8      	it	lt
   80c5a:	4264      	neglt	r4, r4
   80c5c:	46a0      	mov	r8, r4
   80c5e:	2c00      	cmp	r4, #0
   80c60:	bfb8      	it	lt
   80c62:	f104 0803 	addlt.w	r8, r4, #3
   80c66:	ea4f 08a8 	mov.w	r8, r8, asr #2
   80c6a:	4b3c      	ldr	r3, [pc, #240]	; (80d5c <rotate+0x240>)
   80c6c:	681b      	ldr	r3, [r3, #0]
   80c6e:	4598      	cmp	r8, r3
   80c70:	dd33      	ble.n	80cda <rotate+0x1be>
   80c72:	4c3d      	ldr	r4, [pc, #244]	; (80d68 <rotate+0x24c>)
   80c74:	f8df 90ec 	ldr.w	r9, [pc, #236]	; 80d64 <rotate+0x248>
   80c78:	4f40      	ldr	r7, [pc, #256]	; (80d7c <rotate+0x260>)
   80c7a:	6be6      	ldr	r6, [r4, #60]	; 0x3c
   80c7c:	6be5      	ldr	r5, [r4, #60]	; 0x3c
   80c7e:	6be0      	ldr	r0, [r4, #60]	; 0x3c
   80c80:	f8d9 103c 	ldr.w	r1, [r9, #60]	; 0x3c
   80c84:	6bfb      	ldr	r3, [r7, #60]	; 0x3c
   80c86:	6bfa      	ldr	r2, [r7, #60]	; 0x3c
   80c88:	f006 0601 	and.w	r6, r6, #1
   80c8c:	f3c5 0580 	ubfx	r5, r5, #2, #1
			l_count = ioport_get_pin_level(L0)+ioport_get_pin_level(L1)*2+ioport_get_pin_level(L2)*4+ioport_get_pin_level(L3)*8
   80c90:	eb06 0545 	add.w	r5, r6, r5, lsl #1
   80c94:	f3c0 1080 	ubfx	r0, r0, #6, #1
   80c98:	eb05 0080 	add.w	r0, r5, r0, lsl #2
   80c9c:	f3c1 11c0 	ubfx	r1, r1, #7, #1
   80ca0:	eb00 01c1 	add.w	r1, r0, r1, lsl #3
   80ca4:	f3c3 0340 	ubfx	r3, r3, #1, #1
			+ioport_get_pin_level(L4)*16+ioport_get_pin_level(L5)*32;
   80ca8:	eb01 1303 	add.w	r3, r1, r3, lsl #4
   80cac:	f3c2 02c0 	ubfx	r2, r2, #3, #1
   80cb0:	eb03 1242 	add.w	r2, r3, r2, lsl #5

	//Sväng höger

	else if(direct_angle < 0){
		while(l_count < (abs(direct_angle) / 4)){
			l_count = ioport_get_pin_level(L0)+ioport_get_pin_level(L1)*2+ioport_get_pin_level(L2)*4+ioport_get_pin_level(L3)*8
   80cb4:	4d29      	ldr	r5, [pc, #164]	; (80d5c <rotate+0x240>)
   80cb6:	602a      	str	r2, [r5, #0]
			+ioport_get_pin_level(L4)*16+ioport_get_pin_level(L5)*32;
			
			sprintf(str,"\nl_count = %d", l_count);
   80cb8:	4e22      	ldr	r6, [pc, #136]	; (80d44 <rotate+0x228>)
   80cba:	4630      	mov	r0, r6
   80cbc:	4930      	ldr	r1, [pc, #192]	; (80d80 <rotate+0x264>)
   80cbe:	4b2c      	ldr	r3, [pc, #176]	; (80d70 <rotate+0x254>)
   80cc0:	4798      	blx	r3
			printf(str);
   80cc2:	4630      	mov	r0, r6
   80cc4:	4b21      	ldr	r3, [pc, #132]	; (80d4c <rotate+0x230>)
   80cc6:	4798      	blx	r3

			moveForward(1600,1400);
   80cc8:	f44f 60c8 	mov.w	r0, #1600	; 0x640
   80ccc:	f44f 61af 	mov.w	r1, #1400	; 0x578
   80cd0:	4b28      	ldr	r3, [pc, #160]	; (80d74 <rotate+0x258>)
   80cd2:	4798      	blx	r3
	}

	//Sväng höger

	else if(direct_angle < 0){
		while(l_count < (abs(direct_angle) / 4)){
   80cd4:	682b      	ldr	r3, [r5, #0]
   80cd6:	4543      	cmp	r3, r8
   80cd8:	dbcf      	blt.n	80c7a <rotate+0x15e>
			moveForward(1600,1400);

		}
		
		int count_total = -l_count * 4;
		sprintf(str,"\ncount_left = %d", count_total);
   80cda:	4c1a      	ldr	r4, [pc, #104]	; (80d44 <rotate+0x228>)

			moveForward(1600,1400);

		}
		
		int count_total = -l_count * 4;
   80cdc:	ebc3 7283 	rsb	r2, r3, r3, lsl #30
		sprintf(str,"\ncount_left = %d", count_total);
   80ce0:	4620      	mov	r0, r4
   80ce2:	4928      	ldr	r1, [pc, #160]	; (80d84 <rotate+0x268>)
   80ce4:	0092      	lsls	r2, r2, #2
   80ce6:	4b22      	ldr	r3, [pc, #136]	; (80d70 <rotate+0x254>)
   80ce8:	4798      	blx	r3
		printf(str);
   80cea:	4620      	mov	r0, r4
   80cec:	4b17      	ldr	r3, [pc, #92]	; (80d4c <rotate+0x230>)
   80cee:	4798      	blx	r3
		
		ret = 1;
   80cf0:	2501      	movs	r5, #1
   80cf2:	e005      	b.n	80d00 <rotate+0x1e4>
	}

	//Stoppa

	else{
		moveForward(1500,1500);
   80cf4:	f240 50dc 	movw	r0, #1500	; 0x5dc
   80cf8:	4601      	mov	r1, r0
   80cfa:	4b1e      	ldr	r3, [pc, #120]	; (80d74 <rotate+0x258>)
   80cfc:	4798      	blx	r3
	direction = calculateDirection(currentx1,currenty1,currentx2,currenty2);
	
	sprintf(str,"\nDirection: %d",direction);
	printf(str);
	
	int ret = 0;
   80cfe:	2500      	movs	r5, #0
	else{
		moveForward(1500,1500);
		
	}
	
	sprintf(str,"\nCounter = %d",interruptCounter);
   80d00:	4c10      	ldr	r4, [pc, #64]	; (80d44 <rotate+0x228>)
   80d02:	4620      	mov	r0, r4
   80d04:	4920      	ldr	r1, [pc, #128]	; (80d88 <rotate+0x26c>)
   80d06:	4b21      	ldr	r3, [pc, #132]	; (80d8c <rotate+0x270>)
   80d08:	681a      	ldr	r2, [r3, #0]
   80d0a:	4b19      	ldr	r3, [pc, #100]	; (80d70 <rotate+0x254>)
   80d0c:	4798      	blx	r3
	printf(str);
   80d0e:	4620      	mov	r0, r4
   80d10:	4b0e      	ldr	r3, [pc, #56]	; (80d4c <rotate+0x230>)
   80d12:	4798      	blx	r3
		bool level)
{
	Pio *base = arch_ioport_pin_to_base(pin);

	if (level) {
		base->PIO_SODR = arch_ioport_pin_to_mask(pin);
   80d14:	f44f 4280 	mov.w	r2, #16384	; 0x4000
   80d18:	4b12      	ldr	r3, [pc, #72]	; (80d64 <rotate+0x248>)
   80d1a:	631a      	str	r2, [r3, #48]	; 0x30
   80d1c:	f04f 6280 	mov.w	r2, #67108864	; 0x4000000
   80d20:	f503 7300 	add.w	r3, r3, #512	; 0x200
   80d24:	631a      	str	r2, [r3, #48]	; 0x30

	ioport_set_pin_level(L_RESET,HIGH);
	ioport_set_pin_level(R_RESET,HIGH);

	return ret;
}
   80d26:	4628      	mov	r0, r5
   80d28:	e8bd 83f8 	ldmia.w	sp!, {r3, r4, r5, r6, r7, r8, r9, pc}
   80d2c:	20078dd0 	.word	0x20078dd0
   80d30:	20078dd2 	.word	0x20078dd2
   80d34:	20078dc4 	.word	0x20078dc4
   80d38:	20078dd4 	.word	0x20078dd4
   80d3c:	000807d1 	.word	0x000807d1
   80d40:	20070a8c 	.word	0x20070a8c
   80d44:	20078dd8 	.word	0x20078dd8
   80d48:	0008a64c 	.word	0x0008a64c
   80d4c:	00084959 	.word	0x00084959
   80d50:	b60b60b7 	.word	0xb60b60b7
   80d54:	0008a65c 	.word	0x0008a65c
   80d58:	20070a98 	.word	0x20070a98
   80d5c:	20070a80 	.word	0x20070a80
   80d60:	0008a670 	.word	0x0008a670
   80d64:	400e0e00 	.word	0x400e0e00
   80d68:	400e1400 	.word	0x400e1400
   80d6c:	0008a67c 	.word	0x0008a67c
   80d70:	00084c11 	.word	0x00084c11
   80d74:	000819c5 	.word	0x000819c5
   80d78:	0008a68c 	.word	0x0008a68c
   80d7c:	400e1200 	.word	0x400e1200
   80d80:	0008a6a0 	.word	0x0008a6a0
   80d84:	0008a6b0 	.word	0x0008a6b0
   80d88:	0008a6c4 	.word	0x0008a6c4
   80d8c:	20070a84 	.word	0x20070a84

00080d90 <cameraSearch>:

int cameraSearch(void){
   80d90:	b570      	push	{r4, r5, r6, lr}
   80d92:	2280      	movs	r2, #128	; 0x80
   80d94:	4b21      	ldr	r3, [pc, #132]	; (80e1c <cameraSearch+0x8c>)
   80d96:	631a      	str	r2, [r3, #48]	; 0x30
	base->PIO_CODR = mask & ~level;
}

__always_inline static bool arch_ioport_get_pin_level(ioport_pin_t pin)
{
	return arch_ioport_pin_to_base(pin)->PIO_PDSR & arch_ioport_pin_to_mask(pin);
   80d98:	461c      	mov	r4, r3
   80d9a:	4d21      	ldr	r5, [pc, #132]	; (80e20 <cameraSearch+0x90>)
			printf("\nTurn around");
		}else if(ioport_get_pin_level(ON_TARGET)){
			r=1;
			printf("\nOn target");
		}else{
			printf("\nError");
   80d9c:	4e21      	ldr	r6, [pc, #132]	; (80e24 <cameraSearch+0x94>)
   80d9e:	6be3      	ldr	r3, [r4, #60]	; 0x3c
	ioport_set_pin_level(START_CAMERA,HIGH);
	
	int r = 0;
	
	while(0 == r){
		if(ioport_get_pin_level(TURN_LEFT)){
   80da0:	f413 7f80 	tst.w	r3, #256	; 0x100
   80da4:	d009      	beq.n	80dba <cameraSearch+0x2a>
			moveForward(1400,1600);
   80da6:	f44f 60af 	mov.w	r0, #1400	; 0x578
   80daa:	f44f 61c8 	mov.w	r1, #1600	; 0x640
   80dae:	4b1e      	ldr	r3, [pc, #120]	; (80e28 <cameraSearch+0x98>)
   80db0:	4798      	blx	r3
			printf("\nTurn left");
   80db2:	481e      	ldr	r0, [pc, #120]	; (80e2c <cameraSearch+0x9c>)
   80db4:	4b1e      	ldr	r3, [pc, #120]	; (80e30 <cameraSearch+0xa0>)
   80db6:	4798      	blx	r3
   80db8:	e7f1      	b.n	80d9e <cameraSearch+0xe>
   80dba:	6be3      	ldr	r3, [r4, #60]	; 0x3c
		} 
		else if(ioport_get_pin_level(TURN_RIGHT)){
   80dbc:	f413 2f00 	tst.w	r3, #524288	; 0x80000
   80dc0:	d009      	beq.n	80dd6 <cameraSearch+0x46>
			moveForward(1600,1400);	
   80dc2:	f44f 60c8 	mov.w	r0, #1600	; 0x640
   80dc6:	f44f 61af 	mov.w	r1, #1400	; 0x578
   80dca:	4b17      	ldr	r3, [pc, #92]	; (80e28 <cameraSearch+0x98>)
   80dcc:	4798      	blx	r3
			printf("\nTurn right");
   80dce:	4819      	ldr	r0, [pc, #100]	; (80e34 <cameraSearch+0xa4>)
   80dd0:	4b17      	ldr	r3, [pc, #92]	; (80e30 <cameraSearch+0xa0>)
   80dd2:	4798      	blx	r3
   80dd4:	e7e3      	b.n	80d9e <cameraSearch+0xe>
   80dd6:	6be3      	ldr	r3, [r4, #60]	; 0x3c
		}
		else if(ioport_get_pin_level(OFF_TARGET)){
   80dd8:	f413 3f00 	tst.w	r3, #131072	; 0x20000
   80ddc:	d009      	beq.n	80df2 <cameraSearch+0x62>
			moveForward(1600,1400);
   80dde:	f44f 60c8 	mov.w	r0, #1600	; 0x640
   80de2:	f44f 61af 	mov.w	r1, #1400	; 0x578
   80de6:	4b10      	ldr	r3, [pc, #64]	; (80e28 <cameraSearch+0x98>)
   80de8:	4798      	blx	r3
			printf("\nTurn around");
   80dea:	4813      	ldr	r0, [pc, #76]	; (80e38 <cameraSearch+0xa8>)
   80dec:	4b10      	ldr	r3, [pc, #64]	; (80e30 <cameraSearch+0xa0>)
   80dee:	4798      	blx	r3
   80df0:	e7d5      	b.n	80d9e <cameraSearch+0xe>
   80df2:	6beb      	ldr	r3, [r5, #60]	; 0x3c
		}else if(ioport_get_pin_level(ON_TARGET)){
   80df4:	f413 2f00 	tst.w	r3, #524288	; 0x80000
   80df8:	d103      	bne.n	80e02 <cameraSearch+0x72>
			r=1;
			printf("\nOn target");
		}else{
			printf("\nError");
   80dfa:	4630      	mov	r0, r6
   80dfc:	4b0c      	ldr	r3, [pc, #48]	; (80e30 <cameraSearch+0xa0>)
   80dfe:	4798      	blx	r3
   80e00:	e7cd      	b.n	80d9e <cameraSearch+0xe>
		else if(ioport_get_pin_level(OFF_TARGET)){
			moveForward(1600,1400);
			printf("\nTurn around");
		}else if(ioport_get_pin_level(ON_TARGET)){
			r=1;
			printf("\nOn target");
   80e02:	480e      	ldr	r0, [pc, #56]	; (80e3c <cameraSearch+0xac>)
   80e04:	4b0a      	ldr	r3, [pc, #40]	; (80e30 <cameraSearch+0xa0>)
   80e06:	4798      	blx	r3
	Pio *base = arch_ioport_pin_to_base(pin);

	if (level) {
		base->PIO_SODR = arch_ioport_pin_to_mask(pin);
	} else {
		base->PIO_CODR = arch_ioport_pin_to_mask(pin);
   80e08:	2280      	movs	r2, #128	; 0x80
   80e0a:	4b04      	ldr	r3, [pc, #16]	; (80e1c <cameraSearch+0x8c>)
   80e0c:	635a      	str	r2, [r3, #52]	; 0x34
		}
	}
	
	ioport_set_pin_level(START_CAMERA,LOW);
	
	moveForward(1500,1500);
   80e0e:	f240 50dc 	movw	r0, #1500	; 0x5dc
   80e12:	4601      	mov	r1, r0
   80e14:	4b04      	ldr	r3, [pc, #16]	; (80e28 <cameraSearch+0x98>)
   80e16:	4798      	blx	r3
	
	return r;	
}
   80e18:	2001      	movs	r0, #1
   80e1a:	bd70      	pop	{r4, r5, r6, pc}
   80e1c:	400e1200 	.word	0x400e1200
   80e20:	400e0e00 	.word	0x400e0e00
   80e24:	0008a708 	.word	0x0008a708
   80e28:	000819c5 	.word	0x000819c5
   80e2c:	0008a6d4 	.word	0x0008a6d4
   80e30:	00084959 	.word	0x00084959
   80e34:	0008a6e0 	.word	0x0008a6e0
   80e38:	0008a6ec 	.word	0x0008a6ec
   80e3c:	0008a6fc 	.word	0x0008a6fc

00080e40 <getCurrentPos>:

void getCurrentPos(void){
   80e40:	e92d 43f8 	stmdb	sp!, {r3, r4, r5, r6, r7, r8, r9, lr}
	na_sendstatus(XY1);
   80e44:	2050      	movs	r0, #80	; 0x50
   80e46:	4b18      	ldr	r3, [pc, #96]	; (80ea8 <getCurrentPos+0x68>)
   80e48:	4798      	blx	r3
	currentx1 = ((data_received_nav[1] << 8) | (data_received_nav[2] << 0));
   80e4a:	4918      	ldr	r1, [pc, #96]	; (80eac <getCurrentPos+0x6c>)
   80e4c:	784a      	ldrb	r2, [r1, #1]
   80e4e:	788b      	ldrb	r3, [r1, #2]
   80e50:	ea43 2202 	orr.w	r2, r3, r2, lsl #8
   80e54:	4f16      	ldr	r7, [pc, #88]	; (80eb0 <getCurrentPos+0x70>)
   80e56:	803a      	strh	r2, [r7, #0]
	currenty1 = ((data_received_nav[3] << 8) | (data_received_nav[4] << 0));
   80e58:	78c8      	ldrb	r0, [r1, #3]
   80e5a:	790b      	ldrb	r3, [r1, #4]
   80e5c:	ea43 2300 	orr.w	r3, r3, r0, lsl #8
   80e60:	4e14      	ldr	r6, [pc, #80]	; (80eb4 <getCurrentPos+0x74>)
   80e62:	8033      	strh	r3, [r6, #0]
	sprintf(str, "\ncurrent x1=%d y1=%d",currentx1,currenty1);
   80e64:	4c14      	ldr	r4, [pc, #80]	; (80eb8 <getCurrentPos+0x78>)
   80e66:	4620      	mov	r0, r4
   80e68:	4914      	ldr	r1, [pc, #80]	; (80ebc <getCurrentPos+0x7c>)
   80e6a:	b212      	sxth	r2, r2
   80e6c:	b21b      	sxth	r3, r3
   80e6e:	f8df 9060 	ldr.w	r9, [pc, #96]	; 80ed0 <getCurrentPos+0x90>
   80e72:	47c8      	blx	r9
	printf(str);
   80e74:	4620      	mov	r0, r4
   80e76:	f8df 805c 	ldr.w	r8, [pc, #92]	; 80ed4 <getCurrentPos+0x94>
   80e7a:	47c0      	blx	r8
	
	//Två rader in här
	
	sprintf(str, "\ncurrent x2=%d y2=%d",currentx2,currenty2);
   80e7c:	4d10      	ldr	r5, [pc, #64]	; (80ec0 <getCurrentPos+0x80>)
   80e7e:	4620      	mov	r0, r4
   80e80:	4910      	ldr	r1, [pc, #64]	; (80ec4 <getCurrentPos+0x84>)
   80e82:	f9b5 2000 	ldrsh.w	r2, [r5]
   80e86:	4b10      	ldr	r3, [pc, #64]	; (80ec8 <getCurrentPos+0x88>)
   80e88:	f9b3 3000 	ldrsh.w	r3, [r3]
   80e8c:	47c8      	blx	r9
	printf(str);
   80e8e:	4620      	mov	r0, r4
   80e90:	47c0      	blx	r8
	
	currentPos[0] = currentx1;
   80e92:	4b0e      	ldr	r3, [pc, #56]	; (80ecc <getCurrentPos+0x8c>)
   80e94:	883a      	ldrh	r2, [r7, #0]
   80e96:	801a      	strh	r2, [r3, #0]
	currentPos[1] = currenty1;
   80e98:	8832      	ldrh	r2, [r6, #0]
   80e9a:	805a      	strh	r2, [r3, #2]
	currentPos[2] = currentx2;
   80e9c:	882a      	ldrh	r2, [r5, #0]
   80e9e:	809a      	strh	r2, [r3, #4]
	currentPos[3] = currentx2;
   80ea0:	80da      	strh	r2, [r3, #6]
   80ea2:	e8bd 83f8 	ldmia.w	sp!, {r3, r4, r5, r6, r7, r8, r9, pc}
   80ea6:	bf00      	nop
   80ea8:	000802d5 	.word	0x000802d5
   80eac:	20070a78 	.word	0x20070a78
   80eb0:	20078dd0 	.word	0x20078dd0
   80eb4:	20078dd2 	.word	0x20078dd2
   80eb8:	20078dd8 	.word	0x20078dd8
   80ebc:	0008a710 	.word	0x0008a710
   80ec0:	20078dc4 	.word	0x20078dc4
   80ec4:	0008a728 	.word	0x0008a728
   80ec8:	20078dd4 	.word	0x20078dd4
   80ecc:	20078dc8 	.word	0x20078dc8
   80ed0:	00084c11 	.word	0x00084c11
   80ed4:	00084959 	.word	0x00084959

00080ed8 <getStartData>:
}

void getStartData(void){
   80ed8:	b508      	push	{r3, lr}
	na_sendstatus(SQUAREXY);
   80eda:	2053      	movs	r0, #83	; 0x53
   80edc:	4b01      	ldr	r3, [pc, #4]	; (80ee4 <getStartData+0xc>)
   80ede:	4798      	blx	r3
   80ee0:	bd08      	pop	{r3, pc}
   80ee2:	bf00      	nop
   80ee4:	000802d5 	.word	0x000802d5

00080ee8 <pulseins>:
}




int pulseins(void){
   80ee8:	b570      	push	{r4, r5, r6, lr}
	int state = 1;
	int flag = 0,clocktime;
   80eea:	2200      	movs	r2, #0
	base->PIO_CODR = mask & ~level;
}

__always_inline static bool arch_ioport_get_pin_level(ioport_pin_t pin)
{
	return arch_ioport_pin_to_base(pin)->PIO_PDSR & arch_ioport_pin_to_mask(pin);
   80eec:	4c11      	ldr	r4, [pc, #68]	; (80f34 <pulseins+0x4c>)
	while(state){
		if(ioport_get_pin_level(EchoPin) && !flag){
			tc_start(TC0,0);
   80eee:	4e12      	ldr	r6, [pc, #72]	; (80f38 <pulseins+0x50>)
   80ef0:	4d12      	ldr	r5, [pc, #72]	; (80f3c <pulseins+0x54>)
   80ef2:	6be3      	ldr	r3, [r4, #60]	; 0x3c

int pulseins(void){
	int state = 1;
	int flag = 0,clocktime;
	while(state){
		if(ioport_get_pin_level(EchoPin) && !flag){
   80ef4:	f413 0f00 	tst.w	r3, #8388608	; 0x800000
   80ef8:	d005      	beq.n	80f06 <pulseins+0x1e>
   80efa:	b95a      	cbnz	r2, 80f14 <pulseins+0x2c>
			tc_start(TC0,0);
   80efc:	4630      	mov	r0, r6
   80efe:	2100      	movs	r1, #0
   80f00:	47a8      	blx	r5
			flag = 1;
   80f02:	2201      	movs	r2, #1
   80f04:	e006      	b.n	80f14 <pulseins+0x2c>
   80f06:	6be3      	ldr	r3, [r4, #60]	; 0x3c
		}
		if(!ioport_get_pin_level(EchoPin) && flag)
   80f08:	f413 0f00 	tst.w	r3, #8388608	; 0x800000
   80f0c:	d1f1      	bne.n	80ef2 <pulseins+0xa>
   80f0e:	2a00      	cmp	r2, #0
   80f10:	d0ef      	beq.n	80ef2 <pulseins+0xa>
   80f12:	e003      	b.n	80f1c <pulseins+0x34>
   80f14:	6be3      	ldr	r3, [r4, #60]	; 0x3c
   80f16:	f413 0f00 	tst.w	r3, #8388608	; 0x800000
   80f1a:	d1ea      	bne.n	80ef2 <pulseins+0xa>
		{
			clocktime = tc_read_cv(TC0,0);
   80f1c:	4c06      	ldr	r4, [pc, #24]	; (80f38 <pulseins+0x50>)
   80f1e:	4620      	mov	r0, r4
   80f20:	2100      	movs	r1, #0
   80f22:	4b07      	ldr	r3, [pc, #28]	; (80f40 <pulseins+0x58>)
   80f24:	4798      	blx	r3
   80f26:	4605      	mov	r5, r0
			tc_stop(TC0,0);
   80f28:	4620      	mov	r0, r4
   80f2a:	2100      	movs	r1, #0
   80f2c:	4b05      	ldr	r3, [pc, #20]	; (80f44 <pulseins+0x5c>)
   80f2e:	4798      	blx	r3
			flag = 0;
			state = 0;
		}
	}
	return clocktime;
}
   80f30:	4628      	mov	r0, r5
   80f32:	bd70      	pop	{r4, r5, r6, pc}
   80f34:	400e1200 	.word	0x400e1200
   80f38:	40080000 	.word	0x40080000
   80f3c:	00081535 	.word	0x00081535
   80f40:	00081545 	.word	0x00081545
   80f44:	0008153d 	.word	0x0008153d

00080f48 <task_ultraLjud>:
// xSemaphoreHandle main_semafor = 0;
// 
// 
// xQueueHandle taskQueue = 0;

void task_ultraLjud(void *pvParameters){
   80f48:	e92d 4ff0 	stmdb	sp!, {r4, r5, r6, r7, r8, r9, sl, fp, lr}
   80f4c:	b083      	sub	sp, #12
// 	vSemaphoreCreateBinary(main_semafor);
// 	
// 	taskQueue = xQueueCreate(5,sizeof(int));

	
	printf("\nTask Ultraljud");
   80f4e:	48a0      	ldr	r0, [pc, #640]	; (811d0 <task_ultraLjud+0x288>)
   80f50:	4ca0      	ldr	r4, [pc, #640]	; (811d4 <task_ultraLjud+0x28c>)
   80f52:	47a0      	blx	r4
	portTickType xLastWakeTime;
	const portTickType xTimeIncrement = 500;
	xLastWakeTime = xTaskGetTickCount();
   80f54:	4ba0      	ldr	r3, [pc, #640]	; (811d8 <task_ultraLjud+0x290>)
   80f56:	4798      	blx	r3
   80f58:	f8ad 0006 	strh.w	r0, [sp, #6]
	
	printf("\nTRYING TO SEND TO PA");
   80f5c:	489f      	ldr	r0, [pc, #636]	; (811dc <task_ultraLjud+0x294>)
   80f5e:	47a0      	blx	r4
	pa_sendstatus(TWI_CMD_ARM_INIT,SOCK);
   80f60:	2020      	movs	r0, #32
   80f62:	2102      	movs	r1, #2
   80f64:	4b9e      	ldr	r3, [pc, #632]	; (811e0 <task_ultraLjud+0x298>)
   80f66:	4798      	blx	r3
	
	
	printf("\nGet start data");
   80f68:	489e      	ldr	r0, [pc, #632]	; (811e4 <task_ultraLjud+0x29c>)
   80f6a:	47a0      	blx	r4
	getStartData();
   80f6c:	4b9e      	ldr	r3, [pc, #632]	; (811e8 <task_ultraLjud+0x2a0>)
   80f6e:	4798      	blx	r3
	sprintf(str,"\nStart data. x=%d y=%d",objectinfo[1].xpos,objectinfo[1].ypox);
   80f70:	4d9e      	ldr	r5, [pc, #632]	; (811ec <task_ultraLjud+0x2a4>)
   80f72:	4b9f      	ldr	r3, [pc, #636]	; (811f0 <task_ultraLjud+0x2a8>)
   80f74:	4628      	mov	r0, r5
   80f76:	499f      	ldr	r1, [pc, #636]	; (811f4 <task_ultraLjud+0x2ac>)
   80f78:	f9b3 2008 	ldrsh.w	r2, [r3, #8]
   80f7c:	f9b3 300a 	ldrsh.w	r3, [r3, #10]
   80f80:	4e9d      	ldr	r6, [pc, #628]	; (811f8 <task_ultraLjud+0x2b0>)
   80f82:	47b0      	blx	r6
	printf(str);
   80f84:	4628      	mov	r0, r5
   80f86:	47a0      	blx	r4
		bool level)
{
	Pio *base = arch_ioport_pin_to_base(pin);

	if (level) {
		base->PIO_SODR = arch_ioport_pin_to_mask(pin);
   80f88:	4f9c      	ldr	r7, [pc, #624]	; (811fc <task_ultraLjud+0x2b4>)
		long duration;
		ioport_set_pin_level(TriggerPin,HIGH);
		delayMicroseconds(10000);
		ioport_set_pin_level(TriggerPin,LOW);
		duration = pulseins();
		sensordistance = (duration/42)/58.2;
   80f8a:	f8df 82d8 	ldr.w	r8, [pc, #728]	; 81264 <task_ultraLjud+0x31c>
   80f8e:	a58e      	add	r5, pc, #568	; (adr r5, 811c8 <task_ultraLjud+0x280>)
   80f90:	e9d5 4500 	ldrd	r4, r5, [r5]
	sprintf(str,"\nStart data. x=%d y=%d",objectinfo[1].xpos,objectinfo[1].ypox);
	printf(str);
	
	while (1){
		
		vTaskDelayUntil(&xLastWakeTime,xTimeIncrement);
   80f94:	f10d 0006 	add.w	r0, sp, #6
   80f98:	f44f 71fa 	mov.w	r1, #500	; 0x1f4
   80f9c:	4b98      	ldr	r3, [pc, #608]	; (81200 <task_ultraLjud+0x2b8>)
   80f9e:	4798      	blx	r3
   80fa0:	f44f 0680 	mov.w	r6, #4194304	; 0x400000
   80fa4:	633e      	str	r6, [r7, #48]	; 0x30
		
		long duration;
		ioport_set_pin_level(TriggerPin,HIGH);
		delayMicroseconds(10000);
   80fa6:	f242 7010 	movw	r0, #10000	; 0x2710
   80faa:	4b96      	ldr	r3, [pc, #600]	; (81204 <task_ultraLjud+0x2bc>)
   80fac:	4798      	blx	r3
	} else {
		base->PIO_CODR = arch_ioport_pin_to_mask(pin);
   80fae:	637e      	str	r6, [r7, #52]	; 0x34
		ioport_set_pin_level(TriggerPin,LOW);
		duration = pulseins();
   80fb0:	4b95      	ldr	r3, [pc, #596]	; (81208 <task_ultraLjud+0x2c0>)
   80fb2:	4798      	blx	r3
		sensordistance = (duration/42)/58.2;
   80fb4:	fb88 2300 	smull	r2, r3, r8, r0
   80fb8:	17c0      	asrs	r0, r0, #31
   80fba:	ebc0 00e3 	rsb	r0, r0, r3, asr #3
   80fbe:	4b93      	ldr	r3, [pc, #588]	; (8120c <task_ultraLjud+0x2c4>)
   80fc0:	4798      	blx	r3
   80fc2:	4622      	mov	r2, r4
   80fc4:	462b      	mov	r3, r5
   80fc6:	4e92      	ldr	r6, [pc, #584]	; (81210 <task_ultraLjud+0x2c8>)
   80fc8:	47b0      	blx	r6
   80fca:	4b92      	ldr	r3, [pc, #584]	; (81214 <task_ultraLjud+0x2cc>)
   80fcc:	4798      	blx	r3
   80fce:	4b92      	ldr	r3, [pc, #584]	; (81218 <task_ultraLjud+0x2d0>)
   80fd0:	6018      	str	r0, [r3, #0]
		
		switch (main_case)
   80fd2:	4b92      	ldr	r3, [pc, #584]	; (8121c <task_ultraLjud+0x2d4>)
   80fd4:	681b      	ldr	r3, [r3, #0]
   80fd6:	3b01      	subs	r3, #1
   80fd8:	2b08      	cmp	r3, #8
   80fda:	f200 8202 	bhi.w	813e2 <task_ultraLjud+0x49a>
   80fde:	e8df f013 	tbh	[pc, r3, lsl #1]
   80fe2:	0009      	.short	0x0009
   80fe4:	00850050 	.word	0x00850050
   80fe8:	00aa009a 	.word	0x00aa009a
   80fec:	017f014b 	.word	0x017f014b
   80ff0:	01cb0183 	.word	0x01cb0183
		{
		case 1:
			printf("\nTurn to square");
   80ff4:	488a      	ldr	r0, [pc, #552]	; (81220 <task_ultraLjud+0x2d8>)
   80ff6:	4e77      	ldr	r6, [pc, #476]	; (811d4 <task_ultraLjud+0x28c>)
   80ff8:	47b0      	blx	r6
			getStartData();
   80ffa:	4b7b      	ldr	r3, [pc, #492]	; (811e8 <task_ultraLjud+0x2a0>)
   80ffc:	4798      	blx	r3
			getCurrentPos();
   80ffe:	4b89      	ldr	r3, [pc, #548]	; (81224 <task_ultraLjud+0x2dc>)
   81000:	4798      	blx	r3
			
			vTaskDelay(10);
   81002:	200a      	movs	r0, #10
   81004:	f8df b260 	ldr.w	fp, [pc, #608]	; 81268 <task_ultraLjud+0x320>
   81008:	47d8      	blx	fp
			
			currentX = (currentPos[0] + currentPos[2]) / 2;
   8100a:	f8df a260 	ldr.w	sl, [pc, #608]	; 8126c <task_ultraLjud+0x324>
   8100e:	4b86      	ldr	r3, [pc, #536]	; (81228 <task_ultraLjud+0x2e0>)
   81010:	f9b3 1000 	ldrsh.w	r1, [r3]
   81014:	f9b3 2004 	ldrsh.w	r2, [r3, #4]
   81018:	440a      	add	r2, r1
   8101a:	eb02 72d2 	add.w	r2, r2, r2, lsr #31
   8101e:	1052      	asrs	r2, r2, #1
   81020:	f8ca 2000 	str.w	r2, [sl]
			currentY = (currentPos[1] + currentPos[3]) / 2;
   81024:	f8df 9210 	ldr.w	r9, [pc, #528]	; 81238 <task_ultraLjud+0x2f0>
   81028:	f9b3 2002 	ldrsh.w	r2, [r3, #2]
   8102c:	f9b3 3006 	ldrsh.w	r3, [r3, #6]
   81030:	4413      	add	r3, r2
   81032:	eb03 73d3 	add.w	r3, r3, r3, lsr #31
   81036:	105b      	asrs	r3, r3, #1
   81038:	f8c9 3000 	str.w	r3, [r9]
			
			vTaskDelay(10);
   8103c:	200a      	movs	r0, #10
   8103e:	47d8      	blx	fp
			
			targetAngle = calculateAngle(currentX,currentY,objectinfo[1].xpos,objectinfo[1].ypox);		//Fungerar
   81040:	4b6b      	ldr	r3, [pc, #428]	; (811f0 <task_ultraLjud+0x2a8>)
   81042:	f8ba 0000 	ldrh.w	r0, [sl]
   81046:	f8b9 1000 	ldrh.w	r1, [r9]
   8104a:	891a      	ldrh	r2, [r3, #8]
   8104c:	895b      	ldrh	r3, [r3, #10]
   8104e:	f8df c220 	ldr.w	ip, [pc, #544]	; 81270 <task_ultraLjud+0x328>
   81052:	47e0      	blx	ip
   81054:	4602      	mov	r2, r0
   81056:	f8df 921c 	ldr.w	r9, [pc, #540]	; 81274 <task_ultraLjud+0x32c>
   8105a:	f8c9 0000 	str.w	r0, [r9]
			sprintf(str,"\nTarget angle = %d",targetAngle);
   8105e:	f8df a18c 	ldr.w	sl, [pc, #396]	; 811ec <task_ultraLjud+0x2a4>
   81062:	4650      	mov	r0, sl
   81064:	4971      	ldr	r1, [pc, #452]	; (8122c <task_ultraLjud+0x2e4>)
   81066:	4b64      	ldr	r3, [pc, #400]	; (811f8 <task_ultraLjud+0x2b0>)
   81068:	4798      	blx	r3
			printf(str);	
   8106a:	4650      	mov	r0, sl
   8106c:	47b0      	blx	r6
			
			if(rotate(targetAngle)){
   8106e:	f8d9 0000 	ldr.w	r0, [r9]
   81072:	4b6f      	ldr	r3, [pc, #444]	; (81230 <task_ultraLjud+0x2e8>)
   81074:	4798      	blx	r3
   81076:	2800      	cmp	r0, #0
   81078:	d08c      	beq.n	80f94 <task_ultraLjud+0x4c>
					main_case = 2;
   8107a:	2202      	movs	r2, #2
   8107c:	4b67      	ldr	r3, [pc, #412]	; (8121c <task_ultraLjud+0x2d4>)
   8107e:	601a      	str	r2, [r3, #0]
   81080:	e788      	b.n	80f94 <task_ultraLjud+0x4c>
			}
			break;
		case 2:
			printf("\nDrive to square");
   81082:	486c      	ldr	r0, [pc, #432]	; (81234 <task_ultraLjud+0x2ec>)
   81084:	4b53      	ldr	r3, [pc, #332]	; (811d4 <task_ultraLjud+0x28c>)
   81086:	4798      	blx	r3
			getCurrentPos();
   81088:	4b66      	ldr	r3, [pc, #408]	; (81224 <task_ultraLjud+0x2dc>)
   8108a:	4798      	blx	r3

			vTaskDelay(10);
   8108c:	200a      	movs	r0, #10
   8108e:	f8df a1d8 	ldr.w	sl, [pc, #472]	; 81268 <task_ultraLjud+0x320>
   81092:	47d0      	blx	sl
			
			currentX = (currentPos[0] + currentPos[2]) / 2;
   81094:	f8df 91d4 	ldr.w	r9, [pc, #468]	; 8126c <task_ultraLjud+0x324>
   81098:	4b63      	ldr	r3, [pc, #396]	; (81228 <task_ultraLjud+0x2e0>)
   8109a:	f9b3 1000 	ldrsh.w	r1, [r3]
   8109e:	f9b3 2004 	ldrsh.w	r2, [r3, #4]
   810a2:	440a      	add	r2, r1
   810a4:	eb02 72d2 	add.w	r2, r2, r2, lsr #31
   810a8:	1052      	asrs	r2, r2, #1
   810aa:	f8c9 2000 	str.w	r2, [r9]
			currentY = (currentPos[1] + currentPos[3]) / 2;
   810ae:	4e62      	ldr	r6, [pc, #392]	; (81238 <task_ultraLjud+0x2f0>)
   810b0:	f9b3 2002 	ldrsh.w	r2, [r3, #2]
   810b4:	f9b3 3006 	ldrsh.w	r3, [r3, #6]
   810b8:	4413      	add	r3, r2
   810ba:	eb03 73d3 	add.w	r3, r3, r3, lsr #31
   810be:	105b      	asrs	r3, r3, #1
   810c0:	6033      	str	r3, [r6, #0]
			
			vTaskDelay(10);
   810c2:	200a      	movs	r0, #10
   810c4:	47d0      	blx	sl
			
			targetDistance = calculateDistance(currentX,currentY,objectinfo[1].xpos,objectinfo[1].ypox);
   810c6:	4b4a      	ldr	r3, [pc, #296]	; (811f0 <task_ultraLjud+0x2a8>)
   810c8:	f8b9 0000 	ldrh.w	r0, [r9]
   810cc:	8831      	ldrh	r1, [r6, #0]
   810ce:	891a      	ldrh	r2, [r3, #8]
   810d0:	895b      	ldrh	r3, [r3, #10]
   810d2:	4e5a      	ldr	r6, [pc, #360]	; (8123c <task_ultraLjud+0x2f4>)
   810d4:	47b0      	blx	r6
   810d6:	4b5a      	ldr	r3, [pc, #360]	; (81240 <task_ultraLjud+0x2f8>)
   810d8:	6018      	str	r0, [r3, #0]
				
			if(1==driveForward(targetDistance)){
   810da:	4b5a      	ldr	r3, [pc, #360]	; (81244 <task_ultraLjud+0x2fc>)
   810dc:	4798      	blx	r3
   810de:	2801      	cmp	r0, #1
   810e0:	f47f af58 	bne.w	80f94 <task_ultraLjud+0x4c>
				main_case = 3;
   810e4:	2203      	movs	r2, #3
   810e6:	4b4d      	ldr	r3, [pc, #308]	; (8121c <task_ultraLjud+0x2d4>)
   810e8:	601a      	str	r2, [r3, #0]
   810ea:	e753      	b.n	80f94 <task_ultraLjud+0x4c>
			}	
			break;
		case 3:
			printf("\nCamera Search");
   810ec:	4856      	ldr	r0, [pc, #344]	; (81248 <task_ultraLjud+0x300>)
   810ee:	4b39      	ldr	r3, [pc, #228]	; (811d4 <task_ultraLjud+0x28c>)
   810f0:	4798      	blx	r3
			if(cameraSearch()){
   810f2:	4b56      	ldr	r3, [pc, #344]	; (8124c <task_ultraLjud+0x304>)
   810f4:	4798      	blx	r3
   810f6:	b138      	cbz	r0, 81108 <task_ultraLjud+0x1c0>
				main_case = 4;
   810f8:	2204      	movs	r2, #4
   810fa:	4b48      	ldr	r3, [pc, #288]	; (8121c <task_ultraLjud+0x2d4>)
   810fc:	601a      	str	r2, [r3, #0]
				pa_sendstatus(TWI_CMD_PICKUP_START,SQUARE);
   810fe:	2022      	movs	r0, #34	; 0x22
   81100:	2103      	movs	r1, #3
   81102:	4b37      	ldr	r3, [pc, #220]	; (811e0 <task_ultraLjud+0x298>)
   81104:	4798      	blx	r3
   81106:	e745      	b.n	80f94 <task_ultraLjud+0x4c>
			}else{
				main_case = 3;
   81108:	2203      	movs	r2, #3
   8110a:	4b44      	ldr	r3, [pc, #272]	; (8121c <task_ultraLjud+0x2d4>)
   8110c:	601a      	str	r2, [r3, #0]
				printf("\nElse_camera");
   8110e:	4850      	ldr	r0, [pc, #320]	; (81250 <task_ultraLjud+0x308>)
   81110:	4b30      	ldr	r3, [pc, #192]	; (811d4 <task_ultraLjud+0x28c>)
   81112:	4798      	blx	r3
   81114:	e73e      	b.n	80f94 <task_ultraLjud+0x4c>
			}
			break;
		case 4:
			printf("\nPickup obj");
   81116:	484f      	ldr	r0, [pc, #316]	; (81254 <task_ultraLjud+0x30c>)
   81118:	4b2e      	ldr	r3, [pc, #184]	; (811d4 <task_ultraLjud+0x28c>)
   8111a:	4798      	blx	r3
			pa_sendstatus(TWI_CMD_PICKUP_STATUS,0);
   8111c:	2024      	movs	r0, #36	; 0x24
   8111e:	2100      	movs	r1, #0
   81120:	4b2f      	ldr	r3, [pc, #188]	; (811e0 <task_ultraLjud+0x298>)
   81122:	4798      	blx	r3
			if(data_received_pab[1] == 2){
   81124:	4b4c      	ldr	r3, [pc, #304]	; (81258 <task_ultraLjud+0x310>)
   81126:	785b      	ldrb	r3, [r3, #1]
   81128:	2b02      	cmp	r3, #2
   8112a:	f47f af33 	bne.w	80f94 <task_ultraLjud+0x4c>
				main_case = 5;
   8112e:	2205      	movs	r2, #5
   81130:	4b3a      	ldr	r3, [pc, #232]	; (8121c <task_ultraLjud+0x2d4>)
   81132:	601a      	str	r2, [r3, #0]
   81134:	e72e      	b.n	80f94 <task_ultraLjud+0x4c>
			}else{
				//inte klar;
			}
			break;
		case 5:
			printf("\nTurn to box");
   81136:	4849      	ldr	r0, [pc, #292]	; (8125c <task_ultraLjud+0x314>)
   81138:	4e26      	ldr	r6, [pc, #152]	; (811d4 <task_ultraLjud+0x28c>)
   8113a:	47b0      	blx	r6
			getStartData();
   8113c:	4b2a      	ldr	r3, [pc, #168]	; (811e8 <task_ultraLjud+0x2a0>)
   8113e:	4798      	blx	r3
			getCurrentPos();
   81140:	4b38      	ldr	r3, [pc, #224]	; (81224 <task_ultraLjud+0x2dc>)
   81142:	4798      	blx	r3
			
			vTaskDelay(10);
   81144:	200a      	movs	r0, #10
   81146:	f8df b120 	ldr.w	fp, [pc, #288]	; 81268 <task_ultraLjud+0x320>
   8114a:	47d8      	blx	fp
			
			currentX = (currentPos[0] + currentPos[2]) / 2;
   8114c:	f8df a11c 	ldr.w	sl, [pc, #284]	; 8126c <task_ultraLjud+0x324>
   81150:	4b35      	ldr	r3, [pc, #212]	; (81228 <task_ultraLjud+0x2e0>)
   81152:	f9b3 1000 	ldrsh.w	r1, [r3]
   81156:	f9b3 2004 	ldrsh.w	r2, [r3, #4]
   8115a:	440a      	add	r2, r1
   8115c:	eb02 72d2 	add.w	r2, r2, r2, lsr #31
   81160:	1052      	asrs	r2, r2, #1
   81162:	f8ca 2000 	str.w	r2, [sl]
			currentY = (currentPos[1] + currentPos[3]) / 2;
   81166:	f8df 90d0 	ldr.w	r9, [pc, #208]	; 81238 <task_ultraLjud+0x2f0>
   8116a:	f9b3 2002 	ldrsh.w	r2, [r3, #2]
   8116e:	f9b3 3006 	ldrsh.w	r3, [r3, #6]
   81172:	4413      	add	r3, r2
   81174:	eb03 73d3 	add.w	r3, r3, r3, lsr #31
   81178:	105b      	asrs	r3, r3, #1
   8117a:	f8c9 3000 	str.w	r3, [r9]
			
			vTaskDelay(10);
   8117e:	200a      	movs	r0, #10
   81180:	47d8      	blx	fp
			
			targetAngle = calculateAngle(currentX,currentY,50,0);		//Fungerar
   81182:	f8ba 0000 	ldrh.w	r0, [sl]
   81186:	f8b9 1000 	ldrh.w	r1, [r9]
   8118a:	2232      	movs	r2, #50	; 0x32
   8118c:	2300      	movs	r3, #0
   8118e:	f8df c0e0 	ldr.w	ip, [pc, #224]	; 81270 <task_ultraLjud+0x328>
   81192:	47e0      	blx	ip
   81194:	4602      	mov	r2, r0
   81196:	f8df 90dc 	ldr.w	r9, [pc, #220]	; 81274 <task_ultraLjud+0x32c>
   8119a:	f8c9 0000 	str.w	r0, [r9]
			sprintf(str,"\ntarget angle = %d",targetAngle);
   8119e:	f8df a04c 	ldr.w	sl, [pc, #76]	; 811ec <task_ultraLjud+0x2a4>
   811a2:	4650      	mov	r0, sl
   811a4:	492e      	ldr	r1, [pc, #184]	; (81260 <task_ultraLjud+0x318>)
   811a6:	4b14      	ldr	r3, [pc, #80]	; (811f8 <task_ultraLjud+0x2b0>)
   811a8:	4798      	blx	r3
			printf(str);
   811aa:	4650      	mov	r0, sl
   811ac:	47b0      	blx	r6
			
			if(rotate(targetAngle)){
   811ae:	f8d9 0000 	ldr.w	r0, [r9]
   811b2:	4b1f      	ldr	r3, [pc, #124]	; (81230 <task_ultraLjud+0x2e8>)
   811b4:	4798      	blx	r3
   811b6:	2800      	cmp	r0, #0
   811b8:	f43f aeec 	beq.w	80f94 <task_ultraLjud+0x4c>
				main_case = 6;
   811bc:	2206      	movs	r2, #6
   811be:	4b17      	ldr	r3, [pc, #92]	; (8121c <task_ultraLjud+0x2d4>)
   811c0:	601a      	str	r2, [r3, #0]
   811c2:	e6e7      	b.n	80f94 <task_ultraLjud+0x4c>
   811c4:	f3af 8000 	nop.w
   811c8:	9999999a 	.word	0x9999999a
   811cc:	404d1999 	.word	0x404d1999
   811d0:	0008a740 	.word	0x0008a740
   811d4:	00084959 	.word	0x00084959
   811d8:	00082575 	.word	0x00082575
   811dc:	0008a750 	.word	0x0008a750
   811e0:	000803dd 	.word	0x000803dd
   811e4:	0008a768 	.word	0x0008a768
   811e8:	00080ed9 	.word	0x00080ed9
   811ec:	20078dd8 	.word	0x20078dd8
   811f0:	20078da0 	.word	0x20078da0
   811f4:	0008a778 	.word	0x0008a778
   811f8:	00084c11 	.word	0x00084c11
   811fc:	400e1200 	.word	0x400e1200
   81200:	000827c9 	.word	0x000827c9
   81204:	00081941 	.word	0x00081941
   81208:	00080ee9 	.word	0x00080ee9
   8120c:	000842ad 	.word	0x000842ad
   81210:	000845cd 	.word	0x000845cd
   81214:	000848ad 	.word	0x000848ad
   81218:	20070190 	.word	0x20070190
   8121c:	20070194 	.word	0x20070194
   81220:	0008a790 	.word	0x0008a790
   81224:	00080e41 	.word	0x00080e41
   81228:	20078dc8 	.word	0x20078dc8
   8122c:	0008a7a0 	.word	0x0008a7a0
   81230:	00080b1d 	.word	0x00080b1d
   81234:	0008a7b4 	.word	0x0008a7b4
   81238:	20070aa4 	.word	0x20070aa4
   8123c:	000806d9 	.word	0x000806d9
   81240:	20070aa0 	.word	0x20070aa0
   81244:	00080945 	.word	0x00080945
   81248:	0008a7c8 	.word	0x0008a7c8
   8124c:	00080d91 	.word	0x00080d91
   81250:	0008a7d8 	.word	0x0008a7d8
   81254:	0008a7e8 	.word	0x0008a7e8
   81258:	20070a74 	.word	0x20070a74
   8125c:	0008a7f4 	.word	0x0008a7f4
   81260:	0008a804 	.word	0x0008a804
   81264:	30c30c31 	.word	0x30c30c31
   81268:	00082861 	.word	0x00082861
   8126c:	20070a9c 	.word	0x20070a9c
   81270:	00080731 	.word	0x00080731
   81274:	20070aa8 	.word	0x20070aa8
			}
			break;
			
		case 6:
			printf("\nDrive to box");
   81278:	485c      	ldr	r0, [pc, #368]	; (813ec <task_ultraLjud+0x4a4>)
   8127a:	4b5d      	ldr	r3, [pc, #372]	; (813f0 <task_ultraLjud+0x4a8>)
   8127c:	4798      	blx	r3
			getCurrentPos();
   8127e:	4b5d      	ldr	r3, [pc, #372]	; (813f4 <task_ultraLjud+0x4ac>)
   81280:	4798      	blx	r3

			vTaskDelay(10);
   81282:	200a      	movs	r0, #10
   81284:	f8df a1ac 	ldr.w	sl, [pc, #428]	; 81434 <task_ultraLjud+0x4ec>
   81288:	47d0      	blx	sl
			
			currentX = (currentPos[0] + currentPos[2]) / 2;
   8128a:	f8df 91ac 	ldr.w	r9, [pc, #428]	; 81438 <task_ultraLjud+0x4f0>
   8128e:	4b5a      	ldr	r3, [pc, #360]	; (813f8 <task_ultraLjud+0x4b0>)
   81290:	f9b3 1000 	ldrsh.w	r1, [r3]
   81294:	f9b3 2004 	ldrsh.w	r2, [r3, #4]
   81298:	440a      	add	r2, r1
   8129a:	eb02 72d2 	add.w	r2, r2, r2, lsr #31
   8129e:	1052      	asrs	r2, r2, #1
   812a0:	f8c9 2000 	str.w	r2, [r9]
			currentY = (currentPos[1] + currentPos[3]) / 2;
   812a4:	4e55      	ldr	r6, [pc, #340]	; (813fc <task_ultraLjud+0x4b4>)
   812a6:	f9b3 2002 	ldrsh.w	r2, [r3, #2]
   812aa:	f9b3 3006 	ldrsh.w	r3, [r3, #6]
   812ae:	4413      	add	r3, r2
   812b0:	eb03 73d3 	add.w	r3, r3, r3, lsr #31
   812b4:	105b      	asrs	r3, r3, #1
   812b6:	6033      	str	r3, [r6, #0]
			
			vTaskDelay(10);
   812b8:	200a      	movs	r0, #10
   812ba:	47d0      	blx	sl
			
			targetDistance = calculateDistance(currentX,currentY,50,0);
   812bc:	f8b9 0000 	ldrh.w	r0, [r9]
   812c0:	8831      	ldrh	r1, [r6, #0]
   812c2:	2232      	movs	r2, #50	; 0x32
   812c4:	2300      	movs	r3, #0
   812c6:	4e4e      	ldr	r6, [pc, #312]	; (81400 <task_ultraLjud+0x4b8>)
   812c8:	47b0      	blx	r6
   812ca:	4b4e      	ldr	r3, [pc, #312]	; (81404 <task_ultraLjud+0x4bc>)
   812cc:	6018      	str	r0, [r3, #0]
			
			if(1==driveForward(targetDistance)){
   812ce:	4b4e      	ldr	r3, [pc, #312]	; (81408 <task_ultraLjud+0x4c0>)
   812d0:	4798      	blx	r3
   812d2:	2801      	cmp	r0, #1
   812d4:	f47f ae5e 	bne.w	80f94 <task_ultraLjud+0x4c>
				main_case = 7;
   812d8:	2207      	movs	r2, #7
   812da:	4b4c      	ldr	r3, [pc, #304]	; (8140c <task_ultraLjud+0x4c4>)
   812dc:	601a      	str	r2, [r3, #0]
   812de:	e659      	b.n	80f94 <task_ultraLjud+0x4c>
			}
			break;
			
		case 7:
			printf("\nDrop off");
   812e0:	484b      	ldr	r0, [pc, #300]	; (81410 <task_ultraLjud+0x4c8>)
   812e2:	4b43      	ldr	r3, [pc, #268]	; (813f0 <task_ultraLjud+0x4a8>)
   812e4:	4798      	blx	r3
			
			//Kod här
		
			break;
   812e6:	e655      	b.n	80f94 <task_ultraLjud+0x4c>
			
		case 8:
			printf("\nTurn to Sock");
   812e8:	484a      	ldr	r0, [pc, #296]	; (81414 <task_ultraLjud+0x4cc>)
   812ea:	4e41      	ldr	r6, [pc, #260]	; (813f0 <task_ultraLjud+0x4a8>)
   812ec:	47b0      	blx	r6
			getStartData();
   812ee:	4b4a      	ldr	r3, [pc, #296]	; (81418 <task_ultraLjud+0x4d0>)
   812f0:	4798      	blx	r3
			getCurrentPos();
   812f2:	4b40      	ldr	r3, [pc, #256]	; (813f4 <task_ultraLjud+0x4ac>)
   812f4:	4798      	blx	r3
			
			vTaskDelay(10);
   812f6:	200a      	movs	r0, #10
   812f8:	f8df b138 	ldr.w	fp, [pc, #312]	; 81434 <task_ultraLjud+0x4ec>
   812fc:	47d8      	blx	fp
			
			currentX = (currentPos[0] + currentPos[2]) / 2;
   812fe:	f8df a138 	ldr.w	sl, [pc, #312]	; 81438 <task_ultraLjud+0x4f0>
   81302:	4b3d      	ldr	r3, [pc, #244]	; (813f8 <task_ultraLjud+0x4b0>)
   81304:	f9b3 1000 	ldrsh.w	r1, [r3]
   81308:	f9b3 2004 	ldrsh.w	r2, [r3, #4]
   8130c:	440a      	add	r2, r1
   8130e:	eb02 72d2 	add.w	r2, r2, r2, lsr #31
   81312:	1052      	asrs	r2, r2, #1
   81314:	f8ca 2000 	str.w	r2, [sl]
			currentY = (currentPos[1] + currentPos[3]) / 2;
   81318:	f8df 90e0 	ldr.w	r9, [pc, #224]	; 813fc <task_ultraLjud+0x4b4>
   8131c:	f9b3 2002 	ldrsh.w	r2, [r3, #2]
   81320:	f9b3 3006 	ldrsh.w	r3, [r3, #6]
   81324:	4413      	add	r3, r2
   81326:	eb03 73d3 	add.w	r3, r3, r3, lsr #31
   8132a:	105b      	asrs	r3, r3, #1
   8132c:	f8c9 3000 	str.w	r3, [r9]
			
			vTaskDelay(10);
   81330:	200a      	movs	r0, #10
   81332:	47d8      	blx	fp
			
			targetAngle = calculateAngle(currentX,currentY,objectinfo[1].xpos,objectinfo[1].ypox);		//Fungerar
   81334:	4b39      	ldr	r3, [pc, #228]	; (8141c <task_ultraLjud+0x4d4>)
   81336:	f8ba 0000 	ldrh.w	r0, [sl]
   8133a:	f8b9 1000 	ldrh.w	r1, [r9]
   8133e:	891a      	ldrh	r2, [r3, #8]
   81340:	895b      	ldrh	r3, [r3, #10]
   81342:	f8df c0f8 	ldr.w	ip, [pc, #248]	; 8143c <task_ultraLjud+0x4f4>
   81346:	47e0      	blx	ip
   81348:	4602      	mov	r2, r0
   8134a:	f8df 90f4 	ldr.w	r9, [pc, #244]	; 81440 <task_ultraLjud+0x4f8>
   8134e:	f8c9 0000 	str.w	r0, [r9]
			sprintf(str,"\ntarget angle = %d",targetAngle);
   81352:	f8df a0f0 	ldr.w	sl, [pc, #240]	; 81444 <task_ultraLjud+0x4fc>
   81356:	4650      	mov	r0, sl
   81358:	4931      	ldr	r1, [pc, #196]	; (81420 <task_ultraLjud+0x4d8>)
   8135a:	4b32      	ldr	r3, [pc, #200]	; (81424 <task_ultraLjud+0x4dc>)
   8135c:	4798      	blx	r3
			printf(str);
   8135e:	4650      	mov	r0, sl
   81360:	47b0      	blx	r6
			
			if(rotate(targetAngle)){
   81362:	f8d9 0000 	ldr.w	r0, [r9]
   81366:	4b30      	ldr	r3, [pc, #192]	; (81428 <task_ultraLjud+0x4e0>)
   81368:	4798      	blx	r3
   8136a:	2800      	cmp	r0, #0
   8136c:	f43f ae12 	beq.w	80f94 <task_ultraLjud+0x4c>
				main_case = 9;
   81370:	2209      	movs	r2, #9
   81372:	4b26      	ldr	r3, [pc, #152]	; (8140c <task_ultraLjud+0x4c4>)
   81374:	601a      	str	r2, [r3, #0]
   81376:	e60d      	b.n	80f94 <task_ultraLjud+0x4c>
			}
			break;	
		case 9:
			printf("\nDrive to sock");
   81378:	482c      	ldr	r0, [pc, #176]	; (8142c <task_ultraLjud+0x4e4>)
   8137a:	4b1d      	ldr	r3, [pc, #116]	; (813f0 <task_ultraLjud+0x4a8>)
   8137c:	4798      	blx	r3
			getCurrentPos();
   8137e:	4b1d      	ldr	r3, [pc, #116]	; (813f4 <task_ultraLjud+0x4ac>)
   81380:	4798      	blx	r3
			
			vTaskDelay(10);
   81382:	200a      	movs	r0, #10
   81384:	f8df a0ac 	ldr.w	sl, [pc, #172]	; 81434 <task_ultraLjud+0x4ec>
   81388:	47d0      	blx	sl
			
			currentX = (currentPos[0] + currentPos[2]) / 2;
   8138a:	f8df 90ac 	ldr.w	r9, [pc, #172]	; 81438 <task_ultraLjud+0x4f0>
   8138e:	4b1a      	ldr	r3, [pc, #104]	; (813f8 <task_ultraLjud+0x4b0>)
   81390:	f9b3 1000 	ldrsh.w	r1, [r3]
   81394:	f9b3 2004 	ldrsh.w	r2, [r3, #4]
   81398:	440a      	add	r2, r1
   8139a:	eb02 72d2 	add.w	r2, r2, r2, lsr #31
   8139e:	1052      	asrs	r2, r2, #1
   813a0:	f8c9 2000 	str.w	r2, [r9]
			currentY = (currentPos[1] + currentPos[3]) / 2;
   813a4:	4e15      	ldr	r6, [pc, #84]	; (813fc <task_ultraLjud+0x4b4>)
   813a6:	f9b3 2002 	ldrsh.w	r2, [r3, #2]
   813aa:	f9b3 3006 	ldrsh.w	r3, [r3, #6]
   813ae:	4413      	add	r3, r2
   813b0:	eb03 73d3 	add.w	r3, r3, r3, lsr #31
   813b4:	105b      	asrs	r3, r3, #1
   813b6:	6033      	str	r3, [r6, #0]
			
			vTaskDelay(10);
   813b8:	200a      	movs	r0, #10
   813ba:	47d0      	blx	sl
			
			targetDistance = calculateDistance(currentX,currentY,objectinfo[1].xpos,objectinfo[1].ypox);
   813bc:	4b17      	ldr	r3, [pc, #92]	; (8141c <task_ultraLjud+0x4d4>)
   813be:	f8b9 0000 	ldrh.w	r0, [r9]
   813c2:	8831      	ldrh	r1, [r6, #0]
   813c4:	891a      	ldrh	r2, [r3, #8]
   813c6:	895b      	ldrh	r3, [r3, #10]
   813c8:	4e0d      	ldr	r6, [pc, #52]	; (81400 <task_ultraLjud+0x4b8>)
   813ca:	47b0      	blx	r6
   813cc:	4b0d      	ldr	r3, [pc, #52]	; (81404 <task_ultraLjud+0x4bc>)
   813ce:	6018      	str	r0, [r3, #0]
			
			if(1==driveForward(targetDistance)){
   813d0:	4b0d      	ldr	r3, [pc, #52]	; (81408 <task_ultraLjud+0x4c0>)
   813d2:	4798      	blx	r3
   813d4:	2801      	cmp	r0, #1
   813d6:	f47f addd 	bne.w	80f94 <task_ultraLjud+0x4c>
				main_case = 0;
   813da:	2200      	movs	r2, #0
   813dc:	4b0b      	ldr	r3, [pc, #44]	; (8140c <task_ultraLjud+0x4c4>)
   813de:	601a      	str	r2, [r3, #0]
   813e0:	e5d8      	b.n	80f94 <task_ultraLjud+0x4c>
			}
			break;
				
		default:	
			printf("\nmain default");
   813e2:	4813      	ldr	r0, [pc, #76]	; (81430 <task_ultraLjud+0x4e8>)
   813e4:	4b02      	ldr	r3, [pc, #8]	; (813f0 <task_ultraLjud+0x4a8>)
   813e6:	4798      	blx	r3
			break;
   813e8:	e5d4      	b.n	80f94 <task_ultraLjud+0x4c>
   813ea:	bf00      	nop
   813ec:	0008a818 	.word	0x0008a818
   813f0:	00084959 	.word	0x00084959
   813f4:	00080e41 	.word	0x00080e41
   813f8:	20078dc8 	.word	0x20078dc8
   813fc:	20070aa4 	.word	0x20070aa4
   81400:	000806d9 	.word	0x000806d9
   81404:	20070aa0 	.word	0x20070aa0
   81408:	00080945 	.word	0x00080945
   8140c:	20070194 	.word	0x20070194
   81410:	0008a828 	.word	0x0008a828
   81414:	0008a834 	.word	0x0008a834
   81418:	00080ed9 	.word	0x00080ed9
   8141c:	20078da0 	.word	0x20078da0
   81420:	0008a804 	.word	0x0008a804
   81424:	00084c11 	.word	0x00084c11
   81428:	00080b1d 	.word	0x00080b1d
   8142c:	0008a844 	.word	0x0008a844
   81430:	0008a854 	.word	0x0008a854
   81434:	00082861 	.word	0x00082861
   81438:	20070a9c 	.word	0x20070a9c
   8143c:	00080731 	.word	0x00080731
   81440:	20070aa8 	.word	0x20070aa8
   81444:	20078dd8 	.word	0x20078dd8

00081448 <init_sensor>:
		}
	}
	return clocktime;
}

void init_sensor(void){
   81448:	b510      	push	{r4, lr}
	printf("\nInit sensor OK");
   8144a:	4808      	ldr	r0, [pc, #32]	; (8146c <init_sensor+0x24>)
   8144c:	4c08      	ldr	r4, [pc, #32]	; (81470 <init_sensor+0x28>)
   8144e:	47a0      	blx	r4
		enum ioport_direction dir)
{
	Pio *base = arch_ioport_pin_to_base(pin);

	if (dir == IOPORT_DIR_OUTPUT) {
		base->PIO_OER = arch_ioport_pin_to_mask(pin);
   81450:	4b08      	ldr	r3, [pc, #32]	; (81474 <init_sensor+0x2c>)
   81452:	f44f 0280 	mov.w	r2, #4194304	; 0x400000
   81456:	611a      	str	r2, [r3, #16]
	} else if (dir == IOPORT_DIR_INPUT) {
		base->PIO_ODR = arch_ioport_pin_to_mask(pin);
	}

	base->PIO_OWER = arch_ioport_pin_to_mask(pin);
   81458:	f8c3 20a0 	str.w	r2, [r3, #160]	; 0xa0
	Pio *base = arch_ioport_pin_to_base(pin);

	if (dir == IOPORT_DIR_OUTPUT) {
		base->PIO_OER = arch_ioport_pin_to_mask(pin);
	} else if (dir == IOPORT_DIR_INPUT) {
		base->PIO_ODR = arch_ioport_pin_to_mask(pin);
   8145c:	f44f 0200 	mov.w	r2, #8388608	; 0x800000
   81460:	615a      	str	r2, [r3, #20]
	}

	base->PIO_OWER = arch_ioport_pin_to_mask(pin);
   81462:	f8c3 20a0 	str.w	r2, [r3, #160]	; 0xa0
	ioport_set_pin_dir(TriggerPin,IOPORT_DIR_OUTPUT);
	ioport_set_pin_dir(EchoPin,IOPORT_DIR_INPUT);
	printf("\nSet Echo & Trigger OK");
   81466:	4804      	ldr	r0, [pc, #16]	; (81478 <init_sensor+0x30>)
   81468:	47a0      	blx	r4
   8146a:	bd10      	pop	{r4, pc}
   8146c:	0008a864 	.word	0x0008a864
   81470:	00084959 	.word	0x00084959
   81474:	400e1200 	.word	0x400e1200
   81478:	0008a874 	.word	0x0008a874

0008147c <_read>:
   8147c:	e92d 41f0 	stmdb	sp!, {r4, r5, r6, r7, r8, lr}
   81480:	460c      	mov	r4, r1
   81482:	4690      	mov	r8, r2
   81484:	b960      	cbnz	r0, 814a0 <_read+0x24>
   81486:	2a00      	cmp	r2, #0
   81488:	dd0e      	ble.n	814a8 <_read+0x2c>
   8148a:	188f      	adds	r7, r1, r2
   8148c:	4e09      	ldr	r6, [pc, #36]	; (814b4 <_read+0x38>)
   8148e:	4d0a      	ldr	r5, [pc, #40]	; (814b8 <_read+0x3c>)
   81490:	6830      	ldr	r0, [r6, #0]
   81492:	4621      	mov	r1, r4
   81494:	682b      	ldr	r3, [r5, #0]
   81496:	4798      	blx	r3
   81498:	3401      	adds	r4, #1
   8149a:	42bc      	cmp	r4, r7
   8149c:	d1f8      	bne.n	81490 <_read+0x14>
   8149e:	e006      	b.n	814ae <_read+0x32>
   814a0:	f04f 30ff 	mov.w	r0, #4294967295
   814a4:	e8bd 81f0 	ldmia.w	sp!, {r4, r5, r6, r7, r8, pc}
   814a8:	2000      	movs	r0, #0
   814aa:	e8bd 81f0 	ldmia.w	sp!, {r4, r5, r6, r7, r8, pc}
   814ae:	4640      	mov	r0, r8
   814b0:	e8bd 81f0 	ldmia.w	sp!, {r4, r5, r6, r7, r8, pc}
   814b4:	20078e00 	.word	0x20078e00
   814b8:	20078df8 	.word	0x20078df8

000814bc <_write>:
   814bc:	e92d 41f0 	stmdb	sp!, {r4, r5, r6, r7, r8, lr}
   814c0:	460e      	mov	r6, r1
   814c2:	4615      	mov	r5, r2
   814c4:	3801      	subs	r0, #1
   814c6:	2802      	cmp	r0, #2
   814c8:	d80f      	bhi.n	814ea <_write+0x2e>
   814ca:	b192      	cbz	r2, 814f2 <_write+0x36>
   814cc:	2400      	movs	r4, #0
   814ce:	f8df 803c 	ldr.w	r8, [pc, #60]	; 8150c <_write+0x50>
   814d2:	4f0d      	ldr	r7, [pc, #52]	; (81508 <_write+0x4c>)
   814d4:	f8d8 0000 	ldr.w	r0, [r8]
   814d8:	5d31      	ldrb	r1, [r6, r4]
   814da:	683b      	ldr	r3, [r7, #0]
   814dc:	4798      	blx	r3
   814de:	2800      	cmp	r0, #0
   814e0:	db0a      	blt.n	814f8 <_write+0x3c>
   814e2:	3401      	adds	r4, #1
   814e4:	42a5      	cmp	r5, r4
   814e6:	d1f5      	bne.n	814d4 <_write+0x18>
   814e8:	e00a      	b.n	81500 <_write+0x44>
   814ea:	f04f 30ff 	mov.w	r0, #4294967295
   814ee:	e8bd 81f0 	ldmia.w	sp!, {r4, r5, r6, r7, r8, pc}
   814f2:	2000      	movs	r0, #0
   814f4:	e8bd 81f0 	ldmia.w	sp!, {r4, r5, r6, r7, r8, pc}
   814f8:	f04f 30ff 	mov.w	r0, #4294967295
   814fc:	e8bd 81f0 	ldmia.w	sp!, {r4, r5, r6, r7, r8, pc}
   81500:	4620      	mov	r0, r4
   81502:	e8bd 81f0 	ldmia.w	sp!, {r4, r5, r6, r7, r8, pc}
   81506:	bf00      	nop
   81508:	20078dfc 	.word	0x20078dfc
   8150c:	20078e00 	.word	0x20078e00

00081510 <tc_init>:
   81510:	b410      	push	{r4}
   81512:	0189      	lsls	r1, r1, #6
   81514:	1843      	adds	r3, r0, r1
   81516:	2402      	movs	r4, #2
   81518:	5044      	str	r4, [r0, r1]
   8151a:	f04f 31ff 	mov.w	r1, #4294967295
   8151e:	6299      	str	r1, [r3, #40]	; 0x28
   81520:	6a19      	ldr	r1, [r3, #32]
   81522:	605a      	str	r2, [r3, #4]
   81524:	f85d 4b04 	ldr.w	r4, [sp], #4
   81528:	4770      	bx	lr
   8152a:	bf00      	nop

0008152c <tc_set_block_mode>:
   8152c:	f8c0 10c4 	str.w	r1, [r0, #196]	; 0xc4
   81530:	4770      	bx	lr
   81532:	bf00      	nop

00081534 <tc_start>:
   81534:	0189      	lsls	r1, r1, #6
   81536:	2305      	movs	r3, #5
   81538:	5043      	str	r3, [r0, r1]
   8153a:	4770      	bx	lr

0008153c <tc_stop>:
   8153c:	0189      	lsls	r1, r1, #6
   8153e:	2302      	movs	r3, #2
   81540:	5043      	str	r3, [r0, r1]
   81542:	4770      	bx	lr

00081544 <tc_read_cv>:
   81544:	eb00 1181 	add.w	r1, r0, r1, lsl #6
   81548:	6908      	ldr	r0, [r1, #16]
   8154a:	4770      	bx	lr

0008154c <usart_write>:
   8154c:	6943      	ldr	r3, [r0, #20]
   8154e:	f013 0f02 	tst.w	r3, #2
   81552:	bf1d      	ittte	ne
   81554:	f3c1 0108 	ubfxne	r1, r1, #0, #9
   81558:	61c1      	strne	r1, [r0, #28]
   8155a:	2000      	movne	r0, #0
   8155c:	2001      	moveq	r0, #1
   8155e:	4770      	bx	lr

00081560 <usart_read>:
   81560:	6943      	ldr	r3, [r0, #20]
   81562:	f013 0f01 	tst.w	r3, #1
   81566:	d005      	beq.n	81574 <usart_read+0x14>
   81568:	6983      	ldr	r3, [r0, #24]
   8156a:	f3c3 0308 	ubfx	r3, r3, #0, #9
   8156e:	600b      	str	r3, [r1, #0]
   81570:	2000      	movs	r0, #0
   81572:	4770      	bx	lr
   81574:	2001      	movs	r0, #1
   81576:	4770      	bx	lr

00081578 <usart_serial_read_packet>:
   81578:	e92d 4ff0 	stmdb	sp!, {r4, r5, r6, r7, r8, r9, sl, fp, lr}
   8157c:	b083      	sub	sp, #12
   8157e:	4605      	mov	r5, r0
   81580:	4690      	mov	r8, r2
   81582:	2a00      	cmp	r2, #0
   81584:	d047      	beq.n	81616 <usart_serial_read_packet+0x9e>
   81586:	1c4e      	adds	r6, r1, #1
   81588:	4f25      	ldr	r7, [pc, #148]	; (81620 <usart_serial_read_packet+0xa8>)
   8158a:	4c26      	ldr	r4, [pc, #152]	; (81624 <usart_serial_read_packet+0xac>)
   8158c:	f8df a0a8 	ldr.w	sl, [pc, #168]	; 81638 <usart_serial_read_packet+0xc0>
   81590:	f8df b094 	ldr.w	fp, [pc, #148]	; 81628 <usart_serial_read_packet+0xb0>
   81594:	f106 39ff 	add.w	r9, r6, #4294967295
   81598:	2300      	movs	r3, #0
   8159a:	9301      	str	r3, [sp, #4]
   8159c:	4b22      	ldr	r3, [pc, #136]	; (81628 <usart_serial_read_packet+0xb0>)
   8159e:	429d      	cmp	r5, r3
   815a0:	d106      	bne.n	815b0 <usart_serial_read_packet+0x38>
   815a2:	4658      	mov	r0, fp
   815a4:	4649      	mov	r1, r9
   815a6:	4b21      	ldr	r3, [pc, #132]	; (8162c <usart_serial_read_packet+0xb4>)
   815a8:	4798      	blx	r3
   815aa:	2800      	cmp	r0, #0
   815ac:	d1f9      	bne.n	815a2 <usart_serial_read_packet+0x2a>
   815ae:	e019      	b.n	815e4 <usart_serial_read_packet+0x6c>
   815b0:	4b1f      	ldr	r3, [pc, #124]	; (81630 <usart_serial_read_packet+0xb8>)
   815b2:	429d      	cmp	r5, r3
   815b4:	d109      	bne.n	815ca <usart_serial_read_packet+0x52>
   815b6:	4699      	mov	r9, r3
   815b8:	4648      	mov	r0, r9
   815ba:	a901      	add	r1, sp, #4
   815bc:	47a0      	blx	r4
   815be:	2800      	cmp	r0, #0
   815c0:	d1fa      	bne.n	815b8 <usart_serial_read_packet+0x40>
   815c2:	9b01      	ldr	r3, [sp, #4]
   815c4:	f806 3c01 	strb.w	r3, [r6, #-1]
   815c8:	e017      	b.n	815fa <usart_serial_read_packet+0x82>
   815ca:	4b1a      	ldr	r3, [pc, #104]	; (81634 <usart_serial_read_packet+0xbc>)
   815cc:	429d      	cmp	r5, r3
   815ce:	d109      	bne.n	815e4 <usart_serial_read_packet+0x6c>
   815d0:	4699      	mov	r9, r3
   815d2:	4648      	mov	r0, r9
   815d4:	a901      	add	r1, sp, #4
   815d6:	47a0      	blx	r4
   815d8:	2800      	cmp	r0, #0
   815da:	d1fa      	bne.n	815d2 <usart_serial_read_packet+0x5a>
   815dc:	9b01      	ldr	r3, [sp, #4]
   815de:	f806 3c01 	strb.w	r3, [r6, #-1]
   815e2:	e014      	b.n	8160e <usart_serial_read_packet+0x96>
   815e4:	4555      	cmp	r5, sl
   815e6:	d108      	bne.n	815fa <usart_serial_read_packet+0x82>
   815e8:	4650      	mov	r0, sl
   815ea:	a901      	add	r1, sp, #4
   815ec:	47a0      	blx	r4
   815ee:	2800      	cmp	r0, #0
   815f0:	d1fa      	bne.n	815e8 <usart_serial_read_packet+0x70>
   815f2:	9b01      	ldr	r3, [sp, #4]
   815f4:	f806 3c01 	strb.w	r3, [r6, #-1]
   815f8:	e009      	b.n	8160e <usart_serial_read_packet+0x96>
   815fa:	42bd      	cmp	r5, r7
   815fc:	d107      	bne.n	8160e <usart_serial_read_packet+0x96>
   815fe:	4638      	mov	r0, r7
   81600:	a901      	add	r1, sp, #4
   81602:	47a0      	blx	r4
   81604:	2800      	cmp	r0, #0
   81606:	d1fa      	bne.n	815fe <usart_serial_read_packet+0x86>
   81608:	9b01      	ldr	r3, [sp, #4]
   8160a:	f806 3c01 	strb.w	r3, [r6, #-1]
   8160e:	3601      	adds	r6, #1
   81610:	f1b8 0801 	subs.w	r8, r8, #1
   81614:	d1be      	bne.n	81594 <usart_serial_read_packet+0x1c>
   81616:	2000      	movs	r0, #0
   81618:	b003      	add	sp, #12
   8161a:	e8bd 8ff0 	ldmia.w	sp!, {r4, r5, r6, r7, r8, r9, sl, fp, pc}
   8161e:	bf00      	nop
   81620:	400a4000 	.word	0x400a4000
   81624:	00081561 	.word	0x00081561
   81628:	400e0800 	.word	0x400e0800
   8162c:	00081685 	.word	0x00081685
   81630:	40098000 	.word	0x40098000
   81634:	4009c000 	.word	0x4009c000
   81638:	400a0000 	.word	0x400a0000

0008163c <uart_init>:
   8163c:	b410      	push	{r4}
   8163e:	23ac      	movs	r3, #172	; 0xac
   81640:	6003      	str	r3, [r0, #0]
   81642:	680a      	ldr	r2, [r1, #0]
   81644:	684b      	ldr	r3, [r1, #4]
   81646:	fbb2 f3f3 	udiv	r3, r2, r3
   8164a:	091b      	lsrs	r3, r3, #4
   8164c:	1e5c      	subs	r4, r3, #1
   8164e:	f64f 72fe 	movw	r2, #65534	; 0xfffe
   81652:	4294      	cmp	r4, r2
   81654:	d80a      	bhi.n	8166c <uart_init+0x30>
   81656:	6203      	str	r3, [r0, #32]
   81658:	688b      	ldr	r3, [r1, #8]
   8165a:	6043      	str	r3, [r0, #4]
   8165c:	f240 2302 	movw	r3, #514	; 0x202
   81660:	f8c0 3120 	str.w	r3, [r0, #288]	; 0x120
   81664:	2350      	movs	r3, #80	; 0x50
   81666:	6003      	str	r3, [r0, #0]
   81668:	2000      	movs	r0, #0
   8166a:	e000      	b.n	8166e <uart_init+0x32>
   8166c:	2001      	movs	r0, #1
   8166e:	f85d 4b04 	ldr.w	r4, [sp], #4
   81672:	4770      	bx	lr

00081674 <uart_write>:
   81674:	6943      	ldr	r3, [r0, #20]
   81676:	f013 0f02 	tst.w	r3, #2
   8167a:	bf1a      	itte	ne
   8167c:	61c1      	strne	r1, [r0, #28]
   8167e:	2000      	movne	r0, #0
   81680:	2001      	moveq	r0, #1
   81682:	4770      	bx	lr

00081684 <uart_read>:
   81684:	6943      	ldr	r3, [r0, #20]
   81686:	f013 0f01 	tst.w	r3, #1
   8168a:	bf1d      	ittte	ne
   8168c:	6983      	ldrne	r3, [r0, #24]
   8168e:	700b      	strbne	r3, [r1, #0]
   81690:	2000      	movne	r0, #0
   81692:	2001      	moveq	r0, #1
   81694:	4770      	bx	lr
   81696:	bf00      	nop

00081698 <USART0_Handler>:
   81698:	b500      	push	{lr}
   8169a:	b083      	sub	sp, #12
   8169c:	4811      	ldr	r0, [pc, #68]	; (816e4 <USART0_Handler+0x4c>)
   8169e:	f10d 0107 	add.w	r1, sp, #7
   816a2:	2201      	movs	r2, #1
   816a4:	4b10      	ldr	r3, [pc, #64]	; (816e8 <USART0_Handler+0x50>)
   816a6:	4798      	blx	r3
   816a8:	b672      	cpsid	i
   816aa:	f3bf 8f5f 	dmb	sy
   816ae:	2200      	movs	r2, #0
   816b0:	4b0e      	ldr	r3, [pc, #56]	; (816ec <USART0_Handler+0x54>)
   816b2:	701a      	strb	r2, [r3, #0]
   816b4:	4b0e      	ldr	r3, [pc, #56]	; (816f0 <USART0_Handler+0x58>)
   816b6:	781b      	ldrb	r3, [r3, #0]
   816b8:	f89d 1007 	ldrb.w	r1, [sp, #7]
   816bc:	4a0d      	ldr	r2, [pc, #52]	; (816f4 <USART0_Handler+0x5c>)
   816be:	54d1      	strb	r1, [r2, r3]
   816c0:	2b9b      	cmp	r3, #155	; 0x9b
   816c2:	d103      	bne.n	816cc <USART0_Handler+0x34>
   816c4:	2200      	movs	r2, #0
   816c6:	4b0a      	ldr	r3, [pc, #40]	; (816f0 <USART0_Handler+0x58>)
   816c8:	701a      	strb	r2, [r3, #0]
   816ca:	e002      	b.n	816d2 <USART0_Handler+0x3a>
   816cc:	3301      	adds	r3, #1
   816ce:	4a08      	ldr	r2, [pc, #32]	; (816f0 <USART0_Handler+0x58>)
   816d0:	7013      	strb	r3, [r2, #0]
   816d2:	2201      	movs	r2, #1
   816d4:	4b05      	ldr	r3, [pc, #20]	; (816ec <USART0_Handler+0x54>)
   816d6:	701a      	strb	r2, [r3, #0]
   816d8:	f3bf 8f5f 	dmb	sy
   816dc:	b662      	cpsie	i
   816de:	b003      	add	sp, #12
   816e0:	f85d fb04 	ldr.w	pc, [sp], #4
   816e4:	40098000 	.word	0x40098000
   816e8:	00081579 	.word	0x00081579
   816ec:	200701a2 	.word	0x200701a2
   816f0:	20070b48 	.word	0x20070b48
   816f4:	20070aac 	.word	0x20070aac

000816f8 <usart_serial_getchar>:
   816f8:	b5f0      	push	{r4, r5, r6, r7, lr}
   816fa:	b083      	sub	sp, #12
   816fc:	4604      	mov	r4, r0
   816fe:	460d      	mov	r5, r1
   81700:	2300      	movs	r3, #0
   81702:	9301      	str	r3, [sp, #4]
   81704:	4b1f      	ldr	r3, [pc, #124]	; (81784 <usart_serial_getchar+0x8c>)
   81706:	4298      	cmp	r0, r3
   81708:	d107      	bne.n	8171a <usart_serial_getchar+0x22>
   8170a:	461f      	mov	r7, r3
   8170c:	4e1e      	ldr	r6, [pc, #120]	; (81788 <usart_serial_getchar+0x90>)
   8170e:	4638      	mov	r0, r7
   81710:	4629      	mov	r1, r5
   81712:	47b0      	blx	r6
   81714:	2800      	cmp	r0, #0
   81716:	d1fa      	bne.n	8170e <usart_serial_getchar+0x16>
   81718:	e019      	b.n	8174e <usart_serial_getchar+0x56>
   8171a:	4b1c      	ldr	r3, [pc, #112]	; (8178c <usart_serial_getchar+0x94>)
   8171c:	4298      	cmp	r0, r3
   8171e:	d109      	bne.n	81734 <usart_serial_getchar+0x3c>
   81720:	461f      	mov	r7, r3
   81722:	4e1b      	ldr	r6, [pc, #108]	; (81790 <usart_serial_getchar+0x98>)
   81724:	4638      	mov	r0, r7
   81726:	a901      	add	r1, sp, #4
   81728:	47b0      	blx	r6
   8172a:	2800      	cmp	r0, #0
   8172c:	d1fa      	bne.n	81724 <usart_serial_getchar+0x2c>
   8172e:	9b01      	ldr	r3, [sp, #4]
   81730:	702b      	strb	r3, [r5, #0]
   81732:	e019      	b.n	81768 <usart_serial_getchar+0x70>
   81734:	4b17      	ldr	r3, [pc, #92]	; (81794 <usart_serial_getchar+0x9c>)
   81736:	4298      	cmp	r0, r3
   81738:	d109      	bne.n	8174e <usart_serial_getchar+0x56>
   8173a:	461e      	mov	r6, r3
   8173c:	4c14      	ldr	r4, [pc, #80]	; (81790 <usart_serial_getchar+0x98>)
   8173e:	4630      	mov	r0, r6
   81740:	a901      	add	r1, sp, #4
   81742:	47a0      	blx	r4
   81744:	2800      	cmp	r0, #0
   81746:	d1fa      	bne.n	8173e <usart_serial_getchar+0x46>
   81748:	9b01      	ldr	r3, [sp, #4]
   8174a:	702b      	strb	r3, [r5, #0]
   8174c:	e018      	b.n	81780 <usart_serial_getchar+0x88>
   8174e:	4b12      	ldr	r3, [pc, #72]	; (81798 <usart_serial_getchar+0xa0>)
   81750:	429c      	cmp	r4, r3
   81752:	d109      	bne.n	81768 <usart_serial_getchar+0x70>
   81754:	461e      	mov	r6, r3
   81756:	4c0e      	ldr	r4, [pc, #56]	; (81790 <usart_serial_getchar+0x98>)
   81758:	4630      	mov	r0, r6
   8175a:	a901      	add	r1, sp, #4
   8175c:	47a0      	blx	r4
   8175e:	2800      	cmp	r0, #0
   81760:	d1fa      	bne.n	81758 <usart_serial_getchar+0x60>
   81762:	9b01      	ldr	r3, [sp, #4]
   81764:	702b      	strb	r3, [r5, #0]
   81766:	e00b      	b.n	81780 <usart_serial_getchar+0x88>
   81768:	4b0c      	ldr	r3, [pc, #48]	; (8179c <usart_serial_getchar+0xa4>)
   8176a:	429c      	cmp	r4, r3
   8176c:	d108      	bne.n	81780 <usart_serial_getchar+0x88>
   8176e:	461e      	mov	r6, r3
   81770:	4c07      	ldr	r4, [pc, #28]	; (81790 <usart_serial_getchar+0x98>)
   81772:	4630      	mov	r0, r6
   81774:	a901      	add	r1, sp, #4
   81776:	47a0      	blx	r4
   81778:	2800      	cmp	r0, #0
   8177a:	d1fa      	bne.n	81772 <usart_serial_getchar+0x7a>
   8177c:	9b01      	ldr	r3, [sp, #4]
   8177e:	702b      	strb	r3, [r5, #0]
   81780:	b003      	add	sp, #12
   81782:	bdf0      	pop	{r4, r5, r6, r7, pc}
   81784:	400e0800 	.word	0x400e0800
   81788:	00081685 	.word	0x00081685
   8178c:	40098000 	.word	0x40098000
   81790:	00081561 	.word	0x00081561
   81794:	4009c000 	.word	0x4009c000
   81798:	400a0000 	.word	0x400a0000
   8179c:	400a4000 	.word	0x400a4000

000817a0 <usart_serial_putchar>:
   817a0:	b570      	push	{r4, r5, r6, lr}
   817a2:	460c      	mov	r4, r1
   817a4:	4b21      	ldr	r3, [pc, #132]	; (8182c <usart_serial_putchar+0x8c>)
   817a6:	4298      	cmp	r0, r3
   817a8:	d107      	bne.n	817ba <usart_serial_putchar+0x1a>
   817aa:	461e      	mov	r6, r3
   817ac:	4d20      	ldr	r5, [pc, #128]	; (81830 <usart_serial_putchar+0x90>)
   817ae:	4630      	mov	r0, r6
   817b0:	4621      	mov	r1, r4
   817b2:	47a8      	blx	r5
   817b4:	2800      	cmp	r0, #0
   817b6:	d1fa      	bne.n	817ae <usart_serial_putchar+0xe>
   817b8:	e02b      	b.n	81812 <usart_serial_putchar+0x72>
   817ba:	4b1e      	ldr	r3, [pc, #120]	; (81834 <usart_serial_putchar+0x94>)
   817bc:	4298      	cmp	r0, r3
   817be:	d107      	bne.n	817d0 <usart_serial_putchar+0x30>
   817c0:	461e      	mov	r6, r3
   817c2:	4d1d      	ldr	r5, [pc, #116]	; (81838 <usart_serial_putchar+0x98>)
   817c4:	4630      	mov	r0, r6
   817c6:	4621      	mov	r1, r4
   817c8:	47a8      	blx	r5
   817ca:	2800      	cmp	r0, #0
   817cc:	d1fa      	bne.n	817c4 <usart_serial_putchar+0x24>
   817ce:	e022      	b.n	81816 <usart_serial_putchar+0x76>
   817d0:	4b1a      	ldr	r3, [pc, #104]	; (8183c <usart_serial_putchar+0x9c>)
   817d2:	4298      	cmp	r0, r3
   817d4:	d107      	bne.n	817e6 <usart_serial_putchar+0x46>
   817d6:	461e      	mov	r6, r3
   817d8:	4d17      	ldr	r5, [pc, #92]	; (81838 <usart_serial_putchar+0x98>)
   817da:	4630      	mov	r0, r6
   817dc:	4621      	mov	r1, r4
   817de:	47a8      	blx	r5
   817e0:	2800      	cmp	r0, #0
   817e2:	d1fa      	bne.n	817da <usart_serial_putchar+0x3a>
   817e4:	e019      	b.n	8181a <usart_serial_putchar+0x7a>
   817e6:	4b16      	ldr	r3, [pc, #88]	; (81840 <usart_serial_putchar+0xa0>)
   817e8:	4298      	cmp	r0, r3
   817ea:	d107      	bne.n	817fc <usart_serial_putchar+0x5c>
   817ec:	461e      	mov	r6, r3
   817ee:	4d12      	ldr	r5, [pc, #72]	; (81838 <usart_serial_putchar+0x98>)
   817f0:	4630      	mov	r0, r6
   817f2:	4621      	mov	r1, r4
   817f4:	47a8      	blx	r5
   817f6:	2800      	cmp	r0, #0
   817f8:	d1fa      	bne.n	817f0 <usart_serial_putchar+0x50>
   817fa:	e010      	b.n	8181e <usart_serial_putchar+0x7e>
   817fc:	4b11      	ldr	r3, [pc, #68]	; (81844 <usart_serial_putchar+0xa4>)
   817fe:	4298      	cmp	r0, r3
   81800:	d10f      	bne.n	81822 <usart_serial_putchar+0x82>
   81802:	461e      	mov	r6, r3
   81804:	4d0c      	ldr	r5, [pc, #48]	; (81838 <usart_serial_putchar+0x98>)
   81806:	4630      	mov	r0, r6
   81808:	4621      	mov	r1, r4
   8180a:	47a8      	blx	r5
   8180c:	2800      	cmp	r0, #0
   8180e:	d1fa      	bne.n	81806 <usart_serial_putchar+0x66>
   81810:	e009      	b.n	81826 <usart_serial_putchar+0x86>
   81812:	2001      	movs	r0, #1
   81814:	bd70      	pop	{r4, r5, r6, pc}
   81816:	2001      	movs	r0, #1
   81818:	bd70      	pop	{r4, r5, r6, pc}
   8181a:	2001      	movs	r0, #1
   8181c:	bd70      	pop	{r4, r5, r6, pc}
   8181e:	2001      	movs	r0, #1
   81820:	bd70      	pop	{r4, r5, r6, pc}
   81822:	2000      	movs	r0, #0
   81824:	bd70      	pop	{r4, r5, r6, pc}
   81826:	2001      	movs	r0, #1
   81828:	bd70      	pop	{r4, r5, r6, pc}
   8182a:	bf00      	nop
   8182c:	400e0800 	.word	0x400e0800
   81830:	00081675 	.word	0x00081675
   81834:	40098000 	.word	0x40098000
   81838:	0008154d 	.word	0x0008154d
   8183c:	4009c000 	.word	0x4009c000
   81840:	400a0000 	.word	0x400a0000
   81844:	400a4000 	.word	0x400a4000

00081848 <configure_console>:
   81848:	b530      	push	{r4, r5, lr}
   8184a:	b085      	sub	sp, #20
   8184c:	2008      	movs	r0, #8
   8184e:	4d19      	ldr	r5, [pc, #100]	; (818b4 <configure_console+0x6c>)
   81850:	47a8      	blx	r5
   81852:	4c19      	ldr	r4, [pc, #100]	; (818b8 <configure_console+0x70>)
   81854:	4b19      	ldr	r3, [pc, #100]	; (818bc <configure_console+0x74>)
   81856:	601c      	str	r4, [r3, #0]
   81858:	4a19      	ldr	r2, [pc, #100]	; (818c0 <configure_console+0x78>)
   8185a:	4b1a      	ldr	r3, [pc, #104]	; (818c4 <configure_console+0x7c>)
   8185c:	601a      	str	r2, [r3, #0]
   8185e:	4a1a      	ldr	r2, [pc, #104]	; (818c8 <configure_console+0x80>)
   81860:	4b1a      	ldr	r3, [pc, #104]	; (818cc <configure_console+0x84>)
   81862:	601a      	str	r2, [r3, #0]
   81864:	4b1a      	ldr	r3, [pc, #104]	; (818d0 <configure_console+0x88>)
   81866:	9301      	str	r3, [sp, #4]
   81868:	f44f 33e1 	mov.w	r3, #115200	; 0x1c200
   8186c:	9302      	str	r3, [sp, #8]
   8186e:	f44f 6300 	mov.w	r3, #2048	; 0x800
   81872:	9303      	str	r3, [sp, #12]
   81874:	2008      	movs	r0, #8
   81876:	47a8      	blx	r5
   81878:	4620      	mov	r0, r4
   8187a:	a901      	add	r1, sp, #4
   8187c:	4b15      	ldr	r3, [pc, #84]	; (818d4 <configure_console+0x8c>)
   8187e:	4798      	blx	r3
   81880:	4d15      	ldr	r5, [pc, #84]	; (818d8 <configure_console+0x90>)
   81882:	682b      	ldr	r3, [r5, #0]
   81884:	6898      	ldr	r0, [r3, #8]
   81886:	2100      	movs	r1, #0
   81888:	4c14      	ldr	r4, [pc, #80]	; (818dc <configure_console+0x94>)
   8188a:	47a0      	blx	r4
   8188c:	682b      	ldr	r3, [r5, #0]
   8188e:	6858      	ldr	r0, [r3, #4]
   81890:	2100      	movs	r1, #0
   81892:	47a0      	blx	r4
   81894:	4812      	ldr	r0, [pc, #72]	; (818e0 <configure_console+0x98>)
   81896:	4c13      	ldr	r4, [pc, #76]	; (818e4 <configure_console+0x9c>)
   81898:	47a0      	blx	r4
   8189a:	4813      	ldr	r0, [pc, #76]	; (818e8 <configure_console+0xa0>)
   8189c:	47a0      	blx	r4
   8189e:	4813      	ldr	r0, [pc, #76]	; (818ec <configure_console+0xa4>)
   818a0:	4913      	ldr	r1, [pc, #76]	; (818f0 <configure_console+0xa8>)
   818a2:	47a0      	blx	r4
   818a4:	4813      	ldr	r0, [pc, #76]	; (818f4 <configure_console+0xac>)
   818a6:	4914      	ldr	r1, [pc, #80]	; (818f8 <configure_console+0xb0>)
   818a8:	4a14      	ldr	r2, [pc, #80]	; (818fc <configure_console+0xb4>)
   818aa:	47a0      	blx	r4
   818ac:	4814      	ldr	r0, [pc, #80]	; (81900 <configure_console+0xb8>)
   818ae:	47a0      	blx	r4
   818b0:	b005      	add	sp, #20
   818b2:	bd30      	pop	{r4, r5, pc}
   818b4:	000834e1 	.word	0x000834e1
   818b8:	400e0800 	.word	0x400e0800
   818bc:	20078e00 	.word	0x20078e00
   818c0:	000817a1 	.word	0x000817a1
   818c4:	20078dfc 	.word	0x20078dfc
   818c8:	000816f9 	.word	0x000816f9
   818cc:	20078df8 	.word	0x20078df8
   818d0:	0501bd00 	.word	0x0501bd00
   818d4:	0008163d 	.word	0x0008163d
   818d8:	200705d8 	.word	0x200705d8
   818dc:	00084b01 	.word	0x00084b01
   818e0:	0008a88c 	.word	0x0008a88c
   818e4:	00084959 	.word	0x00084959
   818e8:	0008a89c 	.word	0x0008a89c
   818ec:	0008a8b0 	.word	0x0008a8b0
   818f0:	0008a8b8 	.word	0x0008a8b8
   818f4:	0008a8c8 	.word	0x0008a8c8
   818f8:	0008a8e0 	.word	0x0008a8e0
   818fc:	0008a8ec 	.word	0x0008a8ec
   81900:	0008a8f8 	.word	0x0008a8f8

00081904 <delayInit>:
   81904:	b510      	push	{r4, lr}
   81906:	201b      	movs	r0, #27
   81908:	4b08      	ldr	r3, [pc, #32]	; (8192c <delayInit+0x28>)
   8190a:	4798      	blx	r3
   8190c:	4c08      	ldr	r4, [pc, #32]	; (81930 <delayInit+0x2c>)
   8190e:	4620      	mov	r0, r4
   81910:	2100      	movs	r1, #0
   81912:	460a      	mov	r2, r1
   81914:	4b07      	ldr	r3, [pc, #28]	; (81934 <delayInit+0x30>)
   81916:	4798      	blx	r3
   81918:	4620      	mov	r0, r4
   8191a:	2100      	movs	r1, #0
   8191c:	4b06      	ldr	r3, [pc, #24]	; (81938 <delayInit+0x34>)
   8191e:	4798      	blx	r3
   81920:	4620      	mov	r0, r4
   81922:	2100      	movs	r1, #0
   81924:	4b05      	ldr	r3, [pc, #20]	; (8193c <delayInit+0x38>)
   81926:	4798      	blx	r3
   81928:	bd10      	pop	{r4, pc}
   8192a:	bf00      	nop
   8192c:	000834e1 	.word	0x000834e1
   81930:	40080000 	.word	0x40080000
   81934:	00081511 	.word	0x00081511
   81938:	0008152d 	.word	0x0008152d
   8193c:	0008153d 	.word	0x0008153d

00081940 <delayMicroseconds>:
   81940:	b5f8      	push	{r3, r4, r5, r6, r7, lr}
   81942:	4604      	mov	r4, r0
   81944:	4809      	ldr	r0, [pc, #36]	; (8196c <delayMicroseconds+0x2c>)
   81946:	2100      	movs	r1, #0
   81948:	4b09      	ldr	r3, [pc, #36]	; (81970 <delayMicroseconds+0x30>)
   8194a:	4798      	blx	r3
   8194c:	272a      	movs	r7, #42	; 0x2a
   8194e:	fb07 f704 	mul.w	r7, r7, r4
   81952:	4e06      	ldr	r6, [pc, #24]	; (8196c <delayMicroseconds+0x2c>)
   81954:	2500      	movs	r5, #0
   81956:	4c07      	ldr	r4, [pc, #28]	; (81974 <delayMicroseconds+0x34>)
   81958:	4630      	mov	r0, r6
   8195a:	4629      	mov	r1, r5
   8195c:	47a0      	blx	r4
   8195e:	42b8      	cmp	r0, r7
   81960:	d3fa      	bcc.n	81958 <delayMicroseconds+0x18>
   81962:	4802      	ldr	r0, [pc, #8]	; (8196c <delayMicroseconds+0x2c>)
   81964:	2100      	movs	r1, #0
   81966:	4b04      	ldr	r3, [pc, #16]	; (81978 <delayMicroseconds+0x38>)
   81968:	4798      	blx	r3
   8196a:	bdf8      	pop	{r3, r4, r5, r6, r7, pc}
   8196c:	40080000 	.word	0x40080000
   81970:	00081535 	.word	0x00081535
   81974:	00081545 	.word	0x00081545
   81978:	0008153d 	.word	0x0008153d

0008197c <initMotor>:
   8197c:	4b04      	ldr	r3, [pc, #16]	; (81990 <initMotor+0x14>)
   8197e:	2210      	movs	r2, #16
   81980:	611a      	str	r2, [r3, #16]
   81982:	f8c3 20a0 	str.w	r2, [r3, #160]	; 0xa0
   81986:	2220      	movs	r2, #32
   81988:	611a      	str	r2, [r3, #16]
   8198a:	f8c3 20a0 	str.w	r2, [r3, #160]	; 0xa0
   8198e:	4770      	bx	lr
   81990:	400e1200 	.word	0x400e1200

00081994 <pulseLeft>:
   81994:	b538      	push	{r3, r4, r5, lr}
   81996:	4c03      	ldr	r4, [pc, #12]	; (819a4 <pulseLeft+0x10>)
   81998:	2510      	movs	r5, #16
   8199a:	6325      	str	r5, [r4, #48]	; 0x30
   8199c:	4b02      	ldr	r3, [pc, #8]	; (819a8 <pulseLeft+0x14>)
   8199e:	4798      	blx	r3
   819a0:	6365      	str	r5, [r4, #52]	; 0x34
   819a2:	bd38      	pop	{r3, r4, r5, pc}
   819a4:	400e1200 	.word	0x400e1200
   819a8:	00081941 	.word	0x00081941

000819ac <pulseRight>:
   819ac:	b538      	push	{r3, r4, r5, lr}
   819ae:	4c03      	ldr	r4, [pc, #12]	; (819bc <pulseRight+0x10>)
   819b0:	2520      	movs	r5, #32
   819b2:	6325      	str	r5, [r4, #48]	; 0x30
   819b4:	4b02      	ldr	r3, [pc, #8]	; (819c0 <pulseRight+0x14>)
   819b6:	4798      	blx	r3
   819b8:	6365      	str	r5, [r4, #52]	; 0x34
   819ba:	bd38      	pop	{r3, r4, r5, pc}
   819bc:	400e1200 	.word	0x400e1200
   819c0:	00081941 	.word	0x00081941

000819c4 <moveForward>:
   819c4:	b510      	push	{r4, lr}
   819c6:	460c      	mov	r4, r1
   819c8:	4b04      	ldr	r3, [pc, #16]	; (819dc <moveForward+0x18>)
   819ca:	4798      	blx	r3
   819cc:	4620      	mov	r0, r4
   819ce:	4b04      	ldr	r3, [pc, #16]	; (819e0 <moveForward+0x1c>)
   819d0:	4798      	blx	r3
   819d2:	f241 4082 	movw	r0, #5250	; 0x1482
   819d6:	4b03      	ldr	r3, [pc, #12]	; (819e4 <moveForward+0x20>)
   819d8:	4798      	blx	r3
   819da:	bd10      	pop	{r4, pc}
   819dc:	00081995 	.word	0x00081995
   819e0:	000819ad 	.word	0x000819ad
   819e4:	00081941 	.word	0x00081941

000819e8 <vListInitialise>:
   819e8:	f100 0308 	add.w	r3, r0, #8
   819ec:	6043      	str	r3, [r0, #4]
   819ee:	f64f 72ff 	movw	r2, #65535	; 0xffff
   819f2:	8102      	strh	r2, [r0, #8]
   819f4:	60c3      	str	r3, [r0, #12]
   819f6:	6103      	str	r3, [r0, #16]
   819f8:	2300      	movs	r3, #0
   819fa:	6003      	str	r3, [r0, #0]
   819fc:	4770      	bx	lr
   819fe:	bf00      	nop

00081a00 <vListInitialiseItem>:
   81a00:	2300      	movs	r3, #0
   81a02:	6103      	str	r3, [r0, #16]
   81a04:	4770      	bx	lr
   81a06:	bf00      	nop

00081a08 <vListInsertEnd>:
   81a08:	6843      	ldr	r3, [r0, #4]
   81a0a:	685a      	ldr	r2, [r3, #4]
   81a0c:	604a      	str	r2, [r1, #4]
   81a0e:	6842      	ldr	r2, [r0, #4]
   81a10:	608a      	str	r2, [r1, #8]
   81a12:	685a      	ldr	r2, [r3, #4]
   81a14:	6091      	str	r1, [r2, #8]
   81a16:	6059      	str	r1, [r3, #4]
   81a18:	6041      	str	r1, [r0, #4]
   81a1a:	6108      	str	r0, [r1, #16]
   81a1c:	6803      	ldr	r3, [r0, #0]
   81a1e:	3301      	adds	r3, #1
   81a20:	6003      	str	r3, [r0, #0]
   81a22:	4770      	bx	lr

00081a24 <vListInsert>:
   81a24:	b410      	push	{r4}
   81a26:	880c      	ldrh	r4, [r1, #0]
   81a28:	f64f 73ff 	movw	r3, #65535	; 0xffff
   81a2c:	429c      	cmp	r4, r3
   81a2e:	d101      	bne.n	81a34 <vListInsert+0x10>
   81a30:	6903      	ldr	r3, [r0, #16]
   81a32:	e00c      	b.n	81a4e <vListInsert+0x2a>
   81a34:	f100 0308 	add.w	r3, r0, #8
   81a38:	68c2      	ldr	r2, [r0, #12]
   81a3a:	8812      	ldrh	r2, [r2, #0]
   81a3c:	b292      	uxth	r2, r2
   81a3e:	4294      	cmp	r4, r2
   81a40:	d305      	bcc.n	81a4e <vListInsert+0x2a>
   81a42:	685b      	ldr	r3, [r3, #4]
   81a44:	685a      	ldr	r2, [r3, #4]
   81a46:	8812      	ldrh	r2, [r2, #0]
   81a48:	b292      	uxth	r2, r2
   81a4a:	4294      	cmp	r4, r2
   81a4c:	d2f9      	bcs.n	81a42 <vListInsert+0x1e>
   81a4e:	685a      	ldr	r2, [r3, #4]
   81a50:	604a      	str	r2, [r1, #4]
   81a52:	6091      	str	r1, [r2, #8]
   81a54:	608b      	str	r3, [r1, #8]
   81a56:	6059      	str	r1, [r3, #4]
   81a58:	6108      	str	r0, [r1, #16]
   81a5a:	6803      	ldr	r3, [r0, #0]
   81a5c:	3301      	adds	r3, #1
   81a5e:	6003      	str	r3, [r0, #0]
   81a60:	f85d 4b04 	ldr.w	r4, [sp], #4
   81a64:	4770      	bx	lr
   81a66:	bf00      	nop

00081a68 <uxListRemove>:
   81a68:	6843      	ldr	r3, [r0, #4]
   81a6a:	6882      	ldr	r2, [r0, #8]
   81a6c:	609a      	str	r2, [r3, #8]
   81a6e:	6883      	ldr	r3, [r0, #8]
   81a70:	6842      	ldr	r2, [r0, #4]
   81a72:	605a      	str	r2, [r3, #4]
   81a74:	6903      	ldr	r3, [r0, #16]
   81a76:	685a      	ldr	r2, [r3, #4]
   81a78:	4282      	cmp	r2, r0
   81a7a:	bf04      	itt	eq
   81a7c:	6882      	ldreq	r2, [r0, #8]
   81a7e:	605a      	streq	r2, [r3, #4]
   81a80:	2200      	movs	r2, #0
   81a82:	6102      	str	r2, [r0, #16]
   81a84:	681a      	ldr	r2, [r3, #0]
   81a86:	3a01      	subs	r2, #1
   81a88:	601a      	str	r2, [r3, #0]
   81a8a:	6818      	ldr	r0, [r3, #0]
   81a8c:	4770      	bx	lr
   81a8e:	bf00      	nop

00081a90 <prvPortStartFirstTask>:
   81a90:	4803      	ldr	r0, [pc, #12]	; (81aa0 <prvPortStartFirstTask+0x10>)
   81a92:	6800      	ldr	r0, [r0, #0]
   81a94:	6800      	ldr	r0, [r0, #0]
   81a96:	f380 8808 	msr	MSP, r0
   81a9a:	b662      	cpsie	i
   81a9c:	df00      	svc	0
   81a9e:	bf00      	nop
   81aa0:	e000ed08 	.word	0xe000ed08

00081aa4 <pxPortInitialiseStack>:
   81aa4:	f04f 7380 	mov.w	r3, #16777216	; 0x1000000
   81aa8:	f840 3c04 	str.w	r3, [r0, #-4]
   81aac:	f840 1c08 	str.w	r1, [r0, #-8]
   81ab0:	2300      	movs	r3, #0
   81ab2:	f840 3c0c 	str.w	r3, [r0, #-12]
   81ab6:	f840 2c20 	str.w	r2, [r0, #-32]
   81aba:	3840      	subs	r0, #64	; 0x40
   81abc:	4770      	bx	lr
   81abe:	bf00      	nop

00081ac0 <SVC_Handler>:
   81ac0:	4b06      	ldr	r3, [pc, #24]	; (81adc <pxCurrentTCBConst2>)
   81ac2:	6819      	ldr	r1, [r3, #0]
   81ac4:	6808      	ldr	r0, [r1, #0]
   81ac6:	e8b0 0ff0 	ldmia.w	r0!, {r4, r5, r6, r7, r8, r9, sl, fp}
   81aca:	f380 8809 	msr	PSP, r0
   81ace:	f04f 0000 	mov.w	r0, #0
   81ad2:	f380 8811 	msr	BASEPRI, r0
   81ad6:	f04e 0e0d 	orr.w	lr, lr, #13
   81ada:	4770      	bx	lr

00081adc <pxCurrentTCBConst2>:
   81adc:	20078c78 	.word	0x20078c78

00081ae0 <vPortYieldFromISR>:
   81ae0:	f04f 5280 	mov.w	r2, #268435456	; 0x10000000
   81ae4:	4b01      	ldr	r3, [pc, #4]	; (81aec <vPortYieldFromISR+0xc>)
   81ae6:	601a      	str	r2, [r3, #0]
   81ae8:	4770      	bx	lr
   81aea:	bf00      	nop
   81aec:	e000ed04 	.word	0xe000ed04

00081af0 <ulPortSetInterruptMask>:
   81af0:	f3ef 8011 	mrs	r0, BASEPRI
   81af4:	f04f 01a0 	mov.w	r1, #160	; 0xa0
   81af8:	f381 8811 	msr	BASEPRI, r1
   81afc:	4770      	bx	lr
   81afe:	2000      	movs	r0, #0

00081b00 <vPortEnterCritical>:
   81b00:	b508      	push	{r3, lr}
   81b02:	4b03      	ldr	r3, [pc, #12]	; (81b10 <vPortEnterCritical+0x10>)
   81b04:	4798      	blx	r3
   81b06:	4b03      	ldr	r3, [pc, #12]	; (81b14 <vPortEnterCritical+0x14>)
   81b08:	681a      	ldr	r2, [r3, #0]
   81b0a:	3201      	adds	r2, #1
   81b0c:	601a      	str	r2, [r3, #0]
   81b0e:	bd08      	pop	{r3, pc}
   81b10:	00081af1 	.word	0x00081af1
   81b14:	20070198 	.word	0x20070198

00081b18 <vPortClearInterruptMask>:
   81b18:	f380 8811 	msr	BASEPRI, r0
   81b1c:	4770      	bx	lr
   81b1e:	bf00      	nop

00081b20 <vPortExitCritical>:
   81b20:	b508      	push	{r3, lr}
   81b22:	4a04      	ldr	r2, [pc, #16]	; (81b34 <vPortExitCritical+0x14>)
   81b24:	6813      	ldr	r3, [r2, #0]
   81b26:	3b01      	subs	r3, #1
   81b28:	6013      	str	r3, [r2, #0]
   81b2a:	b913      	cbnz	r3, 81b32 <vPortExitCritical+0x12>
   81b2c:	2000      	movs	r0, #0
   81b2e:	4b02      	ldr	r3, [pc, #8]	; (81b38 <vPortExitCritical+0x18>)
   81b30:	4798      	blx	r3
   81b32:	bd08      	pop	{r3, pc}
   81b34:	20070198 	.word	0x20070198
   81b38:	00081b19 	.word	0x00081b19

00081b3c <PendSV_Handler>:
   81b3c:	f3ef 8009 	mrs	r0, PSP
   81b40:	4b0c      	ldr	r3, [pc, #48]	; (81b74 <pxCurrentTCBConst>)
   81b42:	681a      	ldr	r2, [r3, #0]
   81b44:	e920 0ff0 	stmdb	r0!, {r4, r5, r6, r7, r8, r9, sl, fp}
   81b48:	6010      	str	r0, [r2, #0]
   81b4a:	e92d 4008 	stmdb	sp!, {r3, lr}
   81b4e:	f04f 00a0 	mov.w	r0, #160	; 0xa0
   81b52:	f380 8811 	msr	BASEPRI, r0
   81b56:	f000 feeb 	bl	82930 <vTaskSwitchContext>
   81b5a:	f04f 0000 	mov.w	r0, #0
   81b5e:	f380 8811 	msr	BASEPRI, r0
   81b62:	e8bd 4008 	ldmia.w	sp!, {r3, lr}
   81b66:	6819      	ldr	r1, [r3, #0]
   81b68:	6808      	ldr	r0, [r1, #0]
   81b6a:	e8b0 0ff0 	ldmia.w	r0!, {r4, r5, r6, r7, r8, r9, sl, fp}
   81b6e:	f380 8809 	msr	PSP, r0
   81b72:	4770      	bx	lr

00081b74 <pxCurrentTCBConst>:
   81b74:	20078c78 	.word	0x20078c78

00081b78 <SysTick_Handler>:
   81b78:	b508      	push	{r3, lr}
   81b7a:	f04f 5280 	mov.w	r2, #268435456	; 0x10000000
   81b7e:	4b05      	ldr	r3, [pc, #20]	; (81b94 <SysTick_Handler+0x1c>)
   81b80:	601a      	str	r2, [r3, #0]
   81b82:	4b05      	ldr	r3, [pc, #20]	; (81b98 <SysTick_Handler+0x20>)
   81b84:	4798      	blx	r3
   81b86:	4b05      	ldr	r3, [pc, #20]	; (81b9c <SysTick_Handler+0x24>)
   81b88:	4798      	blx	r3
   81b8a:	2000      	movs	r0, #0
   81b8c:	4b04      	ldr	r3, [pc, #16]	; (81ba0 <SysTick_Handler+0x28>)
   81b8e:	4798      	blx	r3
   81b90:	bd08      	pop	{r3, pc}
   81b92:	bf00      	nop
   81b94:	e000ed04 	.word	0xe000ed04
   81b98:	00081af1 	.word	0x00081af1
   81b9c:	00082595 	.word	0x00082595
   81ba0:	00081b19 	.word	0x00081b19

00081ba4 <vPortSetupTimerInterrupt>:
   81ba4:	4a03      	ldr	r2, [pc, #12]	; (81bb4 <vPortSetupTimerInterrupt+0x10>)
   81ba6:	4b04      	ldr	r3, [pc, #16]	; (81bb8 <vPortSetupTimerInterrupt+0x14>)
   81ba8:	601a      	str	r2, [r3, #0]
   81baa:	2207      	movs	r2, #7
   81bac:	3b04      	subs	r3, #4
   81bae:	601a      	str	r2, [r3, #0]
   81bb0:	4770      	bx	lr
   81bb2:	bf00      	nop
   81bb4:	0001481f 	.word	0x0001481f
   81bb8:	e000e014 	.word	0xe000e014

00081bbc <xPortStartScheduler>:
   81bbc:	b510      	push	{r4, lr}
   81bbe:	4b09      	ldr	r3, [pc, #36]	; (81be4 <xPortStartScheduler+0x28>)
   81bc0:	681a      	ldr	r2, [r3, #0]
   81bc2:	f442 0270 	orr.w	r2, r2, #15728640	; 0xf00000
   81bc6:	601a      	str	r2, [r3, #0]
   81bc8:	681a      	ldr	r2, [r3, #0]
   81bca:	f042 4270 	orr.w	r2, r2, #4026531840	; 0xf0000000
   81bce:	601a      	str	r2, [r3, #0]
   81bd0:	4b05      	ldr	r3, [pc, #20]	; (81be8 <xPortStartScheduler+0x2c>)
   81bd2:	4798      	blx	r3
   81bd4:	2400      	movs	r4, #0
   81bd6:	4b05      	ldr	r3, [pc, #20]	; (81bec <xPortStartScheduler+0x30>)
   81bd8:	601c      	str	r4, [r3, #0]
   81bda:	4b05      	ldr	r3, [pc, #20]	; (81bf0 <xPortStartScheduler+0x34>)
   81bdc:	4798      	blx	r3
   81bde:	4620      	mov	r0, r4
   81be0:	bd10      	pop	{r4, pc}
   81be2:	bf00      	nop
   81be4:	e000ed20 	.word	0xe000ed20
   81be8:	00081ba5 	.word	0x00081ba5
   81bec:	20070198 	.word	0x20070198
   81bf0:	00081a91 	.word	0x00081a91

00081bf4 <prvInsertBlockIntoFreeList>:
   81bf4:	b430      	push	{r4, r5}
   81bf6:	4a13      	ldr	r2, [pc, #76]	; (81c44 <prvInsertBlockIntoFreeList+0x50>)
   81bf8:	6813      	ldr	r3, [r2, #0]
   81bfa:	4283      	cmp	r3, r0
   81bfc:	d201      	bcs.n	81c02 <prvInsertBlockIntoFreeList+0xe>
   81bfe:	461a      	mov	r2, r3
   81c00:	e7fa      	b.n	81bf8 <prvInsertBlockIntoFreeList+0x4>
   81c02:	4611      	mov	r1, r2
   81c04:	6854      	ldr	r4, [r2, #4]
   81c06:	1915      	adds	r5, r2, r4
   81c08:	4285      	cmp	r5, r0
   81c0a:	d103      	bne.n	81c14 <prvInsertBlockIntoFreeList+0x20>
   81c0c:	6868      	ldr	r0, [r5, #4]
   81c0e:	4404      	add	r4, r0
   81c10:	6054      	str	r4, [r2, #4]
   81c12:	4610      	mov	r0, r2
   81c14:	6842      	ldr	r2, [r0, #4]
   81c16:	1884      	adds	r4, r0, r2
   81c18:	42a3      	cmp	r3, r4
   81c1a:	d10c      	bne.n	81c36 <prvInsertBlockIntoFreeList+0x42>
   81c1c:	4c0a      	ldr	r4, [pc, #40]	; (81c48 <prvInsertBlockIntoFreeList+0x54>)
   81c1e:	6824      	ldr	r4, [r4, #0]
   81c20:	429c      	cmp	r4, r3
   81c22:	d006      	beq.n	81c32 <prvInsertBlockIntoFreeList+0x3e>
   81c24:	685b      	ldr	r3, [r3, #4]
   81c26:	441a      	add	r2, r3
   81c28:	6042      	str	r2, [r0, #4]
   81c2a:	680b      	ldr	r3, [r1, #0]
   81c2c:	681b      	ldr	r3, [r3, #0]
   81c2e:	6003      	str	r3, [r0, #0]
   81c30:	e002      	b.n	81c38 <prvInsertBlockIntoFreeList+0x44>
   81c32:	6003      	str	r3, [r0, #0]
   81c34:	e000      	b.n	81c38 <prvInsertBlockIntoFreeList+0x44>
   81c36:	6003      	str	r3, [r0, #0]
   81c38:	4281      	cmp	r1, r0
   81c3a:	bf18      	it	ne
   81c3c:	6008      	strne	r0, [r1, #0]
   81c3e:	bc30      	pop	{r4, r5}
   81c40:	4770      	bx	lr
   81c42:	bf00      	nop
   81c44:	20078b54 	.word	0x20078b54
   81c48:	20078b50 	.word	0x20078b50

00081c4c <pvPortMalloc>:
   81c4c:	b538      	push	{r3, r4, r5, lr}
   81c4e:	4604      	mov	r4, r0
   81c50:	4b28      	ldr	r3, [pc, #160]	; (81cf4 <pvPortMalloc+0xa8>)
   81c52:	4798      	blx	r3
   81c54:	4b28      	ldr	r3, [pc, #160]	; (81cf8 <pvPortMalloc+0xac>)
   81c56:	681b      	ldr	r3, [r3, #0]
   81c58:	b99b      	cbnz	r3, 81c82 <pvPortMalloc+0x36>
   81c5a:	4a28      	ldr	r2, [pc, #160]	; (81cfc <pvPortMalloc+0xb0>)
   81c5c:	4b28      	ldr	r3, [pc, #160]	; (81d00 <pvPortMalloc+0xb4>)
   81c5e:	6013      	str	r3, [r2, #0]
   81c60:	2100      	movs	r1, #0
   81c62:	6051      	str	r1, [r2, #4]
   81c64:	f647 72f0 	movw	r2, #32752	; 0x7ff0
   81c68:	1898      	adds	r0, r3, r2
   81c6a:	4d23      	ldr	r5, [pc, #140]	; (81cf8 <pvPortMalloc+0xac>)
   81c6c:	6028      	str	r0, [r5, #0]
   81c6e:	f647 75f4 	movw	r5, #32756	; 0x7ff4
   81c72:	5159      	str	r1, [r3, r5]
   81c74:	5099      	str	r1, [r3, r2]
   81c76:	605a      	str	r2, [r3, #4]
   81c78:	6018      	str	r0, [r3, #0]
   81c7a:	4b22      	ldr	r3, [pc, #136]	; (81d04 <pvPortMalloc+0xb8>)
   81c7c:	681a      	ldr	r2, [r3, #0]
   81c7e:	3a10      	subs	r2, #16
   81c80:	601a      	str	r2, [r3, #0]
   81c82:	2c00      	cmp	r4, #0
   81c84:	d02d      	beq.n	81ce2 <pvPortMalloc+0x96>
   81c86:	f104 0210 	add.w	r2, r4, #16
   81c8a:	f012 0f07 	tst.w	r2, #7
   81c8e:	bf1c      	itt	ne
   81c90:	f022 0207 	bicne.w	r2, r2, #7
   81c94:	3208      	addne	r2, #8
   81c96:	1e51      	subs	r1, r2, #1
   81c98:	f647 73fe 	movw	r3, #32766	; 0x7ffe
   81c9c:	4299      	cmp	r1, r3
   81c9e:	d822      	bhi.n	81ce6 <pvPortMalloc+0x9a>
   81ca0:	4916      	ldr	r1, [pc, #88]	; (81cfc <pvPortMalloc+0xb0>)
   81ca2:	680c      	ldr	r4, [r1, #0]
   81ca4:	6863      	ldr	r3, [r4, #4]
   81ca6:	429a      	cmp	r2, r3
   81ca8:	d904      	bls.n	81cb4 <pvPortMalloc+0x68>
   81caa:	6823      	ldr	r3, [r4, #0]
   81cac:	b113      	cbz	r3, 81cb4 <pvPortMalloc+0x68>
   81cae:	4621      	mov	r1, r4
   81cb0:	461c      	mov	r4, r3
   81cb2:	e7f7      	b.n	81ca4 <pvPortMalloc+0x58>
   81cb4:	4b10      	ldr	r3, [pc, #64]	; (81cf8 <pvPortMalloc+0xac>)
   81cb6:	681b      	ldr	r3, [r3, #0]
   81cb8:	429c      	cmp	r4, r3
   81cba:	d016      	beq.n	81cea <pvPortMalloc+0x9e>
   81cbc:	680d      	ldr	r5, [r1, #0]
   81cbe:	3510      	adds	r5, #16
   81cc0:	6823      	ldr	r3, [r4, #0]
   81cc2:	600b      	str	r3, [r1, #0]
   81cc4:	6863      	ldr	r3, [r4, #4]
   81cc6:	1a9b      	subs	r3, r3, r2
   81cc8:	2b20      	cmp	r3, #32
   81cca:	d904      	bls.n	81cd6 <pvPortMalloc+0x8a>
   81ccc:	18a0      	adds	r0, r4, r2
   81cce:	6043      	str	r3, [r0, #4]
   81cd0:	6062      	str	r2, [r4, #4]
   81cd2:	4b0d      	ldr	r3, [pc, #52]	; (81d08 <pvPortMalloc+0xbc>)
   81cd4:	4798      	blx	r3
   81cd6:	4b0b      	ldr	r3, [pc, #44]	; (81d04 <pvPortMalloc+0xb8>)
   81cd8:	681a      	ldr	r2, [r3, #0]
   81cda:	6861      	ldr	r1, [r4, #4]
   81cdc:	1a52      	subs	r2, r2, r1
   81cde:	601a      	str	r2, [r3, #0]
   81ce0:	e004      	b.n	81cec <pvPortMalloc+0xa0>
   81ce2:	2500      	movs	r5, #0
   81ce4:	e002      	b.n	81cec <pvPortMalloc+0xa0>
   81ce6:	2500      	movs	r5, #0
   81ce8:	e000      	b.n	81cec <pvPortMalloc+0xa0>
   81cea:	2500      	movs	r5, #0
   81cec:	4b07      	ldr	r3, [pc, #28]	; (81d0c <pvPortMalloc+0xc0>)
   81cee:	4798      	blx	r3
   81cf0:	4628      	mov	r0, r5
   81cf2:	bd38      	pop	{r3, r4, r5, pc}
   81cf4:	00082565 	.word	0x00082565
   81cf8:	20078b50 	.word	0x20078b50
   81cfc:	20078b54 	.word	0x20078b54
   81d00:	20070b50 	.word	0x20070b50
   81d04:	2007019c 	.word	0x2007019c
   81d08:	00081bf5 	.word	0x00081bf5
   81d0c:	000826c1 	.word	0x000826c1

00081d10 <vPortFree>:
   81d10:	b510      	push	{r4, lr}
   81d12:	4604      	mov	r4, r0
   81d14:	b168      	cbz	r0, 81d32 <vPortFree+0x22>
   81d16:	4b07      	ldr	r3, [pc, #28]	; (81d34 <vPortFree+0x24>)
   81d18:	4798      	blx	r3
   81d1a:	4b07      	ldr	r3, [pc, #28]	; (81d38 <vPortFree+0x28>)
   81d1c:	6819      	ldr	r1, [r3, #0]
   81d1e:	f854 2c0c 	ldr.w	r2, [r4, #-12]
   81d22:	440a      	add	r2, r1
   81d24:	601a      	str	r2, [r3, #0]
   81d26:	f1a4 0010 	sub.w	r0, r4, #16
   81d2a:	4b04      	ldr	r3, [pc, #16]	; (81d3c <vPortFree+0x2c>)
   81d2c:	4798      	blx	r3
   81d2e:	4b04      	ldr	r3, [pc, #16]	; (81d40 <vPortFree+0x30>)
   81d30:	4798      	blx	r3
   81d32:	bd10      	pop	{r4, pc}
   81d34:	00082565 	.word	0x00082565
   81d38:	2007019c 	.word	0x2007019c
   81d3c:	00081bf5 	.word	0x00081bf5
   81d40:	000826c1 	.word	0x000826c1

00081d44 <prvCopyDataToQueue>:
   81d44:	b510      	push	{r4, lr}
   81d46:	4604      	mov	r4, r0
   81d48:	6c03      	ldr	r3, [r0, #64]	; 0x40
   81d4a:	b93b      	cbnz	r3, 81d5c <prvCopyDataToQueue+0x18>
   81d4c:	6803      	ldr	r3, [r0, #0]
   81d4e:	bb1b      	cbnz	r3, 81d98 <prvCopyDataToQueue+0x54>
   81d50:	6840      	ldr	r0, [r0, #4]
   81d52:	4b13      	ldr	r3, [pc, #76]	; (81da0 <prvCopyDataToQueue+0x5c>)
   81d54:	4798      	blx	r3
   81d56:	2300      	movs	r3, #0
   81d58:	6063      	str	r3, [r4, #4]
   81d5a:	e01d      	b.n	81d98 <prvCopyDataToQueue+0x54>
   81d5c:	b96a      	cbnz	r2, 81d7a <prvCopyDataToQueue+0x36>
   81d5e:	6880      	ldr	r0, [r0, #8]
   81d60:	461a      	mov	r2, r3
   81d62:	4b10      	ldr	r3, [pc, #64]	; (81da4 <prvCopyDataToQueue+0x60>)
   81d64:	4798      	blx	r3
   81d66:	68a2      	ldr	r2, [r4, #8]
   81d68:	6c23      	ldr	r3, [r4, #64]	; 0x40
   81d6a:	4413      	add	r3, r2
   81d6c:	60a3      	str	r3, [r4, #8]
   81d6e:	6862      	ldr	r2, [r4, #4]
   81d70:	4293      	cmp	r3, r2
   81d72:	d311      	bcc.n	81d98 <prvCopyDataToQueue+0x54>
   81d74:	6823      	ldr	r3, [r4, #0]
   81d76:	60a3      	str	r3, [r4, #8]
   81d78:	e00e      	b.n	81d98 <prvCopyDataToQueue+0x54>
   81d7a:	68c0      	ldr	r0, [r0, #12]
   81d7c:	461a      	mov	r2, r3
   81d7e:	4b09      	ldr	r3, [pc, #36]	; (81da4 <prvCopyDataToQueue+0x60>)
   81d80:	4798      	blx	r3
   81d82:	6c22      	ldr	r2, [r4, #64]	; 0x40
   81d84:	4252      	negs	r2, r2
   81d86:	68e3      	ldr	r3, [r4, #12]
   81d88:	4413      	add	r3, r2
   81d8a:	60e3      	str	r3, [r4, #12]
   81d8c:	6821      	ldr	r1, [r4, #0]
   81d8e:	428b      	cmp	r3, r1
   81d90:	d202      	bcs.n	81d98 <prvCopyDataToQueue+0x54>
   81d92:	6863      	ldr	r3, [r4, #4]
   81d94:	441a      	add	r2, r3
   81d96:	60e2      	str	r2, [r4, #12]
   81d98:	6ba3      	ldr	r3, [r4, #56]	; 0x38
   81d9a:	3301      	adds	r3, #1
   81d9c:	63a3      	str	r3, [r4, #56]	; 0x38
   81d9e:	bd10      	pop	{r4, pc}
   81da0:	00082c59 	.word	0x00082c59
   81da4:	00084981 	.word	0x00084981

00081da8 <prvCopyDataFromQueue>:
   81da8:	b538      	push	{r3, r4, r5, lr}
   81daa:	4603      	mov	r3, r0
   81dac:	6805      	ldr	r5, [r0, #0]
   81dae:	b15d      	cbz	r5, 81dc8 <prvCopyDataFromQueue+0x20>
   81db0:	6c02      	ldr	r2, [r0, #64]	; 0x40
   81db2:	68c4      	ldr	r4, [r0, #12]
   81db4:	4414      	add	r4, r2
   81db6:	60c4      	str	r4, [r0, #12]
   81db8:	6840      	ldr	r0, [r0, #4]
   81dba:	4284      	cmp	r4, r0
   81dbc:	bf28      	it	cs
   81dbe:	60dd      	strcs	r5, [r3, #12]
   81dc0:	4608      	mov	r0, r1
   81dc2:	68d9      	ldr	r1, [r3, #12]
   81dc4:	4b01      	ldr	r3, [pc, #4]	; (81dcc <prvCopyDataFromQueue+0x24>)
   81dc6:	4798      	blx	r3
   81dc8:	bd38      	pop	{r3, r4, r5, pc}
   81dca:	bf00      	nop
   81dcc:	00084981 	.word	0x00084981

00081dd0 <prvUnlockQueue>:
   81dd0:	b5f8      	push	{r3, r4, r5, r6, r7, lr}
   81dd2:	4604      	mov	r4, r0
   81dd4:	4b1d      	ldr	r3, [pc, #116]	; (81e4c <prvUnlockQueue+0x7c>)
   81dd6:	4798      	blx	r3
   81dd8:	6ca3      	ldr	r3, [r4, #72]	; 0x48
   81dda:	2b00      	cmp	r3, #0
   81ddc:	dd12      	ble.n	81e04 <prvUnlockQueue+0x34>
   81dde:	6a63      	ldr	r3, [r4, #36]	; 0x24
   81de0:	b183      	cbz	r3, 81e04 <prvUnlockQueue+0x34>
   81de2:	f104 0624 	add.w	r6, r4, #36	; 0x24
   81de6:	4d1a      	ldr	r5, [pc, #104]	; (81e50 <prvUnlockQueue+0x80>)
   81de8:	4f1a      	ldr	r7, [pc, #104]	; (81e54 <prvUnlockQueue+0x84>)
   81dea:	e001      	b.n	81df0 <prvUnlockQueue+0x20>
   81dec:	6a63      	ldr	r3, [r4, #36]	; 0x24
   81dee:	b14b      	cbz	r3, 81e04 <prvUnlockQueue+0x34>
   81df0:	4630      	mov	r0, r6
   81df2:	47a8      	blx	r5
   81df4:	b100      	cbz	r0, 81df8 <prvUnlockQueue+0x28>
   81df6:	47b8      	blx	r7
   81df8:	6ca3      	ldr	r3, [r4, #72]	; 0x48
   81dfa:	3b01      	subs	r3, #1
   81dfc:	64a3      	str	r3, [r4, #72]	; 0x48
   81dfe:	6ca3      	ldr	r3, [r4, #72]	; 0x48
   81e00:	2b00      	cmp	r3, #0
   81e02:	dcf3      	bgt.n	81dec <prvUnlockQueue+0x1c>
   81e04:	f04f 33ff 	mov.w	r3, #4294967295
   81e08:	64a3      	str	r3, [r4, #72]	; 0x48
   81e0a:	4b13      	ldr	r3, [pc, #76]	; (81e58 <prvUnlockQueue+0x88>)
   81e0c:	4798      	blx	r3
   81e0e:	4b0f      	ldr	r3, [pc, #60]	; (81e4c <prvUnlockQueue+0x7c>)
   81e10:	4798      	blx	r3
   81e12:	6c63      	ldr	r3, [r4, #68]	; 0x44
   81e14:	2b00      	cmp	r3, #0
   81e16:	dd12      	ble.n	81e3e <prvUnlockQueue+0x6e>
   81e18:	6923      	ldr	r3, [r4, #16]
   81e1a:	b183      	cbz	r3, 81e3e <prvUnlockQueue+0x6e>
   81e1c:	f104 0610 	add.w	r6, r4, #16
   81e20:	4d0b      	ldr	r5, [pc, #44]	; (81e50 <prvUnlockQueue+0x80>)
   81e22:	4f0c      	ldr	r7, [pc, #48]	; (81e54 <prvUnlockQueue+0x84>)
   81e24:	e001      	b.n	81e2a <prvUnlockQueue+0x5a>
   81e26:	6923      	ldr	r3, [r4, #16]
   81e28:	b14b      	cbz	r3, 81e3e <prvUnlockQueue+0x6e>
   81e2a:	4630      	mov	r0, r6
   81e2c:	47a8      	blx	r5
   81e2e:	b100      	cbz	r0, 81e32 <prvUnlockQueue+0x62>
   81e30:	47b8      	blx	r7
   81e32:	6c63      	ldr	r3, [r4, #68]	; 0x44
   81e34:	3b01      	subs	r3, #1
   81e36:	6463      	str	r3, [r4, #68]	; 0x44
   81e38:	6c63      	ldr	r3, [r4, #68]	; 0x44
   81e3a:	2b00      	cmp	r3, #0
   81e3c:	dcf3      	bgt.n	81e26 <prvUnlockQueue+0x56>
   81e3e:	f04f 33ff 	mov.w	r3, #4294967295
   81e42:	6463      	str	r3, [r4, #68]	; 0x44
   81e44:	4b04      	ldr	r3, [pc, #16]	; (81e58 <prvUnlockQueue+0x88>)
   81e46:	4798      	blx	r3
   81e48:	bdf8      	pop	{r3, r4, r5, r6, r7, pc}
   81e4a:	bf00      	nop
   81e4c:	00081b01 	.word	0x00081b01
   81e50:	00082a6d 	.word	0x00082a6d
   81e54:	00082ba5 	.word	0x00082ba5
   81e58:	00081b21 	.word	0x00081b21

00081e5c <xQueueGenericReset>:
   81e5c:	b538      	push	{r3, r4, r5, lr}
   81e5e:	460d      	mov	r5, r1
   81e60:	4604      	mov	r4, r0
   81e62:	b918      	cbnz	r0, 81e6c <xQueueGenericReset+0x10>
   81e64:	4b16      	ldr	r3, [pc, #88]	; (81ec0 <xQueueGenericReset+0x64>)
   81e66:	4798      	blx	r3
   81e68:	bf00      	nop
   81e6a:	e7fd      	b.n	81e68 <xQueueGenericReset+0xc>
   81e6c:	4b15      	ldr	r3, [pc, #84]	; (81ec4 <xQueueGenericReset+0x68>)
   81e6e:	4798      	blx	r3
   81e70:	6823      	ldr	r3, [r4, #0]
   81e72:	6c22      	ldr	r2, [r4, #64]	; 0x40
   81e74:	6be0      	ldr	r0, [r4, #60]	; 0x3c
   81e76:	fb00 f002 	mul.w	r0, r0, r2
   81e7a:	1819      	adds	r1, r3, r0
   81e7c:	6061      	str	r1, [r4, #4]
   81e7e:	2100      	movs	r1, #0
   81e80:	63a1      	str	r1, [r4, #56]	; 0x38
   81e82:	60a3      	str	r3, [r4, #8]
   81e84:	1a82      	subs	r2, r0, r2
   81e86:	4413      	add	r3, r2
   81e88:	60e3      	str	r3, [r4, #12]
   81e8a:	f04f 33ff 	mov.w	r3, #4294967295
   81e8e:	6463      	str	r3, [r4, #68]	; 0x44
   81e90:	64a3      	str	r3, [r4, #72]	; 0x48
   81e92:	b955      	cbnz	r5, 81eaa <xQueueGenericReset+0x4e>
   81e94:	6923      	ldr	r3, [r4, #16]
   81e96:	b17b      	cbz	r3, 81eb8 <xQueueGenericReset+0x5c>
   81e98:	f104 0010 	add.w	r0, r4, #16
   81e9c:	4b0a      	ldr	r3, [pc, #40]	; (81ec8 <xQueueGenericReset+0x6c>)
   81e9e:	4798      	blx	r3
   81ea0:	2801      	cmp	r0, #1
   81ea2:	d109      	bne.n	81eb8 <xQueueGenericReset+0x5c>
   81ea4:	4b09      	ldr	r3, [pc, #36]	; (81ecc <xQueueGenericReset+0x70>)
   81ea6:	4798      	blx	r3
   81ea8:	e006      	b.n	81eb8 <xQueueGenericReset+0x5c>
   81eaa:	f104 0010 	add.w	r0, r4, #16
   81eae:	4d08      	ldr	r5, [pc, #32]	; (81ed0 <xQueueGenericReset+0x74>)
   81eb0:	47a8      	blx	r5
   81eb2:	f104 0024 	add.w	r0, r4, #36	; 0x24
   81eb6:	47a8      	blx	r5
   81eb8:	4b06      	ldr	r3, [pc, #24]	; (81ed4 <xQueueGenericReset+0x78>)
   81eba:	4798      	blx	r3
   81ebc:	2001      	movs	r0, #1
   81ebe:	bd38      	pop	{r3, r4, r5, pc}
   81ec0:	00081af1 	.word	0x00081af1
   81ec4:	00081b01 	.word	0x00081b01
   81ec8:	00082a6d 	.word	0x00082a6d
   81ecc:	00081ae1 	.word	0x00081ae1
   81ed0:	000819e9 	.word	0x000819e9
   81ed4:	00081b21 	.word	0x00081b21

00081ed8 <xQueueGenericCreate>:
   81ed8:	b5f8      	push	{r3, r4, r5, r6, r7, lr}
   81eda:	460d      	mov	r5, r1
   81edc:	4617      	mov	r7, r2
   81ede:	4606      	mov	r6, r0
   81ee0:	b188      	cbz	r0, 81f06 <xQueueGenericCreate+0x2e>
   81ee2:	2050      	movs	r0, #80	; 0x50
   81ee4:	4b0e      	ldr	r3, [pc, #56]	; (81f20 <xQueueGenericCreate+0x48>)
   81ee6:	4798      	blx	r3
   81ee8:	4604      	mov	r4, r0
   81eea:	b160      	cbz	r0, 81f06 <xQueueGenericCreate+0x2e>
   81eec:	fb05 f006 	mul.w	r0, r5, r6
   81ef0:	3001      	adds	r0, #1
   81ef2:	4b0b      	ldr	r3, [pc, #44]	; (81f20 <xQueueGenericCreate+0x48>)
   81ef4:	4798      	blx	r3
   81ef6:	6020      	str	r0, [r4, #0]
   81ef8:	b940      	cbnz	r0, 81f0c <xQueueGenericCreate+0x34>
   81efa:	4620      	mov	r0, r4
   81efc:	4b09      	ldr	r3, [pc, #36]	; (81f24 <xQueueGenericCreate+0x4c>)
   81efe:	4798      	blx	r3
   81f00:	e001      	b.n	81f06 <xQueueGenericCreate+0x2e>
   81f02:	bf00      	nop
   81f04:	e7fd      	b.n	81f02 <xQueueGenericCreate+0x2a>
   81f06:	4b08      	ldr	r3, [pc, #32]	; (81f28 <xQueueGenericCreate+0x50>)
   81f08:	4798      	blx	r3
   81f0a:	e7fa      	b.n	81f02 <xQueueGenericCreate+0x2a>
   81f0c:	63e6      	str	r6, [r4, #60]	; 0x3c
   81f0e:	6425      	str	r5, [r4, #64]	; 0x40
   81f10:	4620      	mov	r0, r4
   81f12:	2101      	movs	r1, #1
   81f14:	4b05      	ldr	r3, [pc, #20]	; (81f2c <xQueueGenericCreate+0x54>)
   81f16:	4798      	blx	r3
   81f18:	f884 704d 	strb.w	r7, [r4, #77]	; 0x4d
   81f1c:	4620      	mov	r0, r4
   81f1e:	bdf8      	pop	{r3, r4, r5, r6, r7, pc}
   81f20:	00081c4d 	.word	0x00081c4d
   81f24:	00081d11 	.word	0x00081d11
   81f28:	00081af1 	.word	0x00081af1
   81f2c:	00081e5d 	.word	0x00081e5d

00081f30 <xQueueGenericSend>:
   81f30:	e92d 4ff0 	stmdb	sp!, {r4, r5, r6, r7, r8, r9, sl, fp, lr}
   81f34:	b085      	sub	sp, #20
   81f36:	468a      	mov	sl, r1
   81f38:	469b      	mov	fp, r3
   81f3a:	f8ad 2006 	strh.w	r2, [sp, #6]
   81f3e:	4604      	mov	r4, r0
   81f40:	b918      	cbnz	r0, 81f4a <xQueueGenericSend+0x1a>
   81f42:	4b38      	ldr	r3, [pc, #224]	; (82024 <xQueueGenericSend+0xf4>)
   81f44:	4798      	blx	r3
   81f46:	bf00      	nop
   81f48:	e7fd      	b.n	81f46 <xQueueGenericSend+0x16>
   81f4a:	b909      	cbnz	r1, 81f50 <xQueueGenericSend+0x20>
   81f4c:	6c03      	ldr	r3, [r0, #64]	; 0x40
   81f4e:	b91b      	cbnz	r3, 81f58 <xQueueGenericSend+0x28>
   81f50:	2700      	movs	r7, #0
   81f52:	4e35      	ldr	r6, [pc, #212]	; (82028 <xQueueGenericSend+0xf8>)
   81f54:	4d35      	ldr	r5, [pc, #212]	; (8202c <xQueueGenericSend+0xfc>)
   81f56:	e003      	b.n	81f60 <xQueueGenericSend+0x30>
   81f58:	4b32      	ldr	r3, [pc, #200]	; (82024 <xQueueGenericSend+0xf4>)
   81f5a:	4798      	blx	r3
   81f5c:	bf00      	nop
   81f5e:	e7fd      	b.n	81f5c <xQueueGenericSend+0x2c>
   81f60:	47b0      	blx	r6
   81f62:	6ba2      	ldr	r2, [r4, #56]	; 0x38
   81f64:	6be3      	ldr	r3, [r4, #60]	; 0x3c
   81f66:	429a      	cmp	r2, r3
   81f68:	d212      	bcs.n	81f90 <xQueueGenericSend+0x60>
   81f6a:	4620      	mov	r0, r4
   81f6c:	4651      	mov	r1, sl
   81f6e:	465a      	mov	r2, fp
   81f70:	4b2f      	ldr	r3, [pc, #188]	; (82030 <xQueueGenericSend+0x100>)
   81f72:	4798      	blx	r3
   81f74:	6a63      	ldr	r3, [r4, #36]	; 0x24
   81f76:	b13b      	cbz	r3, 81f88 <xQueueGenericSend+0x58>
   81f78:	f104 0024 	add.w	r0, r4, #36	; 0x24
   81f7c:	4b2d      	ldr	r3, [pc, #180]	; (82034 <xQueueGenericSend+0x104>)
   81f7e:	4798      	blx	r3
   81f80:	2801      	cmp	r0, #1
   81f82:	d101      	bne.n	81f88 <xQueueGenericSend+0x58>
   81f84:	4b2c      	ldr	r3, [pc, #176]	; (82038 <xQueueGenericSend+0x108>)
   81f86:	4798      	blx	r3
   81f88:	4b28      	ldr	r3, [pc, #160]	; (8202c <xQueueGenericSend+0xfc>)
   81f8a:	4798      	blx	r3
   81f8c:	2001      	movs	r0, #1
   81f8e:	e046      	b.n	8201e <xQueueGenericSend+0xee>
   81f90:	f8bd 3006 	ldrh.w	r3, [sp, #6]
   81f94:	b91b      	cbnz	r3, 81f9e <xQueueGenericSend+0x6e>
   81f96:	4b25      	ldr	r3, [pc, #148]	; (8202c <xQueueGenericSend+0xfc>)
   81f98:	4798      	blx	r3
   81f9a:	2000      	movs	r0, #0
   81f9c:	e03f      	b.n	8201e <xQueueGenericSend+0xee>
   81f9e:	b91f      	cbnz	r7, 81fa8 <xQueueGenericSend+0x78>
   81fa0:	a802      	add	r0, sp, #8
   81fa2:	4b26      	ldr	r3, [pc, #152]	; (8203c <xQueueGenericSend+0x10c>)
   81fa4:	4798      	blx	r3
   81fa6:	2701      	movs	r7, #1
   81fa8:	47a8      	blx	r5
   81faa:	4b25      	ldr	r3, [pc, #148]	; (82040 <xQueueGenericSend+0x110>)
   81fac:	4798      	blx	r3
   81fae:	47b0      	blx	r6
   81fb0:	6c63      	ldr	r3, [r4, #68]	; 0x44
   81fb2:	f1b3 3fff 	cmp.w	r3, #4294967295
   81fb6:	bf04      	itt	eq
   81fb8:	2300      	moveq	r3, #0
   81fba:	6463      	streq	r3, [r4, #68]	; 0x44
   81fbc:	6ca3      	ldr	r3, [r4, #72]	; 0x48
   81fbe:	f1b3 3fff 	cmp.w	r3, #4294967295
   81fc2:	bf04      	itt	eq
   81fc4:	2300      	moveq	r3, #0
   81fc6:	64a3      	streq	r3, [r4, #72]	; 0x48
   81fc8:	47a8      	blx	r5
   81fca:	a802      	add	r0, sp, #8
   81fcc:	f10d 0106 	add.w	r1, sp, #6
   81fd0:	4b1c      	ldr	r3, [pc, #112]	; (82044 <xQueueGenericSend+0x114>)
   81fd2:	4798      	blx	r3
   81fd4:	b9e8      	cbnz	r0, 82012 <xQueueGenericSend+0xe2>
   81fd6:	47b0      	blx	r6
   81fd8:	f8d4 9038 	ldr.w	r9, [r4, #56]	; 0x38
   81fdc:	f8d4 803c 	ldr.w	r8, [r4, #60]	; 0x3c
   81fe0:	47a8      	blx	r5
   81fe2:	45c1      	cmp	r9, r8
   81fe4:	d10f      	bne.n	82006 <xQueueGenericSend+0xd6>
   81fe6:	f104 0010 	add.w	r0, r4, #16
   81fea:	f8bd 1006 	ldrh.w	r1, [sp, #6]
   81fee:	4b16      	ldr	r3, [pc, #88]	; (82048 <xQueueGenericSend+0x118>)
   81ff0:	4798      	blx	r3
   81ff2:	4620      	mov	r0, r4
   81ff4:	4b15      	ldr	r3, [pc, #84]	; (8204c <xQueueGenericSend+0x11c>)
   81ff6:	4798      	blx	r3
   81ff8:	4b15      	ldr	r3, [pc, #84]	; (82050 <xQueueGenericSend+0x120>)
   81ffa:	4798      	blx	r3
   81ffc:	2800      	cmp	r0, #0
   81ffe:	d1af      	bne.n	81f60 <xQueueGenericSend+0x30>
   82000:	4b0d      	ldr	r3, [pc, #52]	; (82038 <xQueueGenericSend+0x108>)
   82002:	4798      	blx	r3
   82004:	e7ac      	b.n	81f60 <xQueueGenericSend+0x30>
   82006:	4620      	mov	r0, r4
   82008:	4b10      	ldr	r3, [pc, #64]	; (8204c <xQueueGenericSend+0x11c>)
   8200a:	4798      	blx	r3
   8200c:	4b10      	ldr	r3, [pc, #64]	; (82050 <xQueueGenericSend+0x120>)
   8200e:	4798      	blx	r3
   82010:	e7a6      	b.n	81f60 <xQueueGenericSend+0x30>
   82012:	4620      	mov	r0, r4
   82014:	4b0d      	ldr	r3, [pc, #52]	; (8204c <xQueueGenericSend+0x11c>)
   82016:	4798      	blx	r3
   82018:	4b0d      	ldr	r3, [pc, #52]	; (82050 <xQueueGenericSend+0x120>)
   8201a:	4798      	blx	r3
   8201c:	2000      	movs	r0, #0
   8201e:	b005      	add	sp, #20
   82020:	e8bd 8ff0 	ldmia.w	sp!, {r4, r5, r6, r7, r8, r9, sl, fp, pc}
   82024:	00081af1 	.word	0x00081af1
   82028:	00081b01 	.word	0x00081b01
   8202c:	00081b21 	.word	0x00081b21
   82030:	00081d45 	.word	0x00081d45
   82034:	00082a6d 	.word	0x00082a6d
   82038:	00081ae1 	.word	0x00081ae1
   8203c:	00082af1 	.word	0x00082af1
   82040:	00082565 	.word	0x00082565
   82044:	00082b19 	.word	0x00082b19
   82048:	000829c1 	.word	0x000829c1
   8204c:	00081dd1 	.word	0x00081dd1
   82050:	000826c1 	.word	0x000826c1

00082054 <xQueueGenericSendFromISR>:
   82054:	e92d 41f0 	stmdb	sp!, {r4, r5, r6, r7, r8, lr}
   82058:	460e      	mov	r6, r1
   8205a:	4615      	mov	r5, r2
   8205c:	4698      	mov	r8, r3
   8205e:	4604      	mov	r4, r0
   82060:	b918      	cbnz	r0, 8206a <xQueueGenericSendFromISR+0x16>
   82062:	4b1c      	ldr	r3, [pc, #112]	; (820d4 <xQueueGenericSendFromISR+0x80>)
   82064:	4798      	blx	r3
   82066:	bf00      	nop
   82068:	e7fd      	b.n	82066 <xQueueGenericSendFromISR+0x12>
   8206a:	b929      	cbnz	r1, 82078 <xQueueGenericSendFromISR+0x24>
   8206c:	6c03      	ldr	r3, [r0, #64]	; 0x40
   8206e:	b11b      	cbz	r3, 82078 <xQueueGenericSendFromISR+0x24>
   82070:	4b18      	ldr	r3, [pc, #96]	; (820d4 <xQueueGenericSendFromISR+0x80>)
   82072:	4798      	blx	r3
   82074:	bf00      	nop
   82076:	e7fd      	b.n	82074 <xQueueGenericSendFromISR+0x20>
   82078:	4b16      	ldr	r3, [pc, #88]	; (820d4 <xQueueGenericSendFromISR+0x80>)
   8207a:	4798      	blx	r3
   8207c:	4607      	mov	r7, r0
   8207e:	6ba2      	ldr	r2, [r4, #56]	; 0x38
   82080:	6be3      	ldr	r3, [r4, #60]	; 0x3c
   82082:	429a      	cmp	r2, r3
   82084:	d218      	bcs.n	820b8 <xQueueGenericSendFromISR+0x64>
   82086:	4620      	mov	r0, r4
   82088:	4631      	mov	r1, r6
   8208a:	4642      	mov	r2, r8
   8208c:	4b12      	ldr	r3, [pc, #72]	; (820d8 <xQueueGenericSendFromISR+0x84>)
   8208e:	4798      	blx	r3
   82090:	6ca3      	ldr	r3, [r4, #72]	; 0x48
   82092:	f1b3 3fff 	cmp.w	r3, #4294967295
   82096:	d10a      	bne.n	820ae <xQueueGenericSendFromISR+0x5a>
   82098:	6a63      	ldr	r3, [r4, #36]	; 0x24
   8209a:	b17b      	cbz	r3, 820bc <xQueueGenericSendFromISR+0x68>
   8209c:	f104 0024 	add.w	r0, r4, #36	; 0x24
   820a0:	4b0e      	ldr	r3, [pc, #56]	; (820dc <xQueueGenericSendFromISR+0x88>)
   820a2:	4798      	blx	r3
   820a4:	b160      	cbz	r0, 820c0 <xQueueGenericSendFromISR+0x6c>
   820a6:	b16d      	cbz	r5, 820c4 <xQueueGenericSendFromISR+0x70>
   820a8:	2401      	movs	r4, #1
   820aa:	602c      	str	r4, [r5, #0]
   820ac:	e00b      	b.n	820c6 <xQueueGenericSendFromISR+0x72>
   820ae:	6ca3      	ldr	r3, [r4, #72]	; 0x48
   820b0:	3301      	adds	r3, #1
   820b2:	64a3      	str	r3, [r4, #72]	; 0x48
   820b4:	2401      	movs	r4, #1
   820b6:	e006      	b.n	820c6 <xQueueGenericSendFromISR+0x72>
   820b8:	2400      	movs	r4, #0
   820ba:	e004      	b.n	820c6 <xQueueGenericSendFromISR+0x72>
   820bc:	2401      	movs	r4, #1
   820be:	e002      	b.n	820c6 <xQueueGenericSendFromISR+0x72>
   820c0:	2401      	movs	r4, #1
   820c2:	e000      	b.n	820c6 <xQueueGenericSendFromISR+0x72>
   820c4:	2401      	movs	r4, #1
   820c6:	4638      	mov	r0, r7
   820c8:	4b05      	ldr	r3, [pc, #20]	; (820e0 <xQueueGenericSendFromISR+0x8c>)
   820ca:	4798      	blx	r3
   820cc:	4620      	mov	r0, r4
   820ce:	e8bd 81f0 	ldmia.w	sp!, {r4, r5, r6, r7, r8, pc}
   820d2:	bf00      	nop
   820d4:	00081af1 	.word	0x00081af1
   820d8:	00081d45 	.word	0x00081d45
   820dc:	00082a6d 	.word	0x00082a6d
   820e0:	00081b19 	.word	0x00081b19

000820e4 <xQueueGenericReceive>:
   820e4:	e92d 4ff0 	stmdb	sp!, {r4, r5, r6, r7, r8, r9, sl, fp, lr}
   820e8:	b085      	sub	sp, #20
   820ea:	4689      	mov	r9, r1
   820ec:	469a      	mov	sl, r3
   820ee:	f8ad 2006 	strh.w	r2, [sp, #6]
   820f2:	4604      	mov	r4, r0
   820f4:	b918      	cbnz	r0, 820fe <xQueueGenericReceive+0x1a>
   820f6:	4b46      	ldr	r3, [pc, #280]	; (82210 <xQueueGenericReceive+0x12c>)
   820f8:	4798      	blx	r3
   820fa:	bf00      	nop
   820fc:	e7fd      	b.n	820fa <xQueueGenericReceive+0x16>
   820fe:	b909      	cbnz	r1, 82104 <xQueueGenericReceive+0x20>
   82100:	6c03      	ldr	r3, [r0, #64]	; 0x40
   82102:	b92b      	cbnz	r3, 82110 <xQueueGenericReceive+0x2c>
   82104:	2700      	movs	r7, #0
   82106:	4e43      	ldr	r6, [pc, #268]	; (82214 <xQueueGenericReceive+0x130>)
   82108:	f8df b138 	ldr.w	fp, [pc, #312]	; 82244 <xQueueGenericReceive+0x160>
   8210c:	4d42      	ldr	r5, [pc, #264]	; (82218 <xQueueGenericReceive+0x134>)
   8210e:	e003      	b.n	82118 <xQueueGenericReceive+0x34>
   82110:	4b3f      	ldr	r3, [pc, #252]	; (82210 <xQueueGenericReceive+0x12c>)
   82112:	4798      	blx	r3
   82114:	bf00      	nop
   82116:	e7fd      	b.n	82114 <xQueueGenericReceive+0x30>
   82118:	47b0      	blx	r6
   8211a:	6ba3      	ldr	r3, [r4, #56]	; 0x38
   8211c:	2b00      	cmp	r3, #0
   8211e:	d028      	beq.n	82172 <xQueueGenericReceive+0x8e>
   82120:	68e5      	ldr	r5, [r4, #12]
   82122:	4620      	mov	r0, r4
   82124:	4649      	mov	r1, r9
   82126:	4b3d      	ldr	r3, [pc, #244]	; (8221c <xQueueGenericReceive+0x138>)
   82128:	4798      	blx	r3
   8212a:	f1ba 0f00 	cmp.w	sl, #0
   8212e:	d112      	bne.n	82156 <xQueueGenericReceive+0x72>
   82130:	6ba3      	ldr	r3, [r4, #56]	; 0x38
   82132:	3b01      	subs	r3, #1
   82134:	63a3      	str	r3, [r4, #56]	; 0x38
   82136:	6823      	ldr	r3, [r4, #0]
   82138:	b913      	cbnz	r3, 82140 <xQueueGenericReceive+0x5c>
   8213a:	4b39      	ldr	r3, [pc, #228]	; (82220 <xQueueGenericReceive+0x13c>)
   8213c:	4798      	blx	r3
   8213e:	6060      	str	r0, [r4, #4]
   82140:	6923      	ldr	r3, [r4, #16]
   82142:	b193      	cbz	r3, 8216a <xQueueGenericReceive+0x86>
   82144:	f104 0010 	add.w	r0, r4, #16
   82148:	4b36      	ldr	r3, [pc, #216]	; (82224 <xQueueGenericReceive+0x140>)
   8214a:	4798      	blx	r3
   8214c:	2801      	cmp	r0, #1
   8214e:	d10c      	bne.n	8216a <xQueueGenericReceive+0x86>
   82150:	4b35      	ldr	r3, [pc, #212]	; (82228 <xQueueGenericReceive+0x144>)
   82152:	4798      	blx	r3
   82154:	e009      	b.n	8216a <xQueueGenericReceive+0x86>
   82156:	60e5      	str	r5, [r4, #12]
   82158:	6a63      	ldr	r3, [r4, #36]	; 0x24
   8215a:	b133      	cbz	r3, 8216a <xQueueGenericReceive+0x86>
   8215c:	f104 0024 	add.w	r0, r4, #36	; 0x24
   82160:	4b30      	ldr	r3, [pc, #192]	; (82224 <xQueueGenericReceive+0x140>)
   82162:	4798      	blx	r3
   82164:	b108      	cbz	r0, 8216a <xQueueGenericReceive+0x86>
   82166:	4b30      	ldr	r3, [pc, #192]	; (82228 <xQueueGenericReceive+0x144>)
   82168:	4798      	blx	r3
   8216a:	4b2b      	ldr	r3, [pc, #172]	; (82218 <xQueueGenericReceive+0x134>)
   8216c:	4798      	blx	r3
   8216e:	2001      	movs	r0, #1
   82170:	e04b      	b.n	8220a <xQueueGenericReceive+0x126>
   82172:	f8bd 3006 	ldrh.w	r3, [sp, #6]
   82176:	b91b      	cbnz	r3, 82180 <xQueueGenericReceive+0x9c>
   82178:	4b27      	ldr	r3, [pc, #156]	; (82218 <xQueueGenericReceive+0x134>)
   8217a:	4798      	blx	r3
   8217c:	2000      	movs	r0, #0
   8217e:	e044      	b.n	8220a <xQueueGenericReceive+0x126>
   82180:	b917      	cbnz	r7, 82188 <xQueueGenericReceive+0xa4>
   82182:	a802      	add	r0, sp, #8
   82184:	47d8      	blx	fp
   82186:	2701      	movs	r7, #1
   82188:	47a8      	blx	r5
   8218a:	4b28      	ldr	r3, [pc, #160]	; (8222c <xQueueGenericReceive+0x148>)
   8218c:	4798      	blx	r3
   8218e:	47b0      	blx	r6
   82190:	6c63      	ldr	r3, [r4, #68]	; 0x44
   82192:	f1b3 3fff 	cmp.w	r3, #4294967295
   82196:	bf04      	itt	eq
   82198:	2300      	moveq	r3, #0
   8219a:	6463      	streq	r3, [r4, #68]	; 0x44
   8219c:	6ca3      	ldr	r3, [r4, #72]	; 0x48
   8219e:	f1b3 3fff 	cmp.w	r3, #4294967295
   821a2:	bf04      	itt	eq
   821a4:	2300      	moveq	r3, #0
   821a6:	64a3      	streq	r3, [r4, #72]	; 0x48
   821a8:	47a8      	blx	r5
   821aa:	a802      	add	r0, sp, #8
   821ac:	f10d 0106 	add.w	r1, sp, #6
   821b0:	4b1f      	ldr	r3, [pc, #124]	; (82230 <xQueueGenericReceive+0x14c>)
   821b2:	4798      	blx	r3
   821b4:	bb18      	cbnz	r0, 821fe <xQueueGenericReceive+0x11a>
   821b6:	47b0      	blx	r6
   821b8:	f8d4 8038 	ldr.w	r8, [r4, #56]	; 0x38
   821bc:	47a8      	blx	r5
   821be:	f1b8 0f00 	cmp.w	r8, #0
   821c2:	d116      	bne.n	821f2 <xQueueGenericReceive+0x10e>
   821c4:	6823      	ldr	r3, [r4, #0]
   821c6:	b923      	cbnz	r3, 821d2 <xQueueGenericReceive+0xee>
   821c8:	47b0      	blx	r6
   821ca:	6860      	ldr	r0, [r4, #4]
   821cc:	4b19      	ldr	r3, [pc, #100]	; (82234 <xQueueGenericReceive+0x150>)
   821ce:	4798      	blx	r3
   821d0:	47a8      	blx	r5
   821d2:	f104 0024 	add.w	r0, r4, #36	; 0x24
   821d6:	f8bd 1006 	ldrh.w	r1, [sp, #6]
   821da:	4b17      	ldr	r3, [pc, #92]	; (82238 <xQueueGenericReceive+0x154>)
   821dc:	4798      	blx	r3
   821de:	4620      	mov	r0, r4
   821e0:	4b16      	ldr	r3, [pc, #88]	; (8223c <xQueueGenericReceive+0x158>)
   821e2:	4798      	blx	r3
   821e4:	4b16      	ldr	r3, [pc, #88]	; (82240 <xQueueGenericReceive+0x15c>)
   821e6:	4798      	blx	r3
   821e8:	2800      	cmp	r0, #0
   821ea:	d195      	bne.n	82118 <xQueueGenericReceive+0x34>
   821ec:	4b0e      	ldr	r3, [pc, #56]	; (82228 <xQueueGenericReceive+0x144>)
   821ee:	4798      	blx	r3
   821f0:	e792      	b.n	82118 <xQueueGenericReceive+0x34>
   821f2:	4620      	mov	r0, r4
   821f4:	4b11      	ldr	r3, [pc, #68]	; (8223c <xQueueGenericReceive+0x158>)
   821f6:	4798      	blx	r3
   821f8:	4b11      	ldr	r3, [pc, #68]	; (82240 <xQueueGenericReceive+0x15c>)
   821fa:	4798      	blx	r3
   821fc:	e78c      	b.n	82118 <xQueueGenericReceive+0x34>
   821fe:	4620      	mov	r0, r4
   82200:	4b0e      	ldr	r3, [pc, #56]	; (8223c <xQueueGenericReceive+0x158>)
   82202:	4798      	blx	r3
   82204:	4b0e      	ldr	r3, [pc, #56]	; (82240 <xQueueGenericReceive+0x15c>)
   82206:	4798      	blx	r3
   82208:	2000      	movs	r0, #0
   8220a:	b005      	add	sp, #20
   8220c:	e8bd 8ff0 	ldmia.w	sp!, {r4, r5, r6, r7, r8, r9, sl, fp, pc}
   82210:	00081af1 	.word	0x00081af1
   82214:	00081b01 	.word	0x00081b01
   82218:	00081b21 	.word	0x00081b21
   8221c:	00081da9 	.word	0x00081da9
   82220:	00082bb1 	.word	0x00082bb1
   82224:	00082a6d 	.word	0x00082a6d
   82228:	00081ae1 	.word	0x00081ae1
   8222c:	00082565 	.word	0x00082565
   82230:	00082b19 	.word	0x00082b19
   82234:	00082bdd 	.word	0x00082bdd
   82238:	000829c1 	.word	0x000829c1
   8223c:	00081dd1 	.word	0x00081dd1
   82240:	000826c1 	.word	0x000826c1
   82244:	00082af1 	.word	0x00082af1

00082248 <vQueueWaitForMessageRestricted>:
   82248:	b538      	push	{r3, r4, r5, lr}
   8224a:	4604      	mov	r4, r0
   8224c:	460d      	mov	r5, r1
   8224e:	4b0d      	ldr	r3, [pc, #52]	; (82284 <vQueueWaitForMessageRestricted+0x3c>)
   82250:	4798      	blx	r3
   82252:	6c63      	ldr	r3, [r4, #68]	; 0x44
   82254:	f1b3 3fff 	cmp.w	r3, #4294967295
   82258:	bf04      	itt	eq
   8225a:	2300      	moveq	r3, #0
   8225c:	6463      	streq	r3, [r4, #68]	; 0x44
   8225e:	6ca3      	ldr	r3, [r4, #72]	; 0x48
   82260:	f1b3 3fff 	cmp.w	r3, #4294967295
   82264:	bf04      	itt	eq
   82266:	2300      	moveq	r3, #0
   82268:	64a3      	streq	r3, [r4, #72]	; 0x48
   8226a:	4b07      	ldr	r3, [pc, #28]	; (82288 <vQueueWaitForMessageRestricted+0x40>)
   8226c:	4798      	blx	r3
   8226e:	6ba3      	ldr	r3, [r4, #56]	; 0x38
   82270:	b923      	cbnz	r3, 8227c <vQueueWaitForMessageRestricted+0x34>
   82272:	f104 0024 	add.w	r0, r4, #36	; 0x24
   82276:	4629      	mov	r1, r5
   82278:	4b04      	ldr	r3, [pc, #16]	; (8228c <vQueueWaitForMessageRestricted+0x44>)
   8227a:	4798      	blx	r3
   8227c:	4620      	mov	r0, r4
   8227e:	4b04      	ldr	r3, [pc, #16]	; (82290 <vQueueWaitForMessageRestricted+0x48>)
   82280:	4798      	blx	r3
   82282:	bd38      	pop	{r3, r4, r5, pc}
   82284:	00081b01 	.word	0x00081b01
   82288:	00081b21 	.word	0x00081b21
   8228c:	00082a25 	.word	0x00082a25
   82290:	00081dd1 	.word	0x00081dd1

00082294 <prvAddCurrentTaskToDelayedList>:
   82294:	b510      	push	{r4, lr}
   82296:	4604      	mov	r4, r0
   82298:	4b0f      	ldr	r3, [pc, #60]	; (822d8 <prvAddCurrentTaskToDelayedList+0x44>)
   8229a:	681b      	ldr	r3, [r3, #0]
   8229c:	8098      	strh	r0, [r3, #4]
   8229e:	4b0f      	ldr	r3, [pc, #60]	; (822dc <prvAddCurrentTaskToDelayedList+0x48>)
   822a0:	881b      	ldrh	r3, [r3, #0]
   822a2:	b29b      	uxth	r3, r3
   822a4:	4298      	cmp	r0, r3
   822a6:	d207      	bcs.n	822b8 <prvAddCurrentTaskToDelayedList+0x24>
   822a8:	4b0d      	ldr	r3, [pc, #52]	; (822e0 <prvAddCurrentTaskToDelayedList+0x4c>)
   822aa:	6818      	ldr	r0, [r3, #0]
   822ac:	4b0a      	ldr	r3, [pc, #40]	; (822d8 <prvAddCurrentTaskToDelayedList+0x44>)
   822ae:	6819      	ldr	r1, [r3, #0]
   822b0:	3104      	adds	r1, #4
   822b2:	4b0c      	ldr	r3, [pc, #48]	; (822e4 <prvAddCurrentTaskToDelayedList+0x50>)
   822b4:	4798      	blx	r3
   822b6:	bd10      	pop	{r4, pc}
   822b8:	4b0b      	ldr	r3, [pc, #44]	; (822e8 <prvAddCurrentTaskToDelayedList+0x54>)
   822ba:	6818      	ldr	r0, [r3, #0]
   822bc:	4b06      	ldr	r3, [pc, #24]	; (822d8 <prvAddCurrentTaskToDelayedList+0x44>)
   822be:	6819      	ldr	r1, [r3, #0]
   822c0:	3104      	adds	r1, #4
   822c2:	4b08      	ldr	r3, [pc, #32]	; (822e4 <prvAddCurrentTaskToDelayedList+0x50>)
   822c4:	4798      	blx	r3
   822c6:	4b09      	ldr	r3, [pc, #36]	; (822ec <prvAddCurrentTaskToDelayedList+0x58>)
   822c8:	881b      	ldrh	r3, [r3, #0]
   822ca:	b29b      	uxth	r3, r3
   822cc:	429c      	cmp	r4, r3
   822ce:	bf3c      	itt	cc
   822d0:	4b06      	ldrcc	r3, [pc, #24]	; (822ec <prvAddCurrentTaskToDelayedList+0x58>)
   822d2:	801c      	strhcc	r4, [r3, #0]
   822d4:	bd10      	pop	{r4, pc}
   822d6:	bf00      	nop
   822d8:	20078c78 	.word	0x20078c78
   822dc:	20078c94 	.word	0x20078c94
   822e0:	20078c98 	.word	0x20078c98
   822e4:	00081a25 	.word	0x00081a25
   822e8:	20078b74 	.word	0x20078b74
   822ec:	200701a0 	.word	0x200701a0

000822f0 <xTaskGenericCreate>:
   822f0:	e92d 4ff8 	stmdb	sp!, {r3, r4, r5, r6, r7, r8, r9, sl, fp, lr}
   822f4:	460e      	mov	r6, r1
   822f6:	4617      	mov	r7, r2
   822f8:	469a      	mov	sl, r3
   822fa:	9d0a      	ldr	r5, [sp, #40]	; 0x28
   822fc:	f8dd 8030 	ldr.w	r8, [sp, #48]	; 0x30
   82300:	4681      	mov	r9, r0
   82302:	b918      	cbnz	r0, 8230c <xTaskGenericCreate+0x1c>
   82304:	4b62      	ldr	r3, [pc, #392]	; (82490 <xTaskGenericCreate+0x1a0>)
   82306:	4798      	blx	r3
   82308:	bf00      	nop
   8230a:	e7fd      	b.n	82308 <xTaskGenericCreate+0x18>
   8230c:	2d09      	cmp	r5, #9
   8230e:	d903      	bls.n	82318 <xTaskGenericCreate+0x28>
   82310:	4b5f      	ldr	r3, [pc, #380]	; (82490 <xTaskGenericCreate+0x1a0>)
   82312:	4798      	blx	r3
   82314:	bf00      	nop
   82316:	e7fd      	b.n	82314 <xTaskGenericCreate+0x24>
   82318:	2050      	movs	r0, #80	; 0x50
   8231a:	4b5e      	ldr	r3, [pc, #376]	; (82494 <xTaskGenericCreate+0x1a4>)
   8231c:	4798      	blx	r3
   8231e:	4604      	mov	r4, r0
   82320:	2800      	cmp	r0, #0
   82322:	f000 80b1 	beq.w	82488 <xTaskGenericCreate+0x198>
   82326:	f1b8 0f00 	cmp.w	r8, #0
   8232a:	f040 80a9 	bne.w	82480 <xTaskGenericCreate+0x190>
   8232e:	00b8      	lsls	r0, r7, #2
   82330:	4b58      	ldr	r3, [pc, #352]	; (82494 <xTaskGenericCreate+0x1a4>)
   82332:	4798      	blx	r3
   82334:	6320      	str	r0, [r4, #48]	; 0x30
   82336:	b918      	cbnz	r0, 82340 <xTaskGenericCreate+0x50>
   82338:	4620      	mov	r0, r4
   8233a:	4b57      	ldr	r3, [pc, #348]	; (82498 <xTaskGenericCreate+0x1a8>)
   8233c:	4798      	blx	r3
   8233e:	e0a3      	b.n	82488 <xTaskGenericCreate+0x198>
   82340:	21a5      	movs	r1, #165	; 0xa5
   82342:	00ba      	lsls	r2, r7, #2
   82344:	4b55      	ldr	r3, [pc, #340]	; (8249c <xTaskGenericCreate+0x1ac>)
   82346:	4798      	blx	r3
   82348:	f107 4780 	add.w	r7, r7, #1073741824	; 0x40000000
   8234c:	3f01      	subs	r7, #1
   8234e:	6b23      	ldr	r3, [r4, #48]	; 0x30
   82350:	eb03 0387 	add.w	r3, r3, r7, lsl #2
   82354:	f023 0b07 	bic.w	fp, r3, #7
   82358:	f104 0034 	add.w	r0, r4, #52	; 0x34
   8235c:	4631      	mov	r1, r6
   8235e:	2210      	movs	r2, #16
   82360:	4b4f      	ldr	r3, [pc, #316]	; (824a0 <xTaskGenericCreate+0x1b0>)
   82362:	4798      	blx	r3
   82364:	2300      	movs	r3, #0
   82366:	f884 3043 	strb.w	r3, [r4, #67]	; 0x43
   8236a:	2d09      	cmp	r5, #9
   8236c:	bf34      	ite	cc
   8236e:	462e      	movcc	r6, r5
   82370:	2609      	movcs	r6, #9
   82372:	62e6      	str	r6, [r4, #44]	; 0x2c
   82374:	64e6      	str	r6, [r4, #76]	; 0x4c
   82376:	1d27      	adds	r7, r4, #4
   82378:	4638      	mov	r0, r7
   8237a:	f8df 8170 	ldr.w	r8, [pc, #368]	; 824ec <xTaskGenericCreate+0x1fc>
   8237e:	47c0      	blx	r8
   82380:	f104 0018 	add.w	r0, r4, #24
   82384:	47c0      	blx	r8
   82386:	6124      	str	r4, [r4, #16]
   82388:	f1c6 060a 	rsb	r6, r6, #10
   8238c:	8326      	strh	r6, [r4, #24]
   8238e:	6264      	str	r4, [r4, #36]	; 0x24
   82390:	4658      	mov	r0, fp
   82392:	4649      	mov	r1, r9
   82394:	4652      	mov	r2, sl
   82396:	4b43      	ldr	r3, [pc, #268]	; (824a4 <xTaskGenericCreate+0x1b4>)
   82398:	4798      	blx	r3
   8239a:	6020      	str	r0, [r4, #0]
   8239c:	f010 0f07 	tst.w	r0, #7
   823a0:	d003      	beq.n	823aa <xTaskGenericCreate+0xba>
   823a2:	4b3b      	ldr	r3, [pc, #236]	; (82490 <xTaskGenericCreate+0x1a0>)
   823a4:	4798      	blx	r3
   823a6:	bf00      	nop
   823a8:	e7fd      	b.n	823a6 <xTaskGenericCreate+0xb6>
   823aa:	9b0b      	ldr	r3, [sp, #44]	; 0x2c
   823ac:	b103      	cbz	r3, 823b0 <xTaskGenericCreate+0xc0>
   823ae:	601c      	str	r4, [r3, #0]
   823b0:	4b3d      	ldr	r3, [pc, #244]	; (824a8 <xTaskGenericCreate+0x1b8>)
   823b2:	4798      	blx	r3
   823b4:	4b3d      	ldr	r3, [pc, #244]	; (824ac <xTaskGenericCreate+0x1bc>)
   823b6:	681a      	ldr	r2, [r3, #0]
   823b8:	3201      	adds	r2, #1
   823ba:	601a      	str	r2, [r3, #0]
   823bc:	4b3c      	ldr	r3, [pc, #240]	; (824b0 <xTaskGenericCreate+0x1c0>)
   823be:	681b      	ldr	r3, [r3, #0]
   823c0:	bb2b      	cbnz	r3, 8240e <xTaskGenericCreate+0x11e>
   823c2:	4b3b      	ldr	r3, [pc, #236]	; (824b0 <xTaskGenericCreate+0x1c0>)
   823c4:	601c      	str	r4, [r3, #0]
   823c6:	4b39      	ldr	r3, [pc, #228]	; (824ac <xTaskGenericCreate+0x1bc>)
   823c8:	681b      	ldr	r3, [r3, #0]
   823ca:	2b01      	cmp	r3, #1
   823cc:	d129      	bne.n	82422 <xTaskGenericCreate+0x132>
   823ce:	4e39      	ldr	r6, [pc, #228]	; (824b4 <xTaskGenericCreate+0x1c4>)
   823d0:	f106 09c8 	add.w	r9, r6, #200	; 0xc8
   823d4:	f8df 80e0 	ldr.w	r8, [pc, #224]	; 824b8 <xTaskGenericCreate+0x1c8>
   823d8:	4630      	mov	r0, r6
   823da:	47c0      	blx	r8
   823dc:	3614      	adds	r6, #20
   823de:	454e      	cmp	r6, r9
   823e0:	d1fa      	bne.n	823d8 <xTaskGenericCreate+0xe8>
   823e2:	f8df 910c 	ldr.w	r9, [pc, #268]	; 824f0 <xTaskGenericCreate+0x200>
   823e6:	4648      	mov	r0, r9
   823e8:	4e33      	ldr	r6, [pc, #204]	; (824b8 <xTaskGenericCreate+0x1c8>)
   823ea:	47b0      	blx	r6
   823ec:	f8df 8104 	ldr.w	r8, [pc, #260]	; 824f4 <xTaskGenericCreate+0x204>
   823f0:	4640      	mov	r0, r8
   823f2:	47b0      	blx	r6
   823f4:	4831      	ldr	r0, [pc, #196]	; (824bc <xTaskGenericCreate+0x1cc>)
   823f6:	47b0      	blx	r6
   823f8:	4831      	ldr	r0, [pc, #196]	; (824c0 <xTaskGenericCreate+0x1d0>)
   823fa:	47b0      	blx	r6
   823fc:	4831      	ldr	r0, [pc, #196]	; (824c4 <xTaskGenericCreate+0x1d4>)
   823fe:	47b0      	blx	r6
   82400:	4b31      	ldr	r3, [pc, #196]	; (824c8 <xTaskGenericCreate+0x1d8>)
   82402:	f8c3 9000 	str.w	r9, [r3]
   82406:	4b31      	ldr	r3, [pc, #196]	; (824cc <xTaskGenericCreate+0x1dc>)
   82408:	f8c3 8000 	str.w	r8, [r3]
   8240c:	e009      	b.n	82422 <xTaskGenericCreate+0x132>
   8240e:	4b30      	ldr	r3, [pc, #192]	; (824d0 <xTaskGenericCreate+0x1e0>)
   82410:	681b      	ldr	r3, [r3, #0]
   82412:	b933      	cbnz	r3, 82422 <xTaskGenericCreate+0x132>
   82414:	4b26      	ldr	r3, [pc, #152]	; (824b0 <xTaskGenericCreate+0x1c0>)
   82416:	681b      	ldr	r3, [r3, #0]
   82418:	6adb      	ldr	r3, [r3, #44]	; 0x2c
   8241a:	429d      	cmp	r5, r3
   8241c:	bf24      	itt	cs
   8241e:	4b24      	ldrcs	r3, [pc, #144]	; (824b0 <xTaskGenericCreate+0x1c0>)
   82420:	601c      	strcs	r4, [r3, #0]
   82422:	6ae3      	ldr	r3, [r4, #44]	; 0x2c
   82424:	4a2b      	ldr	r2, [pc, #172]	; (824d4 <xTaskGenericCreate+0x1e4>)
   82426:	6812      	ldr	r2, [r2, #0]
   82428:	4293      	cmp	r3, r2
   8242a:	bf84      	itt	hi
   8242c:	4a29      	ldrhi	r2, [pc, #164]	; (824d4 <xTaskGenericCreate+0x1e4>)
   8242e:	6013      	strhi	r3, [r2, #0]
   82430:	4a29      	ldr	r2, [pc, #164]	; (824d8 <xTaskGenericCreate+0x1e8>)
   82432:	6811      	ldr	r1, [r2, #0]
   82434:	6461      	str	r1, [r4, #68]	; 0x44
   82436:	3101      	adds	r1, #1
   82438:	6011      	str	r1, [r2, #0]
   8243a:	4a28      	ldr	r2, [pc, #160]	; (824dc <xTaskGenericCreate+0x1ec>)
   8243c:	6812      	ldr	r2, [r2, #0]
   8243e:	4293      	cmp	r3, r2
   82440:	bf84      	itt	hi
   82442:	4a26      	ldrhi	r2, [pc, #152]	; (824dc <xTaskGenericCreate+0x1ec>)
   82444:	6013      	strhi	r3, [r2, #0]
   82446:	eb03 0383 	add.w	r3, r3, r3, lsl #2
   8244a:	481a      	ldr	r0, [pc, #104]	; (824b4 <xTaskGenericCreate+0x1c4>)
   8244c:	eb00 0083 	add.w	r0, r0, r3, lsl #2
   82450:	4639      	mov	r1, r7
   82452:	4b23      	ldr	r3, [pc, #140]	; (824e0 <xTaskGenericCreate+0x1f0>)
   82454:	4798      	blx	r3
   82456:	4b23      	ldr	r3, [pc, #140]	; (824e4 <xTaskGenericCreate+0x1f4>)
   82458:	4798      	blx	r3
   8245a:	4b1d      	ldr	r3, [pc, #116]	; (824d0 <xTaskGenericCreate+0x1e0>)
   8245c:	681b      	ldr	r3, [r3, #0]
   8245e:	b14b      	cbz	r3, 82474 <xTaskGenericCreate+0x184>
   82460:	4b13      	ldr	r3, [pc, #76]	; (824b0 <xTaskGenericCreate+0x1c0>)
   82462:	681b      	ldr	r3, [r3, #0]
   82464:	6adb      	ldr	r3, [r3, #44]	; 0x2c
   82466:	429d      	cmp	r5, r3
   82468:	d907      	bls.n	8247a <xTaskGenericCreate+0x18a>
   8246a:	4b1f      	ldr	r3, [pc, #124]	; (824e8 <xTaskGenericCreate+0x1f8>)
   8246c:	4798      	blx	r3
   8246e:	2001      	movs	r0, #1
   82470:	e8bd 8ff8 	ldmia.w	sp!, {r3, r4, r5, r6, r7, r8, r9, sl, fp, pc}
   82474:	2001      	movs	r0, #1
   82476:	e8bd 8ff8 	ldmia.w	sp!, {r3, r4, r5, r6, r7, r8, r9, sl, fp, pc}
   8247a:	2001      	movs	r0, #1
   8247c:	e8bd 8ff8 	ldmia.w	sp!, {r3, r4, r5, r6, r7, r8, r9, sl, fp, pc}
   82480:	f8c0 8030 	str.w	r8, [r0, #48]	; 0x30
   82484:	4640      	mov	r0, r8
   82486:	e75b      	b.n	82340 <xTaskGenericCreate+0x50>
   82488:	f04f 30ff 	mov.w	r0, #4294967295
   8248c:	e8bd 8ff8 	ldmia.w	sp!, {r3, r4, r5, r6, r7, r8, r9, sl, fp, pc}
   82490:	00081af1 	.word	0x00081af1
   82494:	00081c4d 	.word	0x00081c4d
   82498:	00081d11 	.word	0x00081d11
   8249c:	00084a6d 	.word	0x00084a6d
   824a0:	00084cbd 	.word	0x00084cbd
   824a4:	00081aa5 	.word	0x00081aa5
   824a8:	00081b01 	.word	0x00081b01
   824ac:	20078cb8 	.word	0x20078cb8
   824b0:	20078c78 	.word	0x20078c78
   824b4:	20078bac 	.word	0x20078bac
   824b8:	000819e9 	.word	0x000819e9
   824bc:	20078c7c 	.word	0x20078c7c
   824c0:	20078b80 	.word	0x20078b80
   824c4:	20078b60 	.word	0x20078b60
   824c8:	20078b74 	.word	0x20078b74
   824cc:	20078c98 	.word	0x20078c98
   824d0:	20078b78 	.word	0x20078b78
   824d4:	20078cbc 	.word	0x20078cbc
   824d8:	20078c9c 	.word	0x20078c9c
   824dc:	20078ba8 	.word	0x20078ba8
   824e0:	00081a09 	.word	0x00081a09
   824e4:	00081b21 	.word	0x00081b21
   824e8:	00081ae1 	.word	0x00081ae1
   824ec:	00081a01 	.word	0x00081a01
   824f0:	20078ca0 	.word	0x20078ca0
   824f4:	20078b94 	.word	0x20078b94

000824f8 <vTaskStartScheduler>:
   824f8:	b510      	push	{r4, lr}
   824fa:	b084      	sub	sp, #16
   824fc:	2300      	movs	r3, #0
   824fe:	9300      	str	r3, [sp, #0]
   82500:	9301      	str	r3, [sp, #4]
   82502:	9302      	str	r3, [sp, #8]
   82504:	9303      	str	r3, [sp, #12]
   82506:	480f      	ldr	r0, [pc, #60]	; (82544 <vTaskStartScheduler+0x4c>)
   82508:	490f      	ldr	r1, [pc, #60]	; (82548 <vTaskStartScheduler+0x50>)
   8250a:	f44f 7280 	mov.w	r2, #256	; 0x100
   8250e:	4c0f      	ldr	r4, [pc, #60]	; (8254c <vTaskStartScheduler+0x54>)
   82510:	47a0      	blx	r4
   82512:	2801      	cmp	r0, #1
   82514:	d10e      	bne.n	82534 <vTaskStartScheduler+0x3c>
   82516:	4b0e      	ldr	r3, [pc, #56]	; (82550 <vTaskStartScheduler+0x58>)
   82518:	4798      	blx	r3
   8251a:	2801      	cmp	r0, #1
   8251c:	d10a      	bne.n	82534 <vTaskStartScheduler+0x3c>
   8251e:	4b0d      	ldr	r3, [pc, #52]	; (82554 <vTaskStartScheduler+0x5c>)
   82520:	4798      	blx	r3
   82522:	2201      	movs	r2, #1
   82524:	4b0c      	ldr	r3, [pc, #48]	; (82558 <vTaskStartScheduler+0x60>)
   82526:	601a      	str	r2, [r3, #0]
   82528:	2200      	movs	r2, #0
   8252a:	4b0c      	ldr	r3, [pc, #48]	; (8255c <vTaskStartScheduler+0x64>)
   8252c:	801a      	strh	r2, [r3, #0]
   8252e:	4b0c      	ldr	r3, [pc, #48]	; (82560 <vTaskStartScheduler+0x68>)
   82530:	4798      	blx	r3
   82532:	e004      	b.n	8253e <vTaskStartScheduler+0x46>
   82534:	b918      	cbnz	r0, 8253e <vTaskStartScheduler+0x46>
   82536:	4b07      	ldr	r3, [pc, #28]	; (82554 <vTaskStartScheduler+0x5c>)
   82538:	4798      	blx	r3
   8253a:	bf00      	nop
   8253c:	e7fd      	b.n	8253a <vTaskStartScheduler+0x42>
   8253e:	b004      	add	sp, #16
   82540:	bd10      	pop	{r4, pc}
   82542:	bf00      	nop
   82544:	000828ad 	.word	0x000828ad
   82548:	0008a918 	.word	0x0008a918
   8254c:	000822f1 	.word	0x000822f1
   82550:	00082d55 	.word	0x00082d55
   82554:	00081af1 	.word	0x00081af1
   82558:	20078b78 	.word	0x20078b78
   8255c:	20078c94 	.word	0x20078c94
   82560:	00081bbd 	.word	0x00081bbd

00082564 <vTaskSuspendAll>:
   82564:	4b02      	ldr	r3, [pc, #8]	; (82570 <vTaskSuspendAll+0xc>)
   82566:	681a      	ldr	r2, [r3, #0]
   82568:	3201      	adds	r2, #1
   8256a:	601a      	str	r2, [r3, #0]
   8256c:	4770      	bx	lr
   8256e:	bf00      	nop
   82570:	20078c74 	.word	0x20078c74

00082574 <xTaskGetTickCount>:
   82574:	b510      	push	{r4, lr}
   82576:	4b04      	ldr	r3, [pc, #16]	; (82588 <xTaskGetTickCount+0x14>)
   82578:	4798      	blx	r3
   8257a:	4b04      	ldr	r3, [pc, #16]	; (8258c <xTaskGetTickCount+0x18>)
   8257c:	881c      	ldrh	r4, [r3, #0]
   8257e:	b2a4      	uxth	r4, r4
   82580:	4b03      	ldr	r3, [pc, #12]	; (82590 <xTaskGetTickCount+0x1c>)
   82582:	4798      	blx	r3
   82584:	4620      	mov	r0, r4
   82586:	bd10      	pop	{r4, pc}
   82588:	00081b01 	.word	0x00081b01
   8258c:	20078c94 	.word	0x20078c94
   82590:	00081b21 	.word	0x00081b21

00082594 <vTaskIncrementTick>:
   82594:	e92d 41f0 	stmdb	sp!, {r4, r5, r6, r7, r8, lr}
   82598:	4b3d      	ldr	r3, [pc, #244]	; (82690 <vTaskIncrementTick+0xfc>)
   8259a:	681b      	ldr	r3, [r3, #0]
   8259c:	2b00      	cmp	r3, #0
   8259e:	d171      	bne.n	82684 <vTaskIncrementTick+0xf0>
   825a0:	4b3c      	ldr	r3, [pc, #240]	; (82694 <vTaskIncrementTick+0x100>)
   825a2:	881a      	ldrh	r2, [r3, #0]
   825a4:	3201      	adds	r2, #1
   825a6:	b292      	uxth	r2, r2
   825a8:	801a      	strh	r2, [r3, #0]
   825aa:	881b      	ldrh	r3, [r3, #0]
   825ac:	b29b      	uxth	r3, r3
   825ae:	bb03      	cbnz	r3, 825f2 <vTaskIncrementTick+0x5e>
   825b0:	4b39      	ldr	r3, [pc, #228]	; (82698 <vTaskIncrementTick+0x104>)
   825b2:	681b      	ldr	r3, [r3, #0]
   825b4:	681b      	ldr	r3, [r3, #0]
   825b6:	b11b      	cbz	r3, 825c0 <vTaskIncrementTick+0x2c>
   825b8:	4b38      	ldr	r3, [pc, #224]	; (8269c <vTaskIncrementTick+0x108>)
   825ba:	4798      	blx	r3
   825bc:	bf00      	nop
   825be:	e7fd      	b.n	825bc <vTaskIncrementTick+0x28>
   825c0:	4b35      	ldr	r3, [pc, #212]	; (82698 <vTaskIncrementTick+0x104>)
   825c2:	6819      	ldr	r1, [r3, #0]
   825c4:	4a36      	ldr	r2, [pc, #216]	; (826a0 <vTaskIncrementTick+0x10c>)
   825c6:	6810      	ldr	r0, [r2, #0]
   825c8:	6018      	str	r0, [r3, #0]
   825ca:	6011      	str	r1, [r2, #0]
   825cc:	4a35      	ldr	r2, [pc, #212]	; (826a4 <vTaskIncrementTick+0x110>)
   825ce:	6811      	ldr	r1, [r2, #0]
   825d0:	3101      	adds	r1, #1
   825d2:	6011      	str	r1, [r2, #0]
   825d4:	681b      	ldr	r3, [r3, #0]
   825d6:	681b      	ldr	r3, [r3, #0]
   825d8:	b923      	cbnz	r3, 825e4 <vTaskIncrementTick+0x50>
   825da:	f64f 72ff 	movw	r2, #65535	; 0xffff
   825de:	4b32      	ldr	r3, [pc, #200]	; (826a8 <vTaskIncrementTick+0x114>)
   825e0:	801a      	strh	r2, [r3, #0]
   825e2:	e006      	b.n	825f2 <vTaskIncrementTick+0x5e>
   825e4:	4b2c      	ldr	r3, [pc, #176]	; (82698 <vTaskIncrementTick+0x104>)
   825e6:	681b      	ldr	r3, [r3, #0]
   825e8:	68db      	ldr	r3, [r3, #12]
   825ea:	68db      	ldr	r3, [r3, #12]
   825ec:	889a      	ldrh	r2, [r3, #4]
   825ee:	4b2e      	ldr	r3, [pc, #184]	; (826a8 <vTaskIncrementTick+0x114>)
   825f0:	801a      	strh	r2, [r3, #0]
   825f2:	4b28      	ldr	r3, [pc, #160]	; (82694 <vTaskIncrementTick+0x100>)
   825f4:	881a      	ldrh	r2, [r3, #0]
   825f6:	b292      	uxth	r2, r2
   825f8:	4b2b      	ldr	r3, [pc, #172]	; (826a8 <vTaskIncrementTick+0x114>)
   825fa:	881b      	ldrh	r3, [r3, #0]
   825fc:	b29b      	uxth	r3, r3
   825fe:	429a      	cmp	r2, r3
   82600:	d344      	bcc.n	8268c <vTaskIncrementTick+0xf8>
   82602:	4b25      	ldr	r3, [pc, #148]	; (82698 <vTaskIncrementTick+0x104>)
   82604:	681b      	ldr	r3, [r3, #0]
   82606:	681b      	ldr	r3, [r3, #0]
   82608:	b153      	cbz	r3, 82620 <vTaskIncrementTick+0x8c>
   8260a:	4b23      	ldr	r3, [pc, #140]	; (82698 <vTaskIncrementTick+0x104>)
   8260c:	681b      	ldr	r3, [r3, #0]
   8260e:	68db      	ldr	r3, [r3, #12]
   82610:	68dc      	ldr	r4, [r3, #12]
   82612:	88a3      	ldrh	r3, [r4, #4]
   82614:	4a1f      	ldr	r2, [pc, #124]	; (82694 <vTaskIncrementTick+0x100>)
   82616:	8812      	ldrh	r2, [r2, #0]
   82618:	b292      	uxth	r2, r2
   8261a:	4293      	cmp	r3, r2
   8261c:	d914      	bls.n	82648 <vTaskIncrementTick+0xb4>
   8261e:	e00f      	b.n	82640 <vTaskIncrementTick+0xac>
   82620:	f64f 72ff 	movw	r2, #65535	; 0xffff
   82624:	4b20      	ldr	r3, [pc, #128]	; (826a8 <vTaskIncrementTick+0x114>)
   82626:	801a      	strh	r2, [r3, #0]
   82628:	e8bd 81f0 	ldmia.w	sp!, {r4, r5, r6, r7, r8, pc}
   8262c:	4b1a      	ldr	r3, [pc, #104]	; (82698 <vTaskIncrementTick+0x104>)
   8262e:	681b      	ldr	r3, [r3, #0]
   82630:	68db      	ldr	r3, [r3, #12]
   82632:	68dc      	ldr	r4, [r3, #12]
   82634:	88a3      	ldrh	r3, [r4, #4]
   82636:	4a17      	ldr	r2, [pc, #92]	; (82694 <vTaskIncrementTick+0x100>)
   82638:	8812      	ldrh	r2, [r2, #0]
   8263a:	b292      	uxth	r2, r2
   8263c:	4293      	cmp	r3, r2
   8263e:	d907      	bls.n	82650 <vTaskIncrementTick+0xbc>
   82640:	4a19      	ldr	r2, [pc, #100]	; (826a8 <vTaskIncrementTick+0x114>)
   82642:	8013      	strh	r3, [r2, #0]
   82644:	e8bd 81f0 	ldmia.w	sp!, {r4, r5, r6, r7, r8, pc}
   82648:	4e18      	ldr	r6, [pc, #96]	; (826ac <vTaskIncrementTick+0x118>)
   8264a:	4f19      	ldr	r7, [pc, #100]	; (826b0 <vTaskIncrementTick+0x11c>)
   8264c:	f8df 806c 	ldr.w	r8, [pc, #108]	; 826bc <vTaskIncrementTick+0x128>
   82650:	1d25      	adds	r5, r4, #4
   82652:	4628      	mov	r0, r5
   82654:	47b0      	blx	r6
   82656:	6aa3      	ldr	r3, [r4, #40]	; 0x28
   82658:	b113      	cbz	r3, 82660 <vTaskIncrementTick+0xcc>
   8265a:	f104 0018 	add.w	r0, r4, #24
   8265e:	47b0      	blx	r6
   82660:	6ae3      	ldr	r3, [r4, #44]	; 0x2c
   82662:	683a      	ldr	r2, [r7, #0]
   82664:	4293      	cmp	r3, r2
   82666:	bf88      	it	hi
   82668:	603b      	strhi	r3, [r7, #0]
   8266a:	eb03 0083 	add.w	r0, r3, r3, lsl #2
   8266e:	eb08 0080 	add.w	r0, r8, r0, lsl #2
   82672:	4629      	mov	r1, r5
   82674:	4b0f      	ldr	r3, [pc, #60]	; (826b4 <vTaskIncrementTick+0x120>)
   82676:	4798      	blx	r3
   82678:	4b07      	ldr	r3, [pc, #28]	; (82698 <vTaskIncrementTick+0x104>)
   8267a:	681b      	ldr	r3, [r3, #0]
   8267c:	681b      	ldr	r3, [r3, #0]
   8267e:	2b00      	cmp	r3, #0
   82680:	d1d4      	bne.n	8262c <vTaskIncrementTick+0x98>
   82682:	e7cd      	b.n	82620 <vTaskIncrementTick+0x8c>
   82684:	4b0c      	ldr	r3, [pc, #48]	; (826b8 <vTaskIncrementTick+0x124>)
   82686:	681a      	ldr	r2, [r3, #0]
   82688:	3201      	adds	r2, #1
   8268a:	601a      	str	r2, [r3, #0]
   8268c:	e8bd 81f0 	ldmia.w	sp!, {r4, r5, r6, r7, r8, pc}
   82690:	20078c74 	.word	0x20078c74
   82694:	20078c94 	.word	0x20078c94
   82698:	20078b74 	.word	0x20078b74
   8269c:	00081af1 	.word	0x00081af1
   826a0:	20078c98 	.word	0x20078c98
   826a4:	20078c90 	.word	0x20078c90
   826a8:	200701a0 	.word	0x200701a0
   826ac:	00081a69 	.word	0x00081a69
   826b0:	20078ba8 	.word	0x20078ba8
   826b4:	00081a09 	.word	0x00081a09
   826b8:	20078b5c 	.word	0x20078b5c
   826bc:	20078bac 	.word	0x20078bac

000826c0 <xTaskResumeAll>:
   826c0:	e92d 43f8 	stmdb	sp!, {r3, r4, r5, r6, r7, r8, r9, lr}
   826c4:	4b31      	ldr	r3, [pc, #196]	; (8278c <xTaskResumeAll+0xcc>)
   826c6:	681b      	ldr	r3, [r3, #0]
   826c8:	b91b      	cbnz	r3, 826d2 <xTaskResumeAll+0x12>
   826ca:	4b31      	ldr	r3, [pc, #196]	; (82790 <xTaskResumeAll+0xd0>)
   826cc:	4798      	blx	r3
   826ce:	bf00      	nop
   826d0:	e7fd      	b.n	826ce <xTaskResumeAll+0xe>
   826d2:	4b30      	ldr	r3, [pc, #192]	; (82794 <xTaskResumeAll+0xd4>)
   826d4:	4798      	blx	r3
   826d6:	4b2d      	ldr	r3, [pc, #180]	; (8278c <xTaskResumeAll+0xcc>)
   826d8:	681a      	ldr	r2, [r3, #0]
   826da:	3a01      	subs	r2, #1
   826dc:	601a      	str	r2, [r3, #0]
   826de:	681b      	ldr	r3, [r3, #0]
   826e0:	2b00      	cmp	r3, #0
   826e2:	d148      	bne.n	82776 <xTaskResumeAll+0xb6>
   826e4:	4b2c      	ldr	r3, [pc, #176]	; (82798 <xTaskResumeAll+0xd8>)
   826e6:	681b      	ldr	r3, [r3, #0]
   826e8:	2b00      	cmp	r3, #0
   826ea:	d046      	beq.n	8277a <xTaskResumeAll+0xba>
   826ec:	2500      	movs	r5, #0
   826ee:	f8df 80d4 	ldr.w	r8, [pc, #212]	; 827c4 <xTaskResumeAll+0x104>
   826f2:	4f2a      	ldr	r7, [pc, #168]	; (8279c <xTaskResumeAll+0xdc>)
   826f4:	4e2a      	ldr	r6, [pc, #168]	; (827a0 <xTaskResumeAll+0xe0>)
   826f6:	e01d      	b.n	82734 <xTaskResumeAll+0x74>
   826f8:	f8d8 300c 	ldr.w	r3, [r8, #12]
   826fc:	68dc      	ldr	r4, [r3, #12]
   826fe:	f104 0018 	add.w	r0, r4, #24
   82702:	47b8      	blx	r7
   82704:	f104 0904 	add.w	r9, r4, #4
   82708:	4648      	mov	r0, r9
   8270a:	47b8      	blx	r7
   8270c:	6ae3      	ldr	r3, [r4, #44]	; 0x2c
   8270e:	6832      	ldr	r2, [r6, #0]
   82710:	4293      	cmp	r3, r2
   82712:	bf88      	it	hi
   82714:	6033      	strhi	r3, [r6, #0]
   82716:	eb03 0383 	add.w	r3, r3, r3, lsl #2
   8271a:	4822      	ldr	r0, [pc, #136]	; (827a4 <xTaskResumeAll+0xe4>)
   8271c:	eb00 0083 	add.w	r0, r0, r3, lsl #2
   82720:	4649      	mov	r1, r9
   82722:	4b21      	ldr	r3, [pc, #132]	; (827a8 <xTaskResumeAll+0xe8>)
   82724:	4798      	blx	r3
   82726:	4b21      	ldr	r3, [pc, #132]	; (827ac <xTaskResumeAll+0xec>)
   82728:	681b      	ldr	r3, [r3, #0]
   8272a:	6ae2      	ldr	r2, [r4, #44]	; 0x2c
   8272c:	6adb      	ldr	r3, [r3, #44]	; 0x2c
   8272e:	429a      	cmp	r2, r3
   82730:	bf28      	it	cs
   82732:	2501      	movcs	r5, #1
   82734:	f8d8 3000 	ldr.w	r3, [r8]
   82738:	2b00      	cmp	r3, #0
   8273a:	d1dd      	bne.n	826f8 <xTaskResumeAll+0x38>
   8273c:	4b1c      	ldr	r3, [pc, #112]	; (827b0 <xTaskResumeAll+0xf0>)
   8273e:	681b      	ldr	r3, [r3, #0]
   82740:	b163      	cbz	r3, 8275c <xTaskResumeAll+0x9c>
   82742:	4b1b      	ldr	r3, [pc, #108]	; (827b0 <xTaskResumeAll+0xf0>)
   82744:	681b      	ldr	r3, [r3, #0]
   82746:	b17b      	cbz	r3, 82768 <xTaskResumeAll+0xa8>
   82748:	4d1a      	ldr	r5, [pc, #104]	; (827b4 <xTaskResumeAll+0xf4>)
   8274a:	4c19      	ldr	r4, [pc, #100]	; (827b0 <xTaskResumeAll+0xf0>)
   8274c:	47a8      	blx	r5
   8274e:	6823      	ldr	r3, [r4, #0]
   82750:	3b01      	subs	r3, #1
   82752:	6023      	str	r3, [r4, #0]
   82754:	6823      	ldr	r3, [r4, #0]
   82756:	2b00      	cmp	r3, #0
   82758:	d1f8      	bne.n	8274c <xTaskResumeAll+0x8c>
   8275a:	e005      	b.n	82768 <xTaskResumeAll+0xa8>
   8275c:	2d01      	cmp	r5, #1
   8275e:	d003      	beq.n	82768 <xTaskResumeAll+0xa8>
   82760:	4b15      	ldr	r3, [pc, #84]	; (827b8 <xTaskResumeAll+0xf8>)
   82762:	681b      	ldr	r3, [r3, #0]
   82764:	2b01      	cmp	r3, #1
   82766:	d10a      	bne.n	8277e <xTaskResumeAll+0xbe>
   82768:	2200      	movs	r2, #0
   8276a:	4b13      	ldr	r3, [pc, #76]	; (827b8 <xTaskResumeAll+0xf8>)
   8276c:	601a      	str	r2, [r3, #0]
   8276e:	4b13      	ldr	r3, [pc, #76]	; (827bc <xTaskResumeAll+0xfc>)
   82770:	4798      	blx	r3
   82772:	2401      	movs	r4, #1
   82774:	e004      	b.n	82780 <xTaskResumeAll+0xc0>
   82776:	2400      	movs	r4, #0
   82778:	e002      	b.n	82780 <xTaskResumeAll+0xc0>
   8277a:	2400      	movs	r4, #0
   8277c:	e000      	b.n	82780 <xTaskResumeAll+0xc0>
   8277e:	2400      	movs	r4, #0
   82780:	4b0f      	ldr	r3, [pc, #60]	; (827c0 <xTaskResumeAll+0x100>)
   82782:	4798      	blx	r3
   82784:	4620      	mov	r0, r4
   82786:	e8bd 83f8 	ldmia.w	sp!, {r3, r4, r5, r6, r7, r8, r9, pc}
   8278a:	bf00      	nop
   8278c:	20078c74 	.word	0x20078c74
   82790:	00081af1 	.word	0x00081af1
   82794:	00081b01 	.word	0x00081b01
   82798:	20078cb8 	.word	0x20078cb8
   8279c:	00081a69 	.word	0x00081a69
   827a0:	20078ba8 	.word	0x20078ba8
   827a4:	20078bac 	.word	0x20078bac
   827a8:	00081a09 	.word	0x00081a09
   827ac:	20078c78 	.word	0x20078c78
   827b0:	20078b5c 	.word	0x20078b5c
   827b4:	00082595 	.word	0x00082595
   827b8:	20078cb4 	.word	0x20078cb4
   827bc:	00081ae1 	.word	0x00081ae1
   827c0:	00081b21 	.word	0x00081b21
   827c4:	20078c7c 	.word	0x20078c7c

000827c8 <vTaskDelayUntil>:
   827c8:	b538      	push	{r3, r4, r5, lr}
   827ca:	460c      	mov	r4, r1
   827cc:	4605      	mov	r5, r0
   827ce:	b918      	cbnz	r0, 827d8 <vTaskDelayUntil+0x10>
   827d0:	4b1b      	ldr	r3, [pc, #108]	; (82840 <vTaskDelayUntil+0x78>)
   827d2:	4798      	blx	r3
   827d4:	bf00      	nop
   827d6:	e7fd      	b.n	827d4 <vTaskDelayUntil+0xc>
   827d8:	b919      	cbnz	r1, 827e2 <vTaskDelayUntil+0x1a>
   827da:	4b19      	ldr	r3, [pc, #100]	; (82840 <vTaskDelayUntil+0x78>)
   827dc:	4798      	blx	r3
   827de:	bf00      	nop
   827e0:	e7fd      	b.n	827de <vTaskDelayUntil+0x16>
   827e2:	4b18      	ldr	r3, [pc, #96]	; (82844 <vTaskDelayUntil+0x7c>)
   827e4:	4798      	blx	r3
   827e6:	882b      	ldrh	r3, [r5, #0]
   827e8:	441c      	add	r4, r3
   827ea:	b2a4      	uxth	r4, r4
   827ec:	4a16      	ldr	r2, [pc, #88]	; (82848 <vTaskDelayUntil+0x80>)
   827ee:	8812      	ldrh	r2, [r2, #0]
   827f0:	b292      	uxth	r2, r2
   827f2:	4293      	cmp	r3, r2
   827f4:	d908      	bls.n	82808 <vTaskDelayUntil+0x40>
   827f6:	42a3      	cmp	r3, r4
   827f8:	d91e      	bls.n	82838 <vTaskDelayUntil+0x70>
   827fa:	4b13      	ldr	r3, [pc, #76]	; (82848 <vTaskDelayUntil+0x80>)
   827fc:	881b      	ldrh	r3, [r3, #0]
   827fe:	b29b      	uxth	r3, r3
   82800:	802c      	strh	r4, [r5, #0]
   82802:	429c      	cmp	r4, r3
   82804:	d910      	bls.n	82828 <vTaskDelayUntil+0x60>
   82806:	e007      	b.n	82818 <vTaskDelayUntil+0x50>
   82808:	42a3      	cmp	r3, r4
   8280a:	d813      	bhi.n	82834 <vTaskDelayUntil+0x6c>
   8280c:	4b0e      	ldr	r3, [pc, #56]	; (82848 <vTaskDelayUntil+0x80>)
   8280e:	881b      	ldrh	r3, [r3, #0]
   82810:	b29b      	uxth	r3, r3
   82812:	429c      	cmp	r4, r3
   82814:	d80e      	bhi.n	82834 <vTaskDelayUntil+0x6c>
   82816:	e00f      	b.n	82838 <vTaskDelayUntil+0x70>
   82818:	4b0c      	ldr	r3, [pc, #48]	; (8284c <vTaskDelayUntil+0x84>)
   8281a:	6818      	ldr	r0, [r3, #0]
   8281c:	3004      	adds	r0, #4
   8281e:	4b0c      	ldr	r3, [pc, #48]	; (82850 <vTaskDelayUntil+0x88>)
   82820:	4798      	blx	r3
   82822:	4620      	mov	r0, r4
   82824:	4b0b      	ldr	r3, [pc, #44]	; (82854 <vTaskDelayUntil+0x8c>)
   82826:	4798      	blx	r3
   82828:	4b0b      	ldr	r3, [pc, #44]	; (82858 <vTaskDelayUntil+0x90>)
   8282a:	4798      	blx	r3
   8282c:	b930      	cbnz	r0, 8283c <vTaskDelayUntil+0x74>
   8282e:	4b0b      	ldr	r3, [pc, #44]	; (8285c <vTaskDelayUntil+0x94>)
   82830:	4798      	blx	r3
   82832:	bd38      	pop	{r3, r4, r5, pc}
   82834:	802c      	strh	r4, [r5, #0]
   82836:	e7ef      	b.n	82818 <vTaskDelayUntil+0x50>
   82838:	802c      	strh	r4, [r5, #0]
   8283a:	e7f5      	b.n	82828 <vTaskDelayUntil+0x60>
   8283c:	bd38      	pop	{r3, r4, r5, pc}
   8283e:	bf00      	nop
   82840:	00081af1 	.word	0x00081af1
   82844:	00082565 	.word	0x00082565
   82848:	20078c94 	.word	0x20078c94
   8284c:	20078c78 	.word	0x20078c78
   82850:	00081a69 	.word	0x00081a69
   82854:	00082295 	.word	0x00082295
   82858:	000826c1 	.word	0x000826c1
   8285c:	00081ae1 	.word	0x00081ae1

00082860 <vTaskDelay>:
   82860:	b510      	push	{r4, lr}
   82862:	4604      	mov	r4, r0
   82864:	b180      	cbz	r0, 82888 <vTaskDelay+0x28>
   82866:	4b0a      	ldr	r3, [pc, #40]	; (82890 <vTaskDelay+0x30>)
   82868:	4798      	blx	r3
   8286a:	4b0a      	ldr	r3, [pc, #40]	; (82894 <vTaskDelay+0x34>)
   8286c:	881b      	ldrh	r3, [r3, #0]
   8286e:	441c      	add	r4, r3
   82870:	b2a4      	uxth	r4, r4
   82872:	4b09      	ldr	r3, [pc, #36]	; (82898 <vTaskDelay+0x38>)
   82874:	6818      	ldr	r0, [r3, #0]
   82876:	3004      	adds	r0, #4
   82878:	4b08      	ldr	r3, [pc, #32]	; (8289c <vTaskDelay+0x3c>)
   8287a:	4798      	blx	r3
   8287c:	4620      	mov	r0, r4
   8287e:	4b08      	ldr	r3, [pc, #32]	; (828a0 <vTaskDelay+0x40>)
   82880:	4798      	blx	r3
   82882:	4b08      	ldr	r3, [pc, #32]	; (828a4 <vTaskDelay+0x44>)
   82884:	4798      	blx	r3
   82886:	b908      	cbnz	r0, 8288c <vTaskDelay+0x2c>
   82888:	4b07      	ldr	r3, [pc, #28]	; (828a8 <vTaskDelay+0x48>)
   8288a:	4798      	blx	r3
   8288c:	bd10      	pop	{r4, pc}
   8288e:	bf00      	nop
   82890:	00082565 	.word	0x00082565
   82894:	20078c94 	.word	0x20078c94
   82898:	20078c78 	.word	0x20078c78
   8289c:	00081a69 	.word	0x00081a69
   828a0:	00082295 	.word	0x00082295
   828a4:	000826c1 	.word	0x000826c1
   828a8:	00081ae1 	.word	0x00081ae1

000828ac <prvIdleTask>:
   828ac:	b580      	push	{r7, lr}
   828ae:	4d15      	ldr	r5, [pc, #84]	; (82904 <prvIdleTask+0x58>)
   828b0:	4e15      	ldr	r6, [pc, #84]	; (82908 <prvIdleTask+0x5c>)
   828b2:	f8df 8078 	ldr.w	r8, [pc, #120]	; 8292c <prvIdleTask+0x80>
   828b6:	e01c      	b.n	828f2 <prvIdleTask+0x46>
   828b8:	4b14      	ldr	r3, [pc, #80]	; (8290c <prvIdleTask+0x60>)
   828ba:	4798      	blx	r3
   828bc:	4b14      	ldr	r3, [pc, #80]	; (82910 <prvIdleTask+0x64>)
   828be:	681c      	ldr	r4, [r3, #0]
   828c0:	4b14      	ldr	r3, [pc, #80]	; (82914 <prvIdleTask+0x68>)
   828c2:	4798      	blx	r3
   828c4:	b1ac      	cbz	r4, 828f2 <prvIdleTask+0x46>
   828c6:	4b14      	ldr	r3, [pc, #80]	; (82918 <prvIdleTask+0x6c>)
   828c8:	4798      	blx	r3
   828ca:	4b11      	ldr	r3, [pc, #68]	; (82910 <prvIdleTask+0x64>)
   828cc:	68db      	ldr	r3, [r3, #12]
   828ce:	68dc      	ldr	r4, [r3, #12]
   828d0:	1d20      	adds	r0, r4, #4
   828d2:	4b12      	ldr	r3, [pc, #72]	; (8291c <prvIdleTask+0x70>)
   828d4:	4798      	blx	r3
   828d6:	4b12      	ldr	r3, [pc, #72]	; (82920 <prvIdleTask+0x74>)
   828d8:	681a      	ldr	r2, [r3, #0]
   828da:	3a01      	subs	r2, #1
   828dc:	601a      	str	r2, [r3, #0]
   828de:	682b      	ldr	r3, [r5, #0]
   828e0:	3b01      	subs	r3, #1
   828e2:	602b      	str	r3, [r5, #0]
   828e4:	4b0f      	ldr	r3, [pc, #60]	; (82924 <prvIdleTask+0x78>)
   828e6:	4798      	blx	r3
   828e8:	6b20      	ldr	r0, [r4, #48]	; 0x30
   828ea:	4f0f      	ldr	r7, [pc, #60]	; (82928 <prvIdleTask+0x7c>)
   828ec:	47b8      	blx	r7
   828ee:	4620      	mov	r0, r4
   828f0:	47b8      	blx	r7
   828f2:	682b      	ldr	r3, [r5, #0]
   828f4:	2b00      	cmp	r3, #0
   828f6:	d1df      	bne.n	828b8 <prvIdleTask+0xc>
   828f8:	6833      	ldr	r3, [r6, #0]
   828fa:	2b01      	cmp	r3, #1
   828fc:	d9f9      	bls.n	828f2 <prvIdleTask+0x46>
   828fe:	47c0      	blx	r8
   82900:	e7f7      	b.n	828f2 <prvIdleTask+0x46>
   82902:	bf00      	nop
   82904:	20078b7c 	.word	0x20078b7c
   82908:	20078bac 	.word	0x20078bac
   8290c:	00082565 	.word	0x00082565
   82910:	20078b80 	.word	0x20078b80
   82914:	000826c1 	.word	0x000826c1
   82918:	00081b01 	.word	0x00081b01
   8291c:	00081a69 	.word	0x00081a69
   82920:	20078cb8 	.word	0x20078cb8
   82924:	00081b21 	.word	0x00081b21
   82928:	00081d11 	.word	0x00081d11
   8292c:	00081ae1 	.word	0x00081ae1

00082930 <vTaskSwitchContext>:
   82930:	b508      	push	{r3, lr}
   82932:	4b1d      	ldr	r3, [pc, #116]	; (829a8 <vTaskSwitchContext+0x78>)
   82934:	681b      	ldr	r3, [r3, #0]
   82936:	b95b      	cbnz	r3, 82950 <vTaskSwitchContext+0x20>
   82938:	4b1c      	ldr	r3, [pc, #112]	; (829ac <vTaskSwitchContext+0x7c>)
   8293a:	681b      	ldr	r3, [r3, #0]
   8293c:	eb03 0383 	add.w	r3, r3, r3, lsl #2
   82940:	009b      	lsls	r3, r3, #2
   82942:	4a1b      	ldr	r2, [pc, #108]	; (829b0 <vTaskSwitchContext+0x80>)
   82944:	58d3      	ldr	r3, [r2, r3]
   82946:	b9cb      	cbnz	r3, 8297c <vTaskSwitchContext+0x4c>
   82948:	4b18      	ldr	r3, [pc, #96]	; (829ac <vTaskSwitchContext+0x7c>)
   8294a:	681b      	ldr	r3, [r3, #0]
   8294c:	b953      	cbnz	r3, 82964 <vTaskSwitchContext+0x34>
   8294e:	e005      	b.n	8295c <vTaskSwitchContext+0x2c>
   82950:	2201      	movs	r2, #1
   82952:	4b18      	ldr	r3, [pc, #96]	; (829b4 <vTaskSwitchContext+0x84>)
   82954:	601a      	str	r2, [r3, #0]
   82956:	bd08      	pop	{r3, pc}
   82958:	681a      	ldr	r2, [r3, #0]
   8295a:	b92a      	cbnz	r2, 82968 <vTaskSwitchContext+0x38>
   8295c:	4b16      	ldr	r3, [pc, #88]	; (829b8 <vTaskSwitchContext+0x88>)
   8295e:	4798      	blx	r3
   82960:	bf00      	nop
   82962:	e7fd      	b.n	82960 <vTaskSwitchContext+0x30>
   82964:	4b11      	ldr	r3, [pc, #68]	; (829ac <vTaskSwitchContext+0x7c>)
   82966:	4912      	ldr	r1, [pc, #72]	; (829b0 <vTaskSwitchContext+0x80>)
   82968:	681a      	ldr	r2, [r3, #0]
   8296a:	3a01      	subs	r2, #1
   8296c:	601a      	str	r2, [r3, #0]
   8296e:	681a      	ldr	r2, [r3, #0]
   82970:	eb02 0282 	add.w	r2, r2, r2, lsl #2
   82974:	f851 2022 	ldr.w	r2, [r1, r2, lsl #2]
   82978:	2a00      	cmp	r2, #0
   8297a:	d0ed      	beq.n	82958 <vTaskSwitchContext+0x28>
   8297c:	4b0b      	ldr	r3, [pc, #44]	; (829ac <vTaskSwitchContext+0x7c>)
   8297e:	681b      	ldr	r3, [r3, #0]
   82980:	eb03 0383 	add.w	r3, r3, r3, lsl #2
   82984:	4a0a      	ldr	r2, [pc, #40]	; (829b0 <vTaskSwitchContext+0x80>)
   82986:	eb02 0383 	add.w	r3, r2, r3, lsl #2
   8298a:	685a      	ldr	r2, [r3, #4]
   8298c:	6852      	ldr	r2, [r2, #4]
   8298e:	605a      	str	r2, [r3, #4]
   82990:	f103 0108 	add.w	r1, r3, #8
   82994:	428a      	cmp	r2, r1
   82996:	bf04      	itt	eq
   82998:	6852      	ldreq	r2, [r2, #4]
   8299a:	605a      	streq	r2, [r3, #4]
   8299c:	685b      	ldr	r3, [r3, #4]
   8299e:	68da      	ldr	r2, [r3, #12]
   829a0:	4b06      	ldr	r3, [pc, #24]	; (829bc <vTaskSwitchContext+0x8c>)
   829a2:	601a      	str	r2, [r3, #0]
   829a4:	bd08      	pop	{r3, pc}
   829a6:	bf00      	nop
   829a8:	20078c74 	.word	0x20078c74
   829ac:	20078ba8 	.word	0x20078ba8
   829b0:	20078bac 	.word	0x20078bac
   829b4:	20078cb4 	.word	0x20078cb4
   829b8:	00081af1 	.word	0x00081af1
   829bc:	20078c78 	.word	0x20078c78

000829c0 <vTaskPlaceOnEventList>:
   829c0:	b538      	push	{r3, r4, r5, lr}
   829c2:	460c      	mov	r4, r1
   829c4:	b918      	cbnz	r0, 829ce <vTaskPlaceOnEventList+0xe>
   829c6:	4b0f      	ldr	r3, [pc, #60]	; (82a04 <vTaskPlaceOnEventList+0x44>)
   829c8:	4798      	blx	r3
   829ca:	bf00      	nop
   829cc:	e7fd      	b.n	829ca <vTaskPlaceOnEventList+0xa>
   829ce:	4d0e      	ldr	r5, [pc, #56]	; (82a08 <vTaskPlaceOnEventList+0x48>)
   829d0:	6829      	ldr	r1, [r5, #0]
   829d2:	3118      	adds	r1, #24
   829d4:	4b0d      	ldr	r3, [pc, #52]	; (82a0c <vTaskPlaceOnEventList+0x4c>)
   829d6:	4798      	blx	r3
   829d8:	6828      	ldr	r0, [r5, #0]
   829da:	3004      	adds	r0, #4
   829dc:	4b0c      	ldr	r3, [pc, #48]	; (82a10 <vTaskPlaceOnEventList+0x50>)
   829de:	4798      	blx	r3
   829e0:	f64f 73ff 	movw	r3, #65535	; 0xffff
   829e4:	429c      	cmp	r4, r3
   829e6:	d105      	bne.n	829f4 <vTaskPlaceOnEventList+0x34>
   829e8:	6829      	ldr	r1, [r5, #0]
   829ea:	480a      	ldr	r0, [pc, #40]	; (82a14 <vTaskPlaceOnEventList+0x54>)
   829ec:	3104      	adds	r1, #4
   829ee:	4b0a      	ldr	r3, [pc, #40]	; (82a18 <vTaskPlaceOnEventList+0x58>)
   829f0:	4798      	blx	r3
   829f2:	bd38      	pop	{r3, r4, r5, pc}
   829f4:	4b09      	ldr	r3, [pc, #36]	; (82a1c <vTaskPlaceOnEventList+0x5c>)
   829f6:	8818      	ldrh	r0, [r3, #0]
   829f8:	4420      	add	r0, r4
   829fa:	b280      	uxth	r0, r0
   829fc:	4b08      	ldr	r3, [pc, #32]	; (82a20 <vTaskPlaceOnEventList+0x60>)
   829fe:	4798      	blx	r3
   82a00:	bd38      	pop	{r3, r4, r5, pc}
   82a02:	bf00      	nop
   82a04:	00081af1 	.word	0x00081af1
   82a08:	20078c78 	.word	0x20078c78
   82a0c:	00081a25 	.word	0x00081a25
   82a10:	00081a69 	.word	0x00081a69
   82a14:	20078b60 	.word	0x20078b60
   82a18:	00081a09 	.word	0x00081a09
   82a1c:	20078c94 	.word	0x20078c94
   82a20:	00082295 	.word	0x00082295

00082a24 <vTaskPlaceOnEventListRestricted>:
   82a24:	b538      	push	{r3, r4, r5, lr}
   82a26:	460d      	mov	r5, r1
   82a28:	b918      	cbnz	r0, 82a32 <vTaskPlaceOnEventListRestricted+0xe>
   82a2a:	4b0a      	ldr	r3, [pc, #40]	; (82a54 <vTaskPlaceOnEventListRestricted+0x30>)
   82a2c:	4798      	blx	r3
   82a2e:	bf00      	nop
   82a30:	e7fd      	b.n	82a2e <vTaskPlaceOnEventListRestricted+0xa>
   82a32:	4c09      	ldr	r4, [pc, #36]	; (82a58 <vTaskPlaceOnEventListRestricted+0x34>)
   82a34:	6821      	ldr	r1, [r4, #0]
   82a36:	3118      	adds	r1, #24
   82a38:	4b08      	ldr	r3, [pc, #32]	; (82a5c <vTaskPlaceOnEventListRestricted+0x38>)
   82a3a:	4798      	blx	r3
   82a3c:	6820      	ldr	r0, [r4, #0]
   82a3e:	3004      	adds	r0, #4
   82a40:	4b07      	ldr	r3, [pc, #28]	; (82a60 <vTaskPlaceOnEventListRestricted+0x3c>)
   82a42:	4798      	blx	r3
   82a44:	4b07      	ldr	r3, [pc, #28]	; (82a64 <vTaskPlaceOnEventListRestricted+0x40>)
   82a46:	8818      	ldrh	r0, [r3, #0]
   82a48:	4428      	add	r0, r5
   82a4a:	b280      	uxth	r0, r0
   82a4c:	4b06      	ldr	r3, [pc, #24]	; (82a68 <vTaskPlaceOnEventListRestricted+0x44>)
   82a4e:	4798      	blx	r3
   82a50:	bd38      	pop	{r3, r4, r5, pc}
   82a52:	bf00      	nop
   82a54:	00081af1 	.word	0x00081af1
   82a58:	20078c78 	.word	0x20078c78
   82a5c:	00081a09 	.word	0x00081a09
   82a60:	00081a69 	.word	0x00081a69
   82a64:	20078c94 	.word	0x20078c94
   82a68:	00082295 	.word	0x00082295

00082a6c <xTaskRemoveFromEventList>:
   82a6c:	b538      	push	{r3, r4, r5, lr}
   82a6e:	68c3      	ldr	r3, [r0, #12]
   82a70:	68dc      	ldr	r4, [r3, #12]
   82a72:	b91c      	cbnz	r4, 82a7c <xTaskRemoveFromEventList+0x10>
   82a74:	4b16      	ldr	r3, [pc, #88]	; (82ad0 <xTaskRemoveFromEventList+0x64>)
   82a76:	4798      	blx	r3
   82a78:	bf00      	nop
   82a7a:	e7fd      	b.n	82a78 <xTaskRemoveFromEventList+0xc>
   82a7c:	f104 0518 	add.w	r5, r4, #24
   82a80:	4628      	mov	r0, r5
   82a82:	4b14      	ldr	r3, [pc, #80]	; (82ad4 <xTaskRemoveFromEventList+0x68>)
   82a84:	4798      	blx	r3
   82a86:	4b14      	ldr	r3, [pc, #80]	; (82ad8 <xTaskRemoveFromEventList+0x6c>)
   82a88:	681b      	ldr	r3, [r3, #0]
   82a8a:	b99b      	cbnz	r3, 82ab4 <xTaskRemoveFromEventList+0x48>
   82a8c:	1d25      	adds	r5, r4, #4
   82a8e:	4628      	mov	r0, r5
   82a90:	4b10      	ldr	r3, [pc, #64]	; (82ad4 <xTaskRemoveFromEventList+0x68>)
   82a92:	4798      	blx	r3
   82a94:	6ae3      	ldr	r3, [r4, #44]	; 0x2c
   82a96:	4a11      	ldr	r2, [pc, #68]	; (82adc <xTaskRemoveFromEventList+0x70>)
   82a98:	6812      	ldr	r2, [r2, #0]
   82a9a:	4293      	cmp	r3, r2
   82a9c:	bf84      	itt	hi
   82a9e:	4a0f      	ldrhi	r2, [pc, #60]	; (82adc <xTaskRemoveFromEventList+0x70>)
   82aa0:	6013      	strhi	r3, [r2, #0]
   82aa2:	eb03 0383 	add.w	r3, r3, r3, lsl #2
   82aa6:	480e      	ldr	r0, [pc, #56]	; (82ae0 <xTaskRemoveFromEventList+0x74>)
   82aa8:	eb00 0083 	add.w	r0, r0, r3, lsl #2
   82aac:	4629      	mov	r1, r5
   82aae:	4b0d      	ldr	r3, [pc, #52]	; (82ae4 <xTaskRemoveFromEventList+0x78>)
   82ab0:	4798      	blx	r3
   82ab2:	e003      	b.n	82abc <xTaskRemoveFromEventList+0x50>
   82ab4:	480c      	ldr	r0, [pc, #48]	; (82ae8 <xTaskRemoveFromEventList+0x7c>)
   82ab6:	4629      	mov	r1, r5
   82ab8:	4b0a      	ldr	r3, [pc, #40]	; (82ae4 <xTaskRemoveFromEventList+0x78>)
   82aba:	4798      	blx	r3
   82abc:	4b0b      	ldr	r3, [pc, #44]	; (82aec <xTaskRemoveFromEventList+0x80>)
   82abe:	681b      	ldr	r3, [r3, #0]
   82ac0:	6ae0      	ldr	r0, [r4, #44]	; 0x2c
   82ac2:	6adb      	ldr	r3, [r3, #44]	; 0x2c
   82ac4:	4298      	cmp	r0, r3
   82ac6:	bf34      	ite	cc
   82ac8:	2000      	movcc	r0, #0
   82aca:	2001      	movcs	r0, #1
   82acc:	bd38      	pop	{r3, r4, r5, pc}
   82ace:	bf00      	nop
   82ad0:	00081af1 	.word	0x00081af1
   82ad4:	00081a69 	.word	0x00081a69
   82ad8:	20078c74 	.word	0x20078c74
   82adc:	20078ba8 	.word	0x20078ba8
   82ae0:	20078bac 	.word	0x20078bac
   82ae4:	00081a09 	.word	0x00081a09
   82ae8:	20078c7c 	.word	0x20078c7c
   82aec:	20078c78 	.word	0x20078c78

00082af0 <vTaskSetTimeOutState>:
   82af0:	b508      	push	{r3, lr}
   82af2:	b918      	cbnz	r0, 82afc <vTaskSetTimeOutState+0xc>
   82af4:	4b05      	ldr	r3, [pc, #20]	; (82b0c <vTaskSetTimeOutState+0x1c>)
   82af6:	4798      	blx	r3
   82af8:	bf00      	nop
   82afa:	e7fd      	b.n	82af8 <vTaskSetTimeOutState+0x8>
   82afc:	4a04      	ldr	r2, [pc, #16]	; (82b10 <vTaskSetTimeOutState+0x20>)
   82afe:	6812      	ldr	r2, [r2, #0]
   82b00:	6002      	str	r2, [r0, #0]
   82b02:	4a04      	ldr	r2, [pc, #16]	; (82b14 <vTaskSetTimeOutState+0x24>)
   82b04:	8812      	ldrh	r2, [r2, #0]
   82b06:	8082      	strh	r2, [r0, #4]
   82b08:	bd08      	pop	{r3, pc}
   82b0a:	bf00      	nop
   82b0c:	00081af1 	.word	0x00081af1
   82b10:	20078c90 	.word	0x20078c90
   82b14:	20078c94 	.word	0x20078c94

00082b18 <xTaskCheckForTimeOut>:
   82b18:	b538      	push	{r3, r4, r5, lr}
   82b1a:	460d      	mov	r5, r1
   82b1c:	4604      	mov	r4, r0
   82b1e:	b918      	cbnz	r0, 82b28 <xTaskCheckForTimeOut+0x10>
   82b20:	4b1a      	ldr	r3, [pc, #104]	; (82b8c <xTaskCheckForTimeOut+0x74>)
   82b22:	4798      	blx	r3
   82b24:	bf00      	nop
   82b26:	e7fd      	b.n	82b24 <xTaskCheckForTimeOut+0xc>
   82b28:	b919      	cbnz	r1, 82b32 <xTaskCheckForTimeOut+0x1a>
   82b2a:	4b18      	ldr	r3, [pc, #96]	; (82b8c <xTaskCheckForTimeOut+0x74>)
   82b2c:	4798      	blx	r3
   82b2e:	bf00      	nop
   82b30:	e7fd      	b.n	82b2e <xTaskCheckForTimeOut+0x16>
   82b32:	4b17      	ldr	r3, [pc, #92]	; (82b90 <xTaskCheckForTimeOut+0x78>)
   82b34:	4798      	blx	r3
   82b36:	882b      	ldrh	r3, [r5, #0]
   82b38:	f64f 72ff 	movw	r2, #65535	; 0xffff
   82b3c:	4293      	cmp	r3, r2
   82b3e:	d01c      	beq.n	82b7a <xTaskCheckForTimeOut+0x62>
   82b40:	4a14      	ldr	r2, [pc, #80]	; (82b94 <xTaskCheckForTimeOut+0x7c>)
   82b42:	6811      	ldr	r1, [r2, #0]
   82b44:	6822      	ldr	r2, [r4, #0]
   82b46:	428a      	cmp	r2, r1
   82b48:	d005      	beq.n	82b56 <xTaskCheckForTimeOut+0x3e>
   82b4a:	4a13      	ldr	r2, [pc, #76]	; (82b98 <xTaskCheckForTimeOut+0x80>)
   82b4c:	8812      	ldrh	r2, [r2, #0]
   82b4e:	b292      	uxth	r2, r2
   82b50:	88a1      	ldrh	r1, [r4, #4]
   82b52:	4291      	cmp	r1, r2
   82b54:	d913      	bls.n	82b7e <xTaskCheckForTimeOut+0x66>
   82b56:	4a10      	ldr	r2, [pc, #64]	; (82b98 <xTaskCheckForTimeOut+0x80>)
   82b58:	8811      	ldrh	r1, [r2, #0]
   82b5a:	88a2      	ldrh	r2, [r4, #4]
   82b5c:	1a89      	subs	r1, r1, r2
   82b5e:	b289      	uxth	r1, r1
   82b60:	428b      	cmp	r3, r1
   82b62:	d90e      	bls.n	82b82 <xTaskCheckForTimeOut+0x6a>
   82b64:	490c      	ldr	r1, [pc, #48]	; (82b98 <xTaskCheckForTimeOut+0x80>)
   82b66:	8809      	ldrh	r1, [r1, #0]
   82b68:	b289      	uxth	r1, r1
   82b6a:	1a52      	subs	r2, r2, r1
   82b6c:	4413      	add	r3, r2
   82b6e:	802b      	strh	r3, [r5, #0]
   82b70:	4620      	mov	r0, r4
   82b72:	4b0a      	ldr	r3, [pc, #40]	; (82b9c <xTaskCheckForTimeOut+0x84>)
   82b74:	4798      	blx	r3
   82b76:	2400      	movs	r4, #0
   82b78:	e004      	b.n	82b84 <xTaskCheckForTimeOut+0x6c>
   82b7a:	2400      	movs	r4, #0
   82b7c:	e002      	b.n	82b84 <xTaskCheckForTimeOut+0x6c>
   82b7e:	2401      	movs	r4, #1
   82b80:	e000      	b.n	82b84 <xTaskCheckForTimeOut+0x6c>
   82b82:	2401      	movs	r4, #1
   82b84:	4b06      	ldr	r3, [pc, #24]	; (82ba0 <xTaskCheckForTimeOut+0x88>)
   82b86:	4798      	blx	r3
   82b88:	4620      	mov	r0, r4
   82b8a:	bd38      	pop	{r3, r4, r5, pc}
   82b8c:	00081af1 	.word	0x00081af1
   82b90:	00081b01 	.word	0x00081b01
   82b94:	20078c90 	.word	0x20078c90
   82b98:	20078c94 	.word	0x20078c94
   82b9c:	00082af1 	.word	0x00082af1
   82ba0:	00081b21 	.word	0x00081b21

00082ba4 <vTaskMissedYield>:
   82ba4:	2201      	movs	r2, #1
   82ba6:	4b01      	ldr	r3, [pc, #4]	; (82bac <vTaskMissedYield+0x8>)
   82ba8:	601a      	str	r2, [r3, #0]
   82baa:	4770      	bx	lr
   82bac:	20078cb4 	.word	0x20078cb4

00082bb0 <xTaskGetCurrentTaskHandle>:
   82bb0:	4b01      	ldr	r3, [pc, #4]	; (82bb8 <xTaskGetCurrentTaskHandle+0x8>)
   82bb2:	6818      	ldr	r0, [r3, #0]
   82bb4:	4770      	bx	lr
   82bb6:	bf00      	nop
   82bb8:	20078c78 	.word	0x20078c78

00082bbc <xTaskGetSchedulerState>:
   82bbc:	4b05      	ldr	r3, [pc, #20]	; (82bd4 <xTaskGetSchedulerState+0x18>)
   82bbe:	681b      	ldr	r3, [r3, #0]
   82bc0:	b133      	cbz	r3, 82bd0 <xTaskGetSchedulerState+0x14>
   82bc2:	4b05      	ldr	r3, [pc, #20]	; (82bd8 <xTaskGetSchedulerState+0x1c>)
   82bc4:	681b      	ldr	r3, [r3, #0]
   82bc6:	2b00      	cmp	r3, #0
   82bc8:	bf14      	ite	ne
   82bca:	2002      	movne	r0, #2
   82bcc:	2001      	moveq	r0, #1
   82bce:	4770      	bx	lr
   82bd0:	2000      	movs	r0, #0
   82bd2:	4770      	bx	lr
   82bd4:	20078b78 	.word	0x20078b78
   82bd8:	20078c74 	.word	0x20078c74

00082bdc <vTaskPriorityInherit>:
   82bdc:	b538      	push	{r3, r4, r5, lr}
   82bde:	4604      	mov	r4, r0
   82be0:	2800      	cmp	r0, #0
   82be2:	d02e      	beq.n	82c42 <vTaskPriorityInherit+0x66>
   82be4:	6ac3      	ldr	r3, [r0, #44]	; 0x2c
   82be6:	4a17      	ldr	r2, [pc, #92]	; (82c44 <vTaskPriorityInherit+0x68>)
   82be8:	6812      	ldr	r2, [r2, #0]
   82bea:	6ad2      	ldr	r2, [r2, #44]	; 0x2c
   82bec:	4293      	cmp	r3, r2
   82bee:	d228      	bcs.n	82c42 <vTaskPriorityInherit+0x66>
   82bf0:	4a14      	ldr	r2, [pc, #80]	; (82c44 <vTaskPriorityInherit+0x68>)
   82bf2:	6812      	ldr	r2, [r2, #0]
   82bf4:	6ad2      	ldr	r2, [r2, #44]	; 0x2c
   82bf6:	f1c2 020a 	rsb	r2, r2, #10
   82bfa:	8302      	strh	r2, [r0, #24]
   82bfc:	eb03 0383 	add.w	r3, r3, r3, lsl #2
   82c00:	4a11      	ldr	r2, [pc, #68]	; (82c48 <vTaskPriorityInherit+0x6c>)
   82c02:	eb02 0383 	add.w	r3, r2, r3, lsl #2
   82c06:	6942      	ldr	r2, [r0, #20]
   82c08:	429a      	cmp	r2, r3
   82c0a:	d116      	bne.n	82c3a <vTaskPriorityInherit+0x5e>
   82c0c:	1d05      	adds	r5, r0, #4
   82c0e:	4628      	mov	r0, r5
   82c10:	4b0e      	ldr	r3, [pc, #56]	; (82c4c <vTaskPriorityInherit+0x70>)
   82c12:	4798      	blx	r3
   82c14:	4b0b      	ldr	r3, [pc, #44]	; (82c44 <vTaskPriorityInherit+0x68>)
   82c16:	681b      	ldr	r3, [r3, #0]
   82c18:	6adb      	ldr	r3, [r3, #44]	; 0x2c
   82c1a:	62e3      	str	r3, [r4, #44]	; 0x2c
   82c1c:	4a0c      	ldr	r2, [pc, #48]	; (82c50 <vTaskPriorityInherit+0x74>)
   82c1e:	6812      	ldr	r2, [r2, #0]
   82c20:	4293      	cmp	r3, r2
   82c22:	bf84      	itt	hi
   82c24:	4a0a      	ldrhi	r2, [pc, #40]	; (82c50 <vTaskPriorityInherit+0x74>)
   82c26:	6013      	strhi	r3, [r2, #0]
   82c28:	eb03 0383 	add.w	r3, r3, r3, lsl #2
   82c2c:	4806      	ldr	r0, [pc, #24]	; (82c48 <vTaskPriorityInherit+0x6c>)
   82c2e:	eb00 0083 	add.w	r0, r0, r3, lsl #2
   82c32:	4629      	mov	r1, r5
   82c34:	4b07      	ldr	r3, [pc, #28]	; (82c54 <vTaskPriorityInherit+0x78>)
   82c36:	4798      	blx	r3
   82c38:	bd38      	pop	{r3, r4, r5, pc}
   82c3a:	4b02      	ldr	r3, [pc, #8]	; (82c44 <vTaskPriorityInherit+0x68>)
   82c3c:	681b      	ldr	r3, [r3, #0]
   82c3e:	6adb      	ldr	r3, [r3, #44]	; 0x2c
   82c40:	62c3      	str	r3, [r0, #44]	; 0x2c
   82c42:	bd38      	pop	{r3, r4, r5, pc}
   82c44:	20078c78 	.word	0x20078c78
   82c48:	20078bac 	.word	0x20078bac
   82c4c:	00081a69 	.word	0x00081a69
   82c50:	20078ba8 	.word	0x20078ba8
   82c54:	00081a09 	.word	0x00081a09

00082c58 <vTaskPriorityDisinherit>:
   82c58:	b538      	push	{r3, r4, r5, lr}
   82c5a:	4604      	mov	r4, r0
   82c5c:	b1d0      	cbz	r0, 82c94 <vTaskPriorityDisinherit+0x3c>
   82c5e:	6ac2      	ldr	r2, [r0, #44]	; 0x2c
   82c60:	6cc3      	ldr	r3, [r0, #76]	; 0x4c
   82c62:	429a      	cmp	r2, r3
   82c64:	d016      	beq.n	82c94 <vTaskPriorityDisinherit+0x3c>
   82c66:	1d05      	adds	r5, r0, #4
   82c68:	4628      	mov	r0, r5
   82c6a:	4b0b      	ldr	r3, [pc, #44]	; (82c98 <vTaskPriorityDisinherit+0x40>)
   82c6c:	4798      	blx	r3
   82c6e:	6ce3      	ldr	r3, [r4, #76]	; 0x4c
   82c70:	62e3      	str	r3, [r4, #44]	; 0x2c
   82c72:	f1c3 020a 	rsb	r2, r3, #10
   82c76:	8322      	strh	r2, [r4, #24]
   82c78:	4a08      	ldr	r2, [pc, #32]	; (82c9c <vTaskPriorityDisinherit+0x44>)
   82c7a:	6812      	ldr	r2, [r2, #0]
   82c7c:	4293      	cmp	r3, r2
   82c7e:	bf84      	itt	hi
   82c80:	4a06      	ldrhi	r2, [pc, #24]	; (82c9c <vTaskPriorityDisinherit+0x44>)
   82c82:	6013      	strhi	r3, [r2, #0]
   82c84:	eb03 0383 	add.w	r3, r3, r3, lsl #2
   82c88:	4805      	ldr	r0, [pc, #20]	; (82ca0 <vTaskPriorityDisinherit+0x48>)
   82c8a:	eb00 0083 	add.w	r0, r0, r3, lsl #2
   82c8e:	4629      	mov	r1, r5
   82c90:	4b04      	ldr	r3, [pc, #16]	; (82ca4 <vTaskPriorityDisinherit+0x4c>)
   82c92:	4798      	blx	r3
   82c94:	bd38      	pop	{r3, r4, r5, pc}
   82c96:	bf00      	nop
   82c98:	00081a69 	.word	0x00081a69
   82c9c:	20078ba8 	.word	0x20078ba8
   82ca0:	20078bac 	.word	0x20078bac
   82ca4:	00081a09 	.word	0x00081a09

00082ca8 <prvInsertTimerInActiveList>:
   82ca8:	b510      	push	{r4, lr}
   82caa:	4604      	mov	r4, r0
   82cac:	8081      	strh	r1, [r0, #4]
   82cae:	6120      	str	r0, [r4, #16]
   82cb0:	4291      	cmp	r1, r2
   82cb2:	d80b      	bhi.n	82ccc <prvInsertTimerInActiveList+0x24>
   82cb4:	1ad3      	subs	r3, r2, r3
   82cb6:	8b01      	ldrh	r1, [r0, #24]
   82cb8:	b29b      	uxth	r3, r3
   82cba:	4299      	cmp	r1, r3
   82cbc:	d911      	bls.n	82ce2 <prvInsertTimerInActiveList+0x3a>
   82cbe:	4b0b      	ldr	r3, [pc, #44]	; (82cec <prvInsertTimerInActiveList+0x44>)
   82cc0:	6818      	ldr	r0, [r3, #0]
   82cc2:	1d21      	adds	r1, r4, #4
   82cc4:	4b0a      	ldr	r3, [pc, #40]	; (82cf0 <prvInsertTimerInActiveList+0x48>)
   82cc6:	4798      	blx	r3
   82cc8:	2000      	movs	r0, #0
   82cca:	bd10      	pop	{r4, pc}
   82ccc:	429a      	cmp	r2, r3
   82cce:	d201      	bcs.n	82cd4 <prvInsertTimerInActiveList+0x2c>
   82cd0:	4299      	cmp	r1, r3
   82cd2:	d208      	bcs.n	82ce6 <prvInsertTimerInActiveList+0x3e>
   82cd4:	4b07      	ldr	r3, [pc, #28]	; (82cf4 <prvInsertTimerInActiveList+0x4c>)
   82cd6:	6818      	ldr	r0, [r3, #0]
   82cd8:	1d21      	adds	r1, r4, #4
   82cda:	4b05      	ldr	r3, [pc, #20]	; (82cf0 <prvInsertTimerInActiveList+0x48>)
   82cdc:	4798      	blx	r3
   82cde:	2000      	movs	r0, #0
   82ce0:	bd10      	pop	{r4, pc}
   82ce2:	2001      	movs	r0, #1
   82ce4:	bd10      	pop	{r4, pc}
   82ce6:	2001      	movs	r0, #1
   82ce8:	bd10      	pop	{r4, pc}
   82cea:	bf00      	nop
   82cec:	20078cf4 	.word	0x20078cf4
   82cf0:	00081a25 	.word	0x00081a25
   82cf4:	20078cc0 	.word	0x20078cc0

00082cf8 <prvCheckForValidListAndQueue>:
   82cf8:	b570      	push	{r4, r5, r6, lr}
   82cfa:	4b0d      	ldr	r3, [pc, #52]	; (82d30 <prvCheckForValidListAndQueue+0x38>)
   82cfc:	4798      	blx	r3
   82cfe:	4b0d      	ldr	r3, [pc, #52]	; (82d34 <prvCheckForValidListAndQueue+0x3c>)
   82d00:	681b      	ldr	r3, [r3, #0]
   82d02:	b98b      	cbnz	r3, 82d28 <prvCheckForValidListAndQueue+0x30>
   82d04:	4d0c      	ldr	r5, [pc, #48]	; (82d38 <prvCheckForValidListAndQueue+0x40>)
   82d06:	4628      	mov	r0, r5
   82d08:	4e0c      	ldr	r6, [pc, #48]	; (82d3c <prvCheckForValidListAndQueue+0x44>)
   82d0a:	47b0      	blx	r6
   82d0c:	4c0c      	ldr	r4, [pc, #48]	; (82d40 <prvCheckForValidListAndQueue+0x48>)
   82d0e:	4620      	mov	r0, r4
   82d10:	47b0      	blx	r6
   82d12:	4b0c      	ldr	r3, [pc, #48]	; (82d44 <prvCheckForValidListAndQueue+0x4c>)
   82d14:	601d      	str	r5, [r3, #0]
   82d16:	4b0c      	ldr	r3, [pc, #48]	; (82d48 <prvCheckForValidListAndQueue+0x50>)
   82d18:	601c      	str	r4, [r3, #0]
   82d1a:	2005      	movs	r0, #5
   82d1c:	210c      	movs	r1, #12
   82d1e:	2200      	movs	r2, #0
   82d20:	4b0a      	ldr	r3, [pc, #40]	; (82d4c <prvCheckForValidListAndQueue+0x54>)
   82d22:	4798      	blx	r3
   82d24:	4b03      	ldr	r3, [pc, #12]	; (82d34 <prvCheckForValidListAndQueue+0x3c>)
   82d26:	6018      	str	r0, [r3, #0]
   82d28:	4b09      	ldr	r3, [pc, #36]	; (82d50 <prvCheckForValidListAndQueue+0x58>)
   82d2a:	4798      	blx	r3
   82d2c:	bd70      	pop	{r4, r5, r6, pc}
   82d2e:	bf00      	nop
   82d30:	00081b01 	.word	0x00081b01
   82d34:	20078cf0 	.word	0x20078cf0
   82d38:	20078cc4 	.word	0x20078cc4
   82d3c:	000819e9 	.word	0x000819e9
   82d40:	20078cd8 	.word	0x20078cd8
   82d44:	20078cc0 	.word	0x20078cc0
   82d48:	20078cf4 	.word	0x20078cf4
   82d4c:	00081ed9 	.word	0x00081ed9
   82d50:	00081b21 	.word	0x00081b21

00082d54 <xTimerCreateTimerTask>:
   82d54:	b510      	push	{r4, lr}
   82d56:	b084      	sub	sp, #16
   82d58:	4b0b      	ldr	r3, [pc, #44]	; (82d88 <xTimerCreateTimerTask+0x34>)
   82d5a:	4798      	blx	r3
   82d5c:	4b0b      	ldr	r3, [pc, #44]	; (82d8c <xTimerCreateTimerTask+0x38>)
   82d5e:	681b      	ldr	r3, [r3, #0]
   82d60:	b163      	cbz	r3, 82d7c <xTimerCreateTimerTask+0x28>
   82d62:	2309      	movs	r3, #9
   82d64:	9300      	str	r3, [sp, #0]
   82d66:	2300      	movs	r3, #0
   82d68:	9301      	str	r3, [sp, #4]
   82d6a:	9302      	str	r3, [sp, #8]
   82d6c:	9303      	str	r3, [sp, #12]
   82d6e:	4808      	ldr	r0, [pc, #32]	; (82d90 <xTimerCreateTimerTask+0x3c>)
   82d70:	4908      	ldr	r1, [pc, #32]	; (82d94 <xTimerCreateTimerTask+0x40>)
   82d72:	f44f 7200 	mov.w	r2, #512	; 0x200
   82d76:	4c08      	ldr	r4, [pc, #32]	; (82d98 <xTimerCreateTimerTask+0x44>)
   82d78:	47a0      	blx	r4
   82d7a:	b918      	cbnz	r0, 82d84 <xTimerCreateTimerTask+0x30>
   82d7c:	4b07      	ldr	r3, [pc, #28]	; (82d9c <xTimerCreateTimerTask+0x48>)
   82d7e:	4798      	blx	r3
   82d80:	bf00      	nop
   82d82:	e7fd      	b.n	82d80 <xTimerCreateTimerTask+0x2c>
   82d84:	b004      	add	sp, #16
   82d86:	bd10      	pop	{r4, pc}
   82d88:	00082cf9 	.word	0x00082cf9
   82d8c:	20078cf0 	.word	0x20078cf0
   82d90:	00082eb5 	.word	0x00082eb5
   82d94:	0008a920 	.word	0x0008a920
   82d98:	000822f1 	.word	0x000822f1
   82d9c:	00081af1 	.word	0x00081af1

00082da0 <xTimerGenericCommand>:
   82da0:	b510      	push	{r4, lr}
   82da2:	b084      	sub	sp, #16
   82da4:	4c10      	ldr	r4, [pc, #64]	; (82de8 <xTimerGenericCommand+0x48>)
   82da6:	6824      	ldr	r4, [r4, #0]
   82da8:	b1d4      	cbz	r4, 82de0 <xTimerGenericCommand+0x40>
   82daa:	9101      	str	r1, [sp, #4]
   82dac:	f8ad 2008 	strh.w	r2, [sp, #8]
   82db0:	9003      	str	r0, [sp, #12]
   82db2:	b973      	cbnz	r3, 82dd2 <xTimerGenericCommand+0x32>
   82db4:	4b0d      	ldr	r3, [pc, #52]	; (82dec <xTimerGenericCommand+0x4c>)
   82db6:	4798      	blx	r3
   82db8:	2801      	cmp	r0, #1
   82dba:	4b0b      	ldr	r3, [pc, #44]	; (82de8 <xTimerGenericCommand+0x48>)
   82dbc:	6818      	ldr	r0, [r3, #0]
   82dbe:	a901      	add	r1, sp, #4
   82dc0:	bf07      	ittee	eq
   82dc2:	f8bd 2018 	ldrheq.w	r2, [sp, #24]
   82dc6:	2300      	moveq	r3, #0
   82dc8:	2200      	movne	r2, #0
   82dca:	4613      	movne	r3, r2
   82dcc:	4c08      	ldr	r4, [pc, #32]	; (82df0 <xTimerGenericCommand+0x50>)
   82dce:	47a0      	blx	r4
   82dd0:	e007      	b.n	82de2 <xTimerGenericCommand+0x42>
   82dd2:	4620      	mov	r0, r4
   82dd4:	a901      	add	r1, sp, #4
   82dd6:	461a      	mov	r2, r3
   82dd8:	2300      	movs	r3, #0
   82dda:	4c06      	ldr	r4, [pc, #24]	; (82df4 <xTimerGenericCommand+0x54>)
   82ddc:	47a0      	blx	r4
   82dde:	e000      	b.n	82de2 <xTimerGenericCommand+0x42>
   82de0:	2000      	movs	r0, #0
   82de2:	b004      	add	sp, #16
   82de4:	bd10      	pop	{r4, pc}
   82de6:	bf00      	nop
   82de8:	20078cf0 	.word	0x20078cf0
   82dec:	00082bbd 	.word	0x00082bbd
   82df0:	00081f31 	.word	0x00081f31
   82df4:	00082055 	.word	0x00082055

00082df8 <prvSampleTimeNow>:
   82df8:	e92d 47f0 	stmdb	sp!, {r4, r5, r6, r7, r8, r9, sl, lr}
   82dfc:	b082      	sub	sp, #8
   82dfe:	4681      	mov	r9, r0
   82e00:	4b24      	ldr	r3, [pc, #144]	; (82e94 <prvSampleTimeNow+0x9c>)
   82e02:	4798      	blx	r3
   82e04:	4680      	mov	r8, r0
   82e06:	4b24      	ldr	r3, [pc, #144]	; (82e98 <prvSampleTimeNow+0xa0>)
   82e08:	881b      	ldrh	r3, [r3, #0]
   82e0a:	4283      	cmp	r3, r0
   82e0c:	d937      	bls.n	82e7e <prvSampleTimeNow+0x86>
   82e0e:	4e23      	ldr	r6, [pc, #140]	; (82e9c <prvSampleTimeNow+0xa4>)
   82e10:	4f23      	ldr	r7, [pc, #140]	; (82ea0 <prvSampleTimeNow+0xa8>)
   82e12:	e027      	b.n	82e64 <prvSampleTimeNow+0x6c>
   82e14:	68da      	ldr	r2, [r3, #12]
   82e16:	f8b2 a000 	ldrh.w	sl, [r2]
   82e1a:	fa1f fa8a 	uxth.w	sl, sl
   82e1e:	68db      	ldr	r3, [r3, #12]
   82e20:	68dc      	ldr	r4, [r3, #12]
   82e22:	1d25      	adds	r5, r4, #4
   82e24:	4628      	mov	r0, r5
   82e26:	47b8      	blx	r7
   82e28:	6a63      	ldr	r3, [r4, #36]	; 0x24
   82e2a:	4620      	mov	r0, r4
   82e2c:	4798      	blx	r3
   82e2e:	69e3      	ldr	r3, [r4, #28]
   82e30:	2b01      	cmp	r3, #1
   82e32:	d117      	bne.n	82e64 <prvSampleTimeNow+0x6c>
   82e34:	8b23      	ldrh	r3, [r4, #24]
   82e36:	4453      	add	r3, sl
   82e38:	b29b      	uxth	r3, r3
   82e3a:	4553      	cmp	r3, sl
   82e3c:	d906      	bls.n	82e4c <prvSampleTimeNow+0x54>
   82e3e:	80a3      	strh	r3, [r4, #4]
   82e40:	6124      	str	r4, [r4, #16]
   82e42:	6830      	ldr	r0, [r6, #0]
   82e44:	4629      	mov	r1, r5
   82e46:	4b17      	ldr	r3, [pc, #92]	; (82ea4 <prvSampleTimeNow+0xac>)
   82e48:	4798      	blx	r3
   82e4a:	e00b      	b.n	82e64 <prvSampleTimeNow+0x6c>
   82e4c:	2300      	movs	r3, #0
   82e4e:	9300      	str	r3, [sp, #0]
   82e50:	4620      	mov	r0, r4
   82e52:	4619      	mov	r1, r3
   82e54:	4652      	mov	r2, sl
   82e56:	4c14      	ldr	r4, [pc, #80]	; (82ea8 <prvSampleTimeNow+0xb0>)
   82e58:	47a0      	blx	r4
   82e5a:	b918      	cbnz	r0, 82e64 <prvSampleTimeNow+0x6c>
   82e5c:	4b13      	ldr	r3, [pc, #76]	; (82eac <prvSampleTimeNow+0xb4>)
   82e5e:	4798      	blx	r3
   82e60:	bf00      	nop
   82e62:	e7fd      	b.n	82e60 <prvSampleTimeNow+0x68>
   82e64:	6833      	ldr	r3, [r6, #0]
   82e66:	681a      	ldr	r2, [r3, #0]
   82e68:	2a00      	cmp	r2, #0
   82e6a:	d1d3      	bne.n	82e14 <prvSampleTimeNow+0x1c>
   82e6c:	4a10      	ldr	r2, [pc, #64]	; (82eb0 <prvSampleTimeNow+0xb8>)
   82e6e:	6811      	ldr	r1, [r2, #0]
   82e70:	480a      	ldr	r0, [pc, #40]	; (82e9c <prvSampleTimeNow+0xa4>)
   82e72:	6001      	str	r1, [r0, #0]
   82e74:	6013      	str	r3, [r2, #0]
   82e76:	2301      	movs	r3, #1
   82e78:	f8c9 3000 	str.w	r3, [r9]
   82e7c:	e002      	b.n	82e84 <prvSampleTimeNow+0x8c>
   82e7e:	2300      	movs	r3, #0
   82e80:	f8c9 3000 	str.w	r3, [r9]
   82e84:	4b04      	ldr	r3, [pc, #16]	; (82e98 <prvSampleTimeNow+0xa0>)
   82e86:	f8a3 8000 	strh.w	r8, [r3]
   82e8a:	4640      	mov	r0, r8
   82e8c:	b002      	add	sp, #8
   82e8e:	e8bd 87f0 	ldmia.w	sp!, {r4, r5, r6, r7, r8, r9, sl, pc}
   82e92:	bf00      	nop
   82e94:	00082575 	.word	0x00082575
   82e98:	20078cec 	.word	0x20078cec
   82e9c:	20078cc0 	.word	0x20078cc0
   82ea0:	00081a69 	.word	0x00081a69
   82ea4:	00081a25 	.word	0x00081a25
   82ea8:	00082da1 	.word	0x00082da1
   82eac:	00081af1 	.word	0x00081af1
   82eb0:	20078cf4 	.word	0x20078cf4

00082eb4 <prvTimerTask>:
   82eb4:	e92d 43f0 	stmdb	sp!, {r4, r5, r6, r7, r8, r9, lr}
   82eb8:	b087      	sub	sp, #28
   82eba:	4d51      	ldr	r5, [pc, #324]	; (83000 <prvTimerTask+0x14c>)
   82ebc:	f8df 8170 	ldr.w	r8, [pc, #368]	; 83030 <prvTimerTask+0x17c>
   82ec0:	4b50      	ldr	r3, [pc, #320]	; (83004 <prvTimerTask+0x150>)
   82ec2:	681b      	ldr	r3, [r3, #0]
   82ec4:	681a      	ldr	r2, [r3, #0]
   82ec6:	2a00      	cmp	r2, #0
   82ec8:	f000 8090 	beq.w	82fec <prvTimerTask+0x138>
   82ecc:	68db      	ldr	r3, [r3, #12]
   82ece:	881e      	ldrh	r6, [r3, #0]
   82ed0:	b2b6      	uxth	r6, r6
   82ed2:	4b4d      	ldr	r3, [pc, #308]	; (83008 <prvTimerTask+0x154>)
   82ed4:	4798      	blx	r3
   82ed6:	a803      	add	r0, sp, #12
   82ed8:	4b4c      	ldr	r3, [pc, #304]	; (8300c <prvTimerTask+0x158>)
   82eda:	4798      	blx	r3
   82edc:	4607      	mov	r7, r0
   82ede:	9b03      	ldr	r3, [sp, #12]
   82ee0:	2b00      	cmp	r3, #0
   82ee2:	d132      	bne.n	82f4a <prvTimerTask+0x96>
   82ee4:	4286      	cmp	r6, r0
   82ee6:	d825      	bhi.n	82f34 <prvTimerTask+0x80>
   82ee8:	4b49      	ldr	r3, [pc, #292]	; (83010 <prvTimerTask+0x15c>)
   82eea:	4798      	blx	r3
   82eec:	4b45      	ldr	r3, [pc, #276]	; (83004 <prvTimerTask+0x150>)
   82eee:	681b      	ldr	r3, [r3, #0]
   82ef0:	68db      	ldr	r3, [r3, #12]
   82ef2:	68dc      	ldr	r4, [r3, #12]
   82ef4:	1d20      	adds	r0, r4, #4
   82ef6:	47c0      	blx	r8
   82ef8:	69e3      	ldr	r3, [r4, #28]
   82efa:	2b01      	cmp	r3, #1
   82efc:	d115      	bne.n	82f2a <prvTimerTask+0x76>
   82efe:	8b21      	ldrh	r1, [r4, #24]
   82f00:	4431      	add	r1, r6
   82f02:	4620      	mov	r0, r4
   82f04:	b289      	uxth	r1, r1
   82f06:	463a      	mov	r2, r7
   82f08:	4633      	mov	r3, r6
   82f0a:	4f42      	ldr	r7, [pc, #264]	; (83014 <prvTimerTask+0x160>)
   82f0c:	47b8      	blx	r7
   82f0e:	2801      	cmp	r0, #1
   82f10:	d10b      	bne.n	82f2a <prvTimerTask+0x76>
   82f12:	2300      	movs	r3, #0
   82f14:	9300      	str	r3, [sp, #0]
   82f16:	4620      	mov	r0, r4
   82f18:	4619      	mov	r1, r3
   82f1a:	4632      	mov	r2, r6
   82f1c:	4e3e      	ldr	r6, [pc, #248]	; (83018 <prvTimerTask+0x164>)
   82f1e:	47b0      	blx	r6
   82f20:	b918      	cbnz	r0, 82f2a <prvTimerTask+0x76>
   82f22:	4b3e      	ldr	r3, [pc, #248]	; (8301c <prvTimerTask+0x168>)
   82f24:	4798      	blx	r3
   82f26:	bf00      	nop
   82f28:	e7fd      	b.n	82f26 <prvTimerTask+0x72>
   82f2a:	6a63      	ldr	r3, [r4, #36]	; 0x24
   82f2c:	4620      	mov	r0, r4
   82f2e:	4798      	blx	r3
   82f30:	e00d      	b.n	82f4e <prvTimerTask+0x9a>
   82f32:	2600      	movs	r6, #0
   82f34:	1bf1      	subs	r1, r6, r7
   82f36:	6828      	ldr	r0, [r5, #0]
   82f38:	b289      	uxth	r1, r1
   82f3a:	4b39      	ldr	r3, [pc, #228]	; (83020 <prvTimerTask+0x16c>)
   82f3c:	4798      	blx	r3
   82f3e:	4b34      	ldr	r3, [pc, #208]	; (83010 <prvTimerTask+0x15c>)
   82f40:	4798      	blx	r3
   82f42:	b920      	cbnz	r0, 82f4e <prvTimerTask+0x9a>
   82f44:	4b37      	ldr	r3, [pc, #220]	; (83024 <prvTimerTask+0x170>)
   82f46:	4798      	blx	r3
   82f48:	e001      	b.n	82f4e <prvTimerTask+0x9a>
   82f4a:	4b31      	ldr	r3, [pc, #196]	; (83010 <prvTimerTask+0x15c>)
   82f4c:	4798      	blx	r3
   82f4e:	a802      	add	r0, sp, #8
   82f50:	4b2e      	ldr	r3, [pc, #184]	; (8300c <prvTimerTask+0x158>)
   82f52:	4798      	blx	r3
   82f54:	4607      	mov	r7, r0
   82f56:	4e34      	ldr	r6, [pc, #208]	; (83028 <prvTimerTask+0x174>)
   82f58:	f8df 90b8 	ldr.w	r9, [pc, #184]	; 83014 <prvTimerTask+0x160>
   82f5c:	e03e      	b.n	82fdc <prvTimerTask+0x128>
   82f5e:	9c05      	ldr	r4, [sp, #20]
   82f60:	b11c      	cbz	r4, 82f6a <prvTimerTask+0xb6>
   82f62:	6961      	ldr	r1, [r4, #20]
   82f64:	b109      	cbz	r1, 82f6a <prvTimerTask+0xb6>
   82f66:	1d20      	adds	r0, r4, #4
   82f68:	47c0      	blx	r8
   82f6a:	9903      	ldr	r1, [sp, #12]
   82f6c:	2902      	cmp	r1, #2
   82f6e:	d023      	beq.n	82fb8 <prvTimerTask+0x104>
   82f70:	2903      	cmp	r1, #3
   82f72:	d030      	beq.n	82fd6 <prvTimerTask+0x122>
   82f74:	2900      	cmp	r1, #0
   82f76:	d131      	bne.n	82fdc <prvTimerTask+0x128>
   82f78:	f8bd 3010 	ldrh.w	r3, [sp, #16]
   82f7c:	8b21      	ldrh	r1, [r4, #24]
   82f7e:	4419      	add	r1, r3
   82f80:	4620      	mov	r0, r4
   82f82:	b289      	uxth	r1, r1
   82f84:	463a      	mov	r2, r7
   82f86:	47c8      	blx	r9
   82f88:	2801      	cmp	r0, #1
   82f8a:	d127      	bne.n	82fdc <prvTimerTask+0x128>
   82f8c:	6a63      	ldr	r3, [r4, #36]	; 0x24
   82f8e:	4620      	mov	r0, r4
   82f90:	4798      	blx	r3
   82f92:	69e3      	ldr	r3, [r4, #28]
   82f94:	2b01      	cmp	r3, #1
   82f96:	d121      	bne.n	82fdc <prvTimerTask+0x128>
   82f98:	8b22      	ldrh	r2, [r4, #24]
   82f9a:	f8bd 3010 	ldrh.w	r3, [sp, #16]
   82f9e:	441a      	add	r2, r3
   82fa0:	2300      	movs	r3, #0
   82fa2:	9300      	str	r3, [sp, #0]
   82fa4:	4620      	mov	r0, r4
   82fa6:	4619      	mov	r1, r3
   82fa8:	b292      	uxth	r2, r2
   82faa:	4c1b      	ldr	r4, [pc, #108]	; (83018 <prvTimerTask+0x164>)
   82fac:	47a0      	blx	r4
   82fae:	b9a8      	cbnz	r0, 82fdc <prvTimerTask+0x128>
   82fb0:	4b1a      	ldr	r3, [pc, #104]	; (8301c <prvTimerTask+0x168>)
   82fb2:	4798      	blx	r3
   82fb4:	bf00      	nop
   82fb6:	e7fd      	b.n	82fb4 <prvTimerTask+0x100>
   82fb8:	f8bd 3010 	ldrh.w	r3, [sp, #16]
   82fbc:	8323      	strh	r3, [r4, #24]
   82fbe:	b91b      	cbnz	r3, 82fc8 <prvTimerTask+0x114>
   82fc0:	4b16      	ldr	r3, [pc, #88]	; (8301c <prvTimerTask+0x168>)
   82fc2:	4798      	blx	r3
   82fc4:	bf00      	nop
   82fc6:	e7fd      	b.n	82fc4 <prvTimerTask+0x110>
   82fc8:	18f9      	adds	r1, r7, r3
   82fca:	4620      	mov	r0, r4
   82fcc:	b289      	uxth	r1, r1
   82fce:	463a      	mov	r2, r7
   82fd0:	463b      	mov	r3, r7
   82fd2:	47c8      	blx	r9
   82fd4:	e002      	b.n	82fdc <prvTimerTask+0x128>
   82fd6:	4620      	mov	r0, r4
   82fd8:	4b14      	ldr	r3, [pc, #80]	; (8302c <prvTimerTask+0x178>)
   82fda:	4798      	blx	r3
   82fdc:	6828      	ldr	r0, [r5, #0]
   82fde:	a903      	add	r1, sp, #12
   82fe0:	2200      	movs	r2, #0
   82fe2:	4613      	mov	r3, r2
   82fe4:	47b0      	blx	r6
   82fe6:	2800      	cmp	r0, #0
   82fe8:	d1b9      	bne.n	82f5e <prvTimerTask+0xaa>
   82fea:	e769      	b.n	82ec0 <prvTimerTask+0xc>
   82fec:	4b06      	ldr	r3, [pc, #24]	; (83008 <prvTimerTask+0x154>)
   82fee:	4798      	blx	r3
   82ff0:	a803      	add	r0, sp, #12
   82ff2:	4b06      	ldr	r3, [pc, #24]	; (8300c <prvTimerTask+0x158>)
   82ff4:	4798      	blx	r3
   82ff6:	4607      	mov	r7, r0
   82ff8:	9b03      	ldr	r3, [sp, #12]
   82ffa:	2b00      	cmp	r3, #0
   82ffc:	d099      	beq.n	82f32 <prvTimerTask+0x7e>
   82ffe:	e7a4      	b.n	82f4a <prvTimerTask+0x96>
   83000:	20078cf0 	.word	0x20078cf0
   83004:	20078cc0 	.word	0x20078cc0
   83008:	00082565 	.word	0x00082565
   8300c:	00082df9 	.word	0x00082df9
   83010:	000826c1 	.word	0x000826c1
   83014:	00082ca9 	.word	0x00082ca9
   83018:	00082da1 	.word	0x00082da1
   8301c:	00081af1 	.word	0x00081af1
   83020:	00082249 	.word	0x00082249
   83024:	00081ae1 	.word	0x00081ae1
   83028:	000820e5 	.word	0x000820e5
   8302c:	00081d11 	.word	0x00081d11
   83030:	00081a69 	.word	0x00081a69

00083034 <sysclk_init>:
   83034:	b510      	push	{r4, lr}
   83036:	480e      	ldr	r0, [pc, #56]	; (83070 <sysclk_init+0x3c>)
   83038:	4b0e      	ldr	r3, [pc, #56]	; (83074 <sysclk_init+0x40>)
   8303a:	4798      	blx	r3
   8303c:	2000      	movs	r0, #0
   8303e:	213e      	movs	r1, #62	; 0x3e
   83040:	4b0d      	ldr	r3, [pc, #52]	; (83078 <sysclk_init+0x44>)
   83042:	4798      	blx	r3
   83044:	4c0d      	ldr	r4, [pc, #52]	; (8307c <sysclk_init+0x48>)
   83046:	47a0      	blx	r4
   83048:	2800      	cmp	r0, #0
   8304a:	d0fc      	beq.n	83046 <sysclk_init+0x12>
   8304c:	4b0c      	ldr	r3, [pc, #48]	; (83080 <sysclk_init+0x4c>)
   8304e:	4798      	blx	r3
   83050:	4a0c      	ldr	r2, [pc, #48]	; (83084 <sysclk_init+0x50>)
   83052:	4b0d      	ldr	r3, [pc, #52]	; (83088 <sysclk_init+0x54>)
   83054:	629a      	str	r2, [r3, #40]	; 0x28
   83056:	4c0d      	ldr	r4, [pc, #52]	; (8308c <sysclk_init+0x58>)
   83058:	47a0      	blx	r4
   8305a:	2800      	cmp	r0, #0
   8305c:	d0fc      	beq.n	83058 <sysclk_init+0x24>
   8305e:	2010      	movs	r0, #16
   83060:	4b0b      	ldr	r3, [pc, #44]	; (83090 <sysclk_init+0x5c>)
   83062:	4798      	blx	r3
   83064:	4b0b      	ldr	r3, [pc, #44]	; (83094 <sysclk_init+0x60>)
   83066:	4798      	blx	r3
   83068:	4801      	ldr	r0, [pc, #4]	; (83070 <sysclk_init+0x3c>)
   8306a:	4b02      	ldr	r3, [pc, #8]	; (83074 <sysclk_init+0x40>)
   8306c:	4798      	blx	r3
   8306e:	bd10      	pop	{r4, pc}
   83070:	0501bd00 	.word	0x0501bd00
   83074:	200700b1 	.word	0x200700b1
   83078:	0008345d 	.word	0x0008345d
   8307c:	000834b1 	.word	0x000834b1
   83080:	000834c1 	.word	0x000834c1
   83084:	200d3f01 	.word	0x200d3f01
   83088:	400e0600 	.word	0x400e0600
   8308c:	000834d1 	.word	0x000834d1
   83090:	000833f9 	.word	0x000833f9
   83094:	000835ed 	.word	0x000835ed

00083098 <board_init>:
   83098:	b510      	push	{r4, lr}
   8309a:	f44f 4200 	mov.w	r2, #32768	; 0x8000
   8309e:	4b1e      	ldr	r3, [pc, #120]	; (83118 <board_init+0x80>)
   830a0:	605a      	str	r2, [r3, #4]
   830a2:	200b      	movs	r0, #11
   830a4:	4c1d      	ldr	r4, [pc, #116]	; (8311c <board_init+0x84>)
   830a6:	47a0      	blx	r4
   830a8:	200c      	movs	r0, #12
   830aa:	47a0      	blx	r4
   830ac:	200d      	movs	r0, #13
   830ae:	47a0      	blx	r4
   830b0:	200e      	movs	r0, #14
   830b2:	47a0      	blx	r4
   830b4:	203b      	movs	r0, #59	; 0x3b
   830b6:	f04f 5160 	mov.w	r1, #939524096	; 0x38000000
   830ba:	4c19      	ldr	r4, [pc, #100]	; (83120 <board_init+0x88>)
   830bc:	47a0      	blx	r4
   830be:	2055      	movs	r0, #85	; 0x55
   830c0:	f04f 5160 	mov.w	r1, #939524096	; 0x38000000
   830c4:	47a0      	blx	r4
   830c6:	2056      	movs	r0, #86	; 0x56
   830c8:	f04f 5160 	mov.w	r1, #939524096	; 0x38000000
   830cc:	47a0      	blx	r4
   830ce:	2068      	movs	r0, #104	; 0x68
   830d0:	4914      	ldr	r1, [pc, #80]	; (83124 <board_init+0x8c>)
   830d2:	47a0      	blx	r4
   830d4:	205c      	movs	r0, #92	; 0x5c
   830d6:	4914      	ldr	r1, [pc, #80]	; (83128 <board_init+0x90>)
   830d8:	47a0      	blx	r4
   830da:	4814      	ldr	r0, [pc, #80]	; (8312c <board_init+0x94>)
   830dc:	f44f 7140 	mov.w	r1, #768	; 0x300
   830e0:	4a13      	ldr	r2, [pc, #76]	; (83130 <board_init+0x98>)
   830e2:	4b14      	ldr	r3, [pc, #80]	; (83134 <board_init+0x9c>)
   830e4:	4798      	blx	r3
   830e6:	2011      	movs	r0, #17
   830e8:	f04f 6100 	mov.w	r1, #134217728	; 0x8000000
   830ec:	47a0      	blx	r4
   830ee:	2012      	movs	r0, #18
   830f0:	f04f 6100 	mov.w	r1, #134217728	; 0x8000000
   830f4:	47a0      	blx	r4
   830f6:	202c      	movs	r0, #44	; 0x2c
   830f8:	f04f 6100 	mov.w	r1, #134217728	; 0x8000000
   830fc:	47a0      	blx	r4
   830fe:	202d      	movs	r0, #45	; 0x2d
   83100:	f04f 6100 	mov.w	r1, #134217728	; 0x8000000
   83104:	47a0      	blx	r4
   83106:	202b      	movs	r0, #43	; 0x2b
   83108:	f04f 6100 	mov.w	r1, #134217728	; 0x8000000
   8310c:	47a0      	blx	r4
   8310e:	202a      	movs	r0, #42	; 0x2a
   83110:	f04f 6100 	mov.w	r1, #134217728	; 0x8000000
   83114:	47a0      	blx	r4
   83116:	bd10      	pop	{r4, pc}
   83118:	400e1a50 	.word	0x400e1a50
   8311c:	000834e1 	.word	0x000834e1
   83120:	000831dd 	.word	0x000831dd
   83124:	28000079 	.word	0x28000079
   83128:	28000001 	.word	0x28000001
   8312c:	400e0e00 	.word	0x400e0e00
   83130:	08000001 	.word	0x08000001
   83134:	000832b1 	.word	0x000832b1

00083138 <pio_set_peripheral>:
   83138:	6442      	str	r2, [r0, #68]	; 0x44
   8313a:	f1b1 5f80 	cmp.w	r1, #268435456	; 0x10000000
   8313e:	d016      	beq.n	8316e <pio_set_peripheral+0x36>
   83140:	d804      	bhi.n	8314c <pio_set_peripheral+0x14>
   83142:	b1c1      	cbz	r1, 83176 <pio_set_peripheral+0x3e>
   83144:	f1b1 6f00 	cmp.w	r1, #134217728	; 0x8000000
   83148:	d00a      	beq.n	83160 <pio_set_peripheral+0x28>
   8314a:	e013      	b.n	83174 <pio_set_peripheral+0x3c>
   8314c:	f1b1 5f40 	cmp.w	r1, #805306368	; 0x30000000
   83150:	d011      	beq.n	83176 <pio_set_peripheral+0x3e>
   83152:	f1b1 5f60 	cmp.w	r1, #939524096	; 0x38000000
   83156:	d00e      	beq.n	83176 <pio_set_peripheral+0x3e>
   83158:	f1b1 5f20 	cmp.w	r1, #671088640	; 0x28000000
   8315c:	d10a      	bne.n	83174 <pio_set_peripheral+0x3c>
   8315e:	4770      	bx	lr
   83160:	6f03      	ldr	r3, [r0, #112]	; 0x70
   83162:	6f01      	ldr	r1, [r0, #112]	; 0x70
   83164:	400b      	ands	r3, r1
   83166:	ea23 0302 	bic.w	r3, r3, r2
   8316a:	6703      	str	r3, [r0, #112]	; 0x70
   8316c:	e002      	b.n	83174 <pio_set_peripheral+0x3c>
   8316e:	6f03      	ldr	r3, [r0, #112]	; 0x70
   83170:	4313      	orrs	r3, r2
   83172:	6703      	str	r3, [r0, #112]	; 0x70
   83174:	6042      	str	r2, [r0, #4]
   83176:	4770      	bx	lr

00083178 <pio_set_input>:
   83178:	6441      	str	r1, [r0, #68]	; 0x44
   8317a:	f012 0f01 	tst.w	r2, #1
   8317e:	bf14      	ite	ne
   83180:	6641      	strne	r1, [r0, #100]	; 0x64
   83182:	6601      	streq	r1, [r0, #96]	; 0x60
   83184:	f012 0f0a 	tst.w	r2, #10
   83188:	bf14      	ite	ne
   8318a:	6201      	strne	r1, [r0, #32]
   8318c:	6241      	streq	r1, [r0, #36]	; 0x24
   8318e:	f012 0f02 	tst.w	r2, #2
   83192:	d002      	beq.n	8319a <pio_set_input+0x22>
   83194:	f8c0 1080 	str.w	r1, [r0, #128]	; 0x80
   83198:	e004      	b.n	831a4 <pio_set_input+0x2c>
   8319a:	f012 0f08 	tst.w	r2, #8
   8319e:	bf18      	it	ne
   831a0:	f8c0 1084 	strne.w	r1, [r0, #132]	; 0x84
   831a4:	6141      	str	r1, [r0, #20]
   831a6:	6001      	str	r1, [r0, #0]
   831a8:	4770      	bx	lr
   831aa:	bf00      	nop

000831ac <pio_set_output>:
   831ac:	b410      	push	{r4}
   831ae:	6441      	str	r1, [r0, #68]	; 0x44
   831b0:	9c01      	ldr	r4, [sp, #4]
   831b2:	b10c      	cbz	r4, 831b8 <pio_set_output+0xc>
   831b4:	6641      	str	r1, [r0, #100]	; 0x64
   831b6:	e000      	b.n	831ba <pio_set_output+0xe>
   831b8:	6601      	str	r1, [r0, #96]	; 0x60
   831ba:	b10b      	cbz	r3, 831c0 <pio_set_output+0x14>
   831bc:	6501      	str	r1, [r0, #80]	; 0x50
   831be:	e000      	b.n	831c2 <pio_set_output+0x16>
   831c0:	6541      	str	r1, [r0, #84]	; 0x54
   831c2:	b10a      	cbz	r2, 831c8 <pio_set_output+0x1c>
   831c4:	6301      	str	r1, [r0, #48]	; 0x30
   831c6:	e000      	b.n	831ca <pio_set_output+0x1e>
   831c8:	6341      	str	r1, [r0, #52]	; 0x34
   831ca:	6101      	str	r1, [r0, #16]
   831cc:	6001      	str	r1, [r0, #0]
   831ce:	f85d 4b04 	ldr.w	r4, [sp], #4
   831d2:	4770      	bx	lr

000831d4 <pio_get_interrupt_status>:
   831d4:	6cc0      	ldr	r0, [r0, #76]	; 0x4c
   831d6:	4770      	bx	lr

000831d8 <pio_get_interrupt_mask>:
   831d8:	6c80      	ldr	r0, [r0, #72]	; 0x48
   831da:	4770      	bx	lr

000831dc <pio_configure_pin>:
   831dc:	b570      	push	{r4, r5, r6, lr}
   831de:	b082      	sub	sp, #8
   831e0:	460d      	mov	r5, r1
   831e2:	0944      	lsrs	r4, r0, #5
   831e4:	f504 1400 	add.w	r4, r4, #2097152	; 0x200000
   831e8:	f204 7407 	addw	r4, r4, #1799	; 0x707
   831ec:	0266      	lsls	r6, r4, #9
   831ee:	f001 44f0 	and.w	r4, r1, #2013265920	; 0x78000000
   831f2:	f1b4 5f20 	cmp.w	r4, #671088640	; 0x28000000
   831f6:	d030      	beq.n	8325a <pio_configure_pin+0x7e>
   831f8:	d806      	bhi.n	83208 <pio_configure_pin+0x2c>
   831fa:	f1b4 6f00 	cmp.w	r4, #134217728	; 0x8000000
   831fe:	d00a      	beq.n	83216 <pio_configure_pin+0x3a>
   83200:	f1b4 5f80 	cmp.w	r4, #268435456	; 0x10000000
   83204:	d018      	beq.n	83238 <pio_configure_pin+0x5c>
   83206:	e049      	b.n	8329c <pio_configure_pin+0xc0>
   83208:	f1b4 5f40 	cmp.w	r4, #805306368	; 0x30000000
   8320c:	d030      	beq.n	83270 <pio_configure_pin+0x94>
   8320e:	f1b4 5f60 	cmp.w	r4, #939524096	; 0x38000000
   83212:	d02d      	beq.n	83270 <pio_configure_pin+0x94>
   83214:	e042      	b.n	8329c <pio_configure_pin+0xc0>
   83216:	f000 001f 	and.w	r0, r0, #31
   8321a:	2401      	movs	r4, #1
   8321c:	4084      	lsls	r4, r0
   8321e:	4630      	mov	r0, r6
   83220:	f04f 6100 	mov.w	r1, #134217728	; 0x8000000
   83224:	4622      	mov	r2, r4
   83226:	4b1f      	ldr	r3, [pc, #124]	; (832a4 <pio_configure_pin+0xc8>)
   83228:	4798      	blx	r3
   8322a:	f015 0f01 	tst.w	r5, #1
   8322e:	bf14      	ite	ne
   83230:	6674      	strne	r4, [r6, #100]	; 0x64
   83232:	6634      	streq	r4, [r6, #96]	; 0x60
   83234:	2001      	movs	r0, #1
   83236:	e032      	b.n	8329e <pio_configure_pin+0xc2>
   83238:	f000 001f 	and.w	r0, r0, #31
   8323c:	2401      	movs	r4, #1
   8323e:	4084      	lsls	r4, r0
   83240:	4630      	mov	r0, r6
   83242:	f04f 5180 	mov.w	r1, #268435456	; 0x10000000
   83246:	4622      	mov	r2, r4
   83248:	4b16      	ldr	r3, [pc, #88]	; (832a4 <pio_configure_pin+0xc8>)
   8324a:	4798      	blx	r3
   8324c:	f015 0f01 	tst.w	r5, #1
   83250:	bf14      	ite	ne
   83252:	6674      	strne	r4, [r6, #100]	; 0x64
   83254:	6634      	streq	r4, [r6, #96]	; 0x60
   83256:	2001      	movs	r0, #1
   83258:	e021      	b.n	8329e <pio_configure_pin+0xc2>
   8325a:	f000 011f 	and.w	r1, r0, #31
   8325e:	2401      	movs	r4, #1
   83260:	4630      	mov	r0, r6
   83262:	fa04 f101 	lsl.w	r1, r4, r1
   83266:	462a      	mov	r2, r5
   83268:	4b0f      	ldr	r3, [pc, #60]	; (832a8 <pio_configure_pin+0xcc>)
   8326a:	4798      	blx	r3
   8326c:	4620      	mov	r0, r4
   8326e:	e016      	b.n	8329e <pio_configure_pin+0xc2>
   83270:	f000 011f 	and.w	r1, r0, #31
   83274:	2401      	movs	r4, #1
   83276:	f005 5260 	and.w	r2, r5, #939524096	; 0x38000000
   8327a:	ea05 0304 	and.w	r3, r5, r4
   8327e:	9300      	str	r3, [sp, #0]
   83280:	4630      	mov	r0, r6
   83282:	fa04 f101 	lsl.w	r1, r4, r1
   83286:	f1b2 5f60 	cmp.w	r2, #939524096	; 0x38000000
   8328a:	bf14      	ite	ne
   8328c:	2200      	movne	r2, #0
   8328e:	2201      	moveq	r2, #1
   83290:	f3c5 0380 	ubfx	r3, r5, #2, #1
   83294:	4d05      	ldr	r5, [pc, #20]	; (832ac <pio_configure_pin+0xd0>)
   83296:	47a8      	blx	r5
   83298:	4620      	mov	r0, r4
   8329a:	e000      	b.n	8329e <pio_configure_pin+0xc2>
   8329c:	2000      	movs	r0, #0
   8329e:	b002      	add	sp, #8
   832a0:	bd70      	pop	{r4, r5, r6, pc}
   832a2:	bf00      	nop
   832a4:	00083139 	.word	0x00083139
   832a8:	00083179 	.word	0x00083179
   832ac:	000831ad 	.word	0x000831ad

000832b0 <pio_configure_pin_group>:
   832b0:	b5f0      	push	{r4, r5, r6, r7, lr}
   832b2:	b083      	sub	sp, #12
   832b4:	4607      	mov	r7, r0
   832b6:	460e      	mov	r6, r1
   832b8:	4615      	mov	r5, r2
   832ba:	f002 44f0 	and.w	r4, r2, #2013265920	; 0x78000000
   832be:	f1b4 5f20 	cmp.w	r4, #671088640	; 0x28000000
   832c2:	d026      	beq.n	83312 <pio_configure_pin_group+0x62>
   832c4:	d806      	bhi.n	832d4 <pio_configure_pin_group+0x24>
   832c6:	f1b4 6f00 	cmp.w	r4, #134217728	; 0x8000000
   832ca:	d00a      	beq.n	832e2 <pio_configure_pin_group+0x32>
   832cc:	f1b4 5f80 	cmp.w	r4, #268435456	; 0x10000000
   832d0:	d013      	beq.n	832fa <pio_configure_pin_group+0x4a>
   832d2:	e034      	b.n	8333e <pio_configure_pin_group+0x8e>
   832d4:	f1b4 5f40 	cmp.w	r4, #805306368	; 0x30000000
   832d8:	d01f      	beq.n	8331a <pio_configure_pin_group+0x6a>
   832da:	f1b4 5f60 	cmp.w	r4, #939524096	; 0x38000000
   832de:	d01c      	beq.n	8331a <pio_configure_pin_group+0x6a>
   832e0:	e02d      	b.n	8333e <pio_configure_pin_group+0x8e>
   832e2:	f04f 6100 	mov.w	r1, #134217728	; 0x8000000
   832e6:	4632      	mov	r2, r6
   832e8:	4b16      	ldr	r3, [pc, #88]	; (83344 <pio_configure_pin_group+0x94>)
   832ea:	4798      	blx	r3
   832ec:	f015 0f01 	tst.w	r5, #1
   832f0:	bf14      	ite	ne
   832f2:	667e      	strne	r6, [r7, #100]	; 0x64
   832f4:	663e      	streq	r6, [r7, #96]	; 0x60
   832f6:	2001      	movs	r0, #1
   832f8:	e022      	b.n	83340 <pio_configure_pin_group+0x90>
   832fa:	f04f 5180 	mov.w	r1, #268435456	; 0x10000000
   832fe:	4632      	mov	r2, r6
   83300:	4b10      	ldr	r3, [pc, #64]	; (83344 <pio_configure_pin_group+0x94>)
   83302:	4798      	blx	r3
   83304:	f015 0f01 	tst.w	r5, #1
   83308:	bf14      	ite	ne
   8330a:	667e      	strne	r6, [r7, #100]	; 0x64
   8330c:	663e      	streq	r6, [r7, #96]	; 0x60
   8330e:	2001      	movs	r0, #1
   83310:	e016      	b.n	83340 <pio_configure_pin_group+0x90>
   83312:	4b0d      	ldr	r3, [pc, #52]	; (83348 <pio_configure_pin_group+0x98>)
   83314:	4798      	blx	r3
   83316:	2001      	movs	r0, #1
   83318:	e012      	b.n	83340 <pio_configure_pin_group+0x90>
   8331a:	f005 5260 	and.w	r2, r5, #939524096	; 0x38000000
   8331e:	f005 0301 	and.w	r3, r5, #1
   83322:	9300      	str	r3, [sp, #0]
   83324:	4638      	mov	r0, r7
   83326:	4631      	mov	r1, r6
   83328:	f1b2 5f60 	cmp.w	r2, #939524096	; 0x38000000
   8332c:	bf14      	ite	ne
   8332e:	2200      	movne	r2, #0
   83330:	2201      	moveq	r2, #1
   83332:	f3c5 0380 	ubfx	r3, r5, #2, #1
   83336:	4c05      	ldr	r4, [pc, #20]	; (8334c <pio_configure_pin_group+0x9c>)
   83338:	47a0      	blx	r4
   8333a:	2001      	movs	r0, #1
   8333c:	e000      	b.n	83340 <pio_configure_pin_group+0x90>
   8333e:	2000      	movs	r0, #0
   83340:	b003      	add	sp, #12
   83342:	bdf0      	pop	{r4, r5, r6, r7, pc}
   83344:	00083139 	.word	0x00083139
   83348:	00083179 	.word	0x00083179
   8334c:	000831ad 	.word	0x000831ad

00083350 <pio_handler_process>:
   83350:	e92d 41f0 	stmdb	sp!, {r4, r5, r6, r7, r8, lr}
   83354:	4604      	mov	r4, r0
   83356:	460e      	mov	r6, r1
   83358:	4b10      	ldr	r3, [pc, #64]	; (8339c <pio_handler_process+0x4c>)
   8335a:	4798      	blx	r3
   8335c:	4605      	mov	r5, r0
   8335e:	4620      	mov	r0, r4
   83360:	4b0f      	ldr	r3, [pc, #60]	; (833a0 <pio_handler_process+0x50>)
   83362:	4798      	blx	r3
   83364:	4005      	ands	r5, r0
   83366:	d017      	beq.n	83398 <pio_handler_process+0x48>
   83368:	4f0e      	ldr	r7, [pc, #56]	; (833a4 <pio_handler_process+0x54>)
   8336a:	f107 040c 	add.w	r4, r7, #12
   8336e:	376c      	adds	r7, #108	; 0x6c
   83370:	f854 3c0c 	ldr.w	r3, [r4, #-12]
   83374:	42b3      	cmp	r3, r6
   83376:	d10a      	bne.n	8338e <pio_handler_process+0x3e>
   83378:	f854 1c08 	ldr.w	r1, [r4, #-8]
   8337c:	4229      	tst	r1, r5
   8337e:	d006      	beq.n	8338e <pio_handler_process+0x3e>
   83380:	6823      	ldr	r3, [r4, #0]
   83382:	4630      	mov	r0, r6
   83384:	4798      	blx	r3
   83386:	f854 3c08 	ldr.w	r3, [r4, #-8]
   8338a:	ea25 0503 	bic.w	r5, r5, r3
   8338e:	42bc      	cmp	r4, r7
   83390:	d002      	beq.n	83398 <pio_handler_process+0x48>
   83392:	3410      	adds	r4, #16
   83394:	2d00      	cmp	r5, #0
   83396:	d1eb      	bne.n	83370 <pio_handler_process+0x20>
   83398:	e8bd 81f0 	ldmia.w	sp!, {r4, r5, r6, r7, r8, pc}
   8339c:	000831d5 	.word	0x000831d5
   833a0:	000831d9 	.word	0x000831d9
   833a4:	20078cf8 	.word	0x20078cf8

000833a8 <PIOA_Handler>:
   833a8:	b508      	push	{r3, lr}
   833aa:	4802      	ldr	r0, [pc, #8]	; (833b4 <PIOA_Handler+0xc>)
   833ac:	210b      	movs	r1, #11
   833ae:	4b02      	ldr	r3, [pc, #8]	; (833b8 <PIOA_Handler+0x10>)
   833b0:	4798      	blx	r3
   833b2:	bd08      	pop	{r3, pc}
   833b4:	400e0e00 	.word	0x400e0e00
   833b8:	00083351 	.word	0x00083351

000833bc <PIOB_Handler>:
   833bc:	b508      	push	{r3, lr}
   833be:	4802      	ldr	r0, [pc, #8]	; (833c8 <PIOB_Handler+0xc>)
   833c0:	210c      	movs	r1, #12
   833c2:	4b02      	ldr	r3, [pc, #8]	; (833cc <PIOB_Handler+0x10>)
   833c4:	4798      	blx	r3
   833c6:	bd08      	pop	{r3, pc}
   833c8:	400e1000 	.word	0x400e1000
   833cc:	00083351 	.word	0x00083351

000833d0 <PIOC_Handler>:
   833d0:	b508      	push	{r3, lr}
   833d2:	4802      	ldr	r0, [pc, #8]	; (833dc <PIOC_Handler+0xc>)
   833d4:	210d      	movs	r1, #13
   833d6:	4b02      	ldr	r3, [pc, #8]	; (833e0 <PIOC_Handler+0x10>)
   833d8:	4798      	blx	r3
   833da:	bd08      	pop	{r3, pc}
   833dc:	400e1200 	.word	0x400e1200
   833e0:	00083351 	.word	0x00083351

000833e4 <PIOD_Handler>:
   833e4:	b508      	push	{r3, lr}
   833e6:	4802      	ldr	r0, [pc, #8]	; (833f0 <PIOD_Handler+0xc>)
   833e8:	210e      	movs	r1, #14
   833ea:	4b02      	ldr	r3, [pc, #8]	; (833f4 <PIOD_Handler+0x10>)
   833ec:	4798      	blx	r3
   833ee:	bd08      	pop	{r3, pc}
   833f0:	400e1400 	.word	0x400e1400
   833f4:	00083351 	.word	0x00083351

000833f8 <pmc_switch_mck_to_pllack>:
   833f8:	4b17      	ldr	r3, [pc, #92]	; (83458 <pmc_switch_mck_to_pllack+0x60>)
   833fa:	6b1a      	ldr	r2, [r3, #48]	; 0x30
   833fc:	f022 0270 	bic.w	r2, r2, #112	; 0x70
   83400:	4310      	orrs	r0, r2
   83402:	6318      	str	r0, [r3, #48]	; 0x30
   83404:	6e9b      	ldr	r3, [r3, #104]	; 0x68
   83406:	f013 0f08 	tst.w	r3, #8
   8340a:	d109      	bne.n	83420 <pmc_switch_mck_to_pllack+0x28>
   8340c:	f44f 6300 	mov.w	r3, #2048	; 0x800
   83410:	4911      	ldr	r1, [pc, #68]	; (83458 <pmc_switch_mck_to_pllack+0x60>)
   83412:	e001      	b.n	83418 <pmc_switch_mck_to_pllack+0x20>
   83414:	3b01      	subs	r3, #1
   83416:	d019      	beq.n	8344c <pmc_switch_mck_to_pllack+0x54>
   83418:	6e8a      	ldr	r2, [r1, #104]	; 0x68
   8341a:	f012 0f08 	tst.w	r2, #8
   8341e:	d0f9      	beq.n	83414 <pmc_switch_mck_to_pllack+0x1c>
   83420:	4b0d      	ldr	r3, [pc, #52]	; (83458 <pmc_switch_mck_to_pllack+0x60>)
   83422:	6b1a      	ldr	r2, [r3, #48]	; 0x30
   83424:	f022 0203 	bic.w	r2, r2, #3
   83428:	f042 0202 	orr.w	r2, r2, #2
   8342c:	631a      	str	r2, [r3, #48]	; 0x30
   8342e:	6e98      	ldr	r0, [r3, #104]	; 0x68
   83430:	f010 0008 	ands.w	r0, r0, #8
   83434:	d10c      	bne.n	83450 <pmc_switch_mck_to_pllack+0x58>
   83436:	f44f 6300 	mov.w	r3, #2048	; 0x800
   8343a:	4907      	ldr	r1, [pc, #28]	; (83458 <pmc_switch_mck_to_pllack+0x60>)
   8343c:	e001      	b.n	83442 <pmc_switch_mck_to_pllack+0x4a>
   8343e:	3b01      	subs	r3, #1
   83440:	d008      	beq.n	83454 <pmc_switch_mck_to_pllack+0x5c>
   83442:	6e8a      	ldr	r2, [r1, #104]	; 0x68
   83444:	f012 0f08 	tst.w	r2, #8
   83448:	d0f9      	beq.n	8343e <pmc_switch_mck_to_pllack+0x46>
   8344a:	4770      	bx	lr
   8344c:	2001      	movs	r0, #1
   8344e:	4770      	bx	lr
   83450:	2000      	movs	r0, #0
   83452:	4770      	bx	lr
   83454:	2001      	movs	r0, #1
   83456:	4770      	bx	lr
   83458:	400e0600 	.word	0x400e0600

0008345c <pmc_switch_mainck_to_xtal>:
   8345c:	b138      	cbz	r0, 8346e <pmc_switch_mainck_to_xtal+0x12>
   8345e:	4911      	ldr	r1, [pc, #68]	; (834a4 <pmc_switch_mainck_to_xtal+0x48>)
   83460:	6a0b      	ldr	r3, [r1, #32]
   83462:	4a11      	ldr	r2, [pc, #68]	; (834a8 <pmc_switch_mainck_to_xtal+0x4c>)
   83464:	401a      	ands	r2, r3
   83466:	4b11      	ldr	r3, [pc, #68]	; (834ac <pmc_switch_mainck_to_xtal+0x50>)
   83468:	4313      	orrs	r3, r2
   8346a:	620b      	str	r3, [r1, #32]
   8346c:	4770      	bx	lr
   8346e:	4a0d      	ldr	r2, [pc, #52]	; (834a4 <pmc_switch_mainck_to_xtal+0x48>)
   83470:	6a13      	ldr	r3, [r2, #32]
   83472:	f423 135c 	bic.w	r3, r3, #3604480	; 0x370000
   83476:	f023 0303 	bic.w	r3, r3, #3
   8347a:	f443 135c 	orr.w	r3, r3, #3604480	; 0x370000
   8347e:	f043 0301 	orr.w	r3, r3, #1
   83482:	0209      	lsls	r1, r1, #8
   83484:	b289      	uxth	r1, r1
   83486:	430b      	orrs	r3, r1
   83488:	6213      	str	r3, [r2, #32]
   8348a:	6e93      	ldr	r3, [r2, #104]	; 0x68
   8348c:	f013 0f01 	tst.w	r3, #1
   83490:	d0fb      	beq.n	8348a <pmc_switch_mainck_to_xtal+0x2e>
   83492:	4a04      	ldr	r2, [pc, #16]	; (834a4 <pmc_switch_mainck_to_xtal+0x48>)
   83494:	6a13      	ldr	r3, [r2, #32]
   83496:	f043 739b 	orr.w	r3, r3, #20316160	; 0x1360000
   8349a:	f443 3380 	orr.w	r3, r3, #65536	; 0x10000
   8349e:	6213      	str	r3, [r2, #32]
   834a0:	4770      	bx	lr
   834a2:	bf00      	nop
   834a4:	400e0600 	.word	0x400e0600
   834a8:	fec8fffc 	.word	0xfec8fffc
   834ac:	01370002 	.word	0x01370002

000834b0 <pmc_osc_is_ready_mainck>:
   834b0:	4b02      	ldr	r3, [pc, #8]	; (834bc <pmc_osc_is_ready_mainck+0xc>)
   834b2:	6e98      	ldr	r0, [r3, #104]	; 0x68
   834b4:	f400 3080 	and.w	r0, r0, #65536	; 0x10000
   834b8:	4770      	bx	lr
   834ba:	bf00      	nop
   834bc:	400e0600 	.word	0x400e0600

000834c0 <pmc_disable_pllack>:
   834c0:	f04f 5200 	mov.w	r2, #536870912	; 0x20000000
   834c4:	4b01      	ldr	r3, [pc, #4]	; (834cc <pmc_disable_pllack+0xc>)
   834c6:	629a      	str	r2, [r3, #40]	; 0x28
   834c8:	4770      	bx	lr
   834ca:	bf00      	nop
   834cc:	400e0600 	.word	0x400e0600

000834d0 <pmc_is_locked_pllack>:
   834d0:	4b02      	ldr	r3, [pc, #8]	; (834dc <pmc_is_locked_pllack+0xc>)
   834d2:	6e98      	ldr	r0, [r3, #104]	; 0x68
   834d4:	f000 0002 	and.w	r0, r0, #2
   834d8:	4770      	bx	lr
   834da:	bf00      	nop
   834dc:	400e0600 	.word	0x400e0600

000834e0 <pmc_enable_periph_clk>:
   834e0:	282c      	cmp	r0, #44	; 0x2c
   834e2:	d820      	bhi.n	83526 <pmc_enable_periph_clk+0x46>
   834e4:	281f      	cmp	r0, #31
   834e6:	d80d      	bhi.n	83504 <pmc_enable_periph_clk+0x24>
   834e8:	4b12      	ldr	r3, [pc, #72]	; (83534 <pmc_enable_periph_clk+0x54>)
   834ea:	699a      	ldr	r2, [r3, #24]
   834ec:	2301      	movs	r3, #1
   834ee:	4083      	lsls	r3, r0
   834f0:	401a      	ands	r2, r3
   834f2:	4293      	cmp	r3, r2
   834f4:	d019      	beq.n	8352a <pmc_enable_periph_clk+0x4a>
   834f6:	2301      	movs	r3, #1
   834f8:	fa03 f000 	lsl.w	r0, r3, r0
   834fc:	4b0d      	ldr	r3, [pc, #52]	; (83534 <pmc_enable_periph_clk+0x54>)
   834fe:	6118      	str	r0, [r3, #16]
   83500:	2000      	movs	r0, #0
   83502:	4770      	bx	lr
   83504:	4b0b      	ldr	r3, [pc, #44]	; (83534 <pmc_enable_periph_clk+0x54>)
   83506:	f8d3 2108 	ldr.w	r2, [r3, #264]	; 0x108
   8350a:	3820      	subs	r0, #32
   8350c:	2301      	movs	r3, #1
   8350e:	4083      	lsls	r3, r0
   83510:	401a      	ands	r2, r3
   83512:	4293      	cmp	r3, r2
   83514:	d00b      	beq.n	8352e <pmc_enable_periph_clk+0x4e>
   83516:	2301      	movs	r3, #1
   83518:	fa03 f000 	lsl.w	r0, r3, r0
   8351c:	4b05      	ldr	r3, [pc, #20]	; (83534 <pmc_enable_periph_clk+0x54>)
   8351e:	f8c3 0100 	str.w	r0, [r3, #256]	; 0x100
   83522:	2000      	movs	r0, #0
   83524:	4770      	bx	lr
   83526:	2001      	movs	r0, #1
   83528:	4770      	bx	lr
   8352a:	2000      	movs	r0, #0
   8352c:	4770      	bx	lr
   8352e:	2000      	movs	r0, #0
   83530:	4770      	bx	lr
   83532:	bf00      	nop
   83534:	400e0600 	.word	0x400e0600

00083538 <Dummy_Handler>:
   83538:	e7fe      	b.n	83538 <Dummy_Handler>
   8353a:	bf00      	nop

0008353c <Reset_Handler>:
   8353c:	b510      	push	{r4, lr}
   8353e:	4b1e      	ldr	r3, [pc, #120]	; (835b8 <Reset_Handler+0x7c>)
   83540:	4a1e      	ldr	r2, [pc, #120]	; (835bc <Reset_Handler+0x80>)
   83542:	429a      	cmp	r2, r3
   83544:	d003      	beq.n	8354e <Reset_Handler+0x12>
   83546:	4b1e      	ldr	r3, [pc, #120]	; (835c0 <Reset_Handler+0x84>)
   83548:	4a1b      	ldr	r2, [pc, #108]	; (835b8 <Reset_Handler+0x7c>)
   8354a:	429a      	cmp	r2, r3
   8354c:	d304      	bcc.n	83558 <Reset_Handler+0x1c>
   8354e:	4b1d      	ldr	r3, [pc, #116]	; (835c4 <Reset_Handler+0x88>)
   83550:	4a1d      	ldr	r2, [pc, #116]	; (835c8 <Reset_Handler+0x8c>)
   83552:	429a      	cmp	r2, r3
   83554:	d30f      	bcc.n	83576 <Reset_Handler+0x3a>
   83556:	e01a      	b.n	8358e <Reset_Handler+0x52>
   83558:	4b1c      	ldr	r3, [pc, #112]	; (835cc <Reset_Handler+0x90>)
   8355a:	4c1d      	ldr	r4, [pc, #116]	; (835d0 <Reset_Handler+0x94>)
   8355c:	1ae4      	subs	r4, r4, r3
   8355e:	f024 0403 	bic.w	r4, r4, #3
   83562:	3404      	adds	r4, #4
   83564:	2300      	movs	r3, #0
   83566:	4814      	ldr	r0, [pc, #80]	; (835b8 <Reset_Handler+0x7c>)
   83568:	4914      	ldr	r1, [pc, #80]	; (835bc <Reset_Handler+0x80>)
   8356a:	585a      	ldr	r2, [r3, r1]
   8356c:	501a      	str	r2, [r3, r0]
   8356e:	3304      	adds	r3, #4
   83570:	42a3      	cmp	r3, r4
   83572:	d1fa      	bne.n	8356a <Reset_Handler+0x2e>
   83574:	e7eb      	b.n	8354e <Reset_Handler+0x12>
   83576:	4b17      	ldr	r3, [pc, #92]	; (835d4 <Reset_Handler+0x98>)
   83578:	4917      	ldr	r1, [pc, #92]	; (835d8 <Reset_Handler+0x9c>)
   8357a:	1ac9      	subs	r1, r1, r3
   8357c:	f021 0103 	bic.w	r1, r1, #3
   83580:	1d1a      	adds	r2, r3, #4
   83582:	4411      	add	r1, r2
   83584:	2200      	movs	r2, #0
   83586:	f843 2f04 	str.w	r2, [r3, #4]!
   8358a:	428b      	cmp	r3, r1
   8358c:	d1fb      	bne.n	83586 <Reset_Handler+0x4a>
   8358e:	4a13      	ldr	r2, [pc, #76]	; (835dc <Reset_Handler+0xa0>)
   83590:	f022 4360 	bic.w	r3, r2, #3758096384	; 0xe0000000
   83594:	f023 037f 	bic.w	r3, r3, #127	; 0x7f
   83598:	4911      	ldr	r1, [pc, #68]	; (835e0 <Reset_Handler+0xa4>)
   8359a:	608b      	str	r3, [r1, #8]
   8359c:	f102 4260 	add.w	r2, r2, #3758096384	; 0xe0000000
   835a0:	f5b2 1f80 	cmp.w	r2, #1048576	; 0x100000
   835a4:	d203      	bcs.n	835ae <Reset_Handler+0x72>
   835a6:	688a      	ldr	r2, [r1, #8]
   835a8:	f042 5200 	orr.w	r2, r2, #536870912	; 0x20000000
   835ac:	608a      	str	r2, [r1, #8]
   835ae:	4b0d      	ldr	r3, [pc, #52]	; (835e4 <Reset_Handler+0xa8>)
   835b0:	4798      	blx	r3
   835b2:	4b0d      	ldr	r3, [pc, #52]	; (835e8 <Reset_Handler+0xac>)
   835b4:	4798      	blx	r3
   835b6:	e7fe      	b.n	835b6 <Reset_Handler+0x7a>
   835b8:	20070000 	.word	0x20070000
   835bc:	0008ab50 	.word	0x0008ab50
   835c0:	20070a4c 	.word	0x20070a4c
   835c4:	20078e08 	.word	0x20078e08
   835c8:	20070a50 	.word	0x20070a50
   835cc:	20070004 	.word	0x20070004
   835d0:	20070a4f 	.word	0x20070a4f
   835d4:	20070a4c 	.word	0x20070a4c
   835d8:	20078e03 	.word	0x20078e03
   835dc:	00080000 	.word	0x00080000
   835e0:	e000ed00 	.word	0xe000ed00
   835e4:	00084909 	.word	0x00084909
   835e8:	00083775 	.word	0x00083775

000835ec <SystemCoreClockUpdate>:
   835ec:	4b3e      	ldr	r3, [pc, #248]	; (836e8 <SystemCoreClockUpdate+0xfc>)
   835ee:	6b1b      	ldr	r3, [r3, #48]	; 0x30
   835f0:	f003 0303 	and.w	r3, r3, #3
   835f4:	2b03      	cmp	r3, #3
   835f6:	d85f      	bhi.n	836b8 <SystemCoreClockUpdate+0xcc>
   835f8:	e8df f003 	tbb	[pc, r3]
   835fc:	2b2b0e02 	.word	0x2b2b0e02
   83600:	4b3a      	ldr	r3, [pc, #232]	; (836ec <SystemCoreClockUpdate+0x100>)
   83602:	695b      	ldr	r3, [r3, #20]
   83604:	f013 0f80 	tst.w	r3, #128	; 0x80
   83608:	bf14      	ite	ne
   8360a:	f44f 4200 	movne.w	r2, #32768	; 0x8000
   8360e:	f44f 42fa 	moveq.w	r2, #32000	; 0x7d00
   83612:	4b37      	ldr	r3, [pc, #220]	; (836f0 <SystemCoreClockUpdate+0x104>)
   83614:	601a      	str	r2, [r3, #0]
   83616:	e04f      	b.n	836b8 <SystemCoreClockUpdate+0xcc>
   83618:	4b33      	ldr	r3, [pc, #204]	; (836e8 <SystemCoreClockUpdate+0xfc>)
   8361a:	6a1b      	ldr	r3, [r3, #32]
   8361c:	f013 7f80 	tst.w	r3, #16777216	; 0x1000000
   83620:	d003      	beq.n	8362a <SystemCoreClockUpdate+0x3e>
   83622:	4a34      	ldr	r2, [pc, #208]	; (836f4 <SystemCoreClockUpdate+0x108>)
   83624:	4b32      	ldr	r3, [pc, #200]	; (836f0 <SystemCoreClockUpdate+0x104>)
   83626:	601a      	str	r2, [r3, #0]
   83628:	e046      	b.n	836b8 <SystemCoreClockUpdate+0xcc>
   8362a:	4a33      	ldr	r2, [pc, #204]	; (836f8 <SystemCoreClockUpdate+0x10c>)
   8362c:	4b30      	ldr	r3, [pc, #192]	; (836f0 <SystemCoreClockUpdate+0x104>)
   8362e:	601a      	str	r2, [r3, #0]
   83630:	4b2d      	ldr	r3, [pc, #180]	; (836e8 <SystemCoreClockUpdate+0xfc>)
   83632:	6a1b      	ldr	r3, [r3, #32]
   83634:	f003 0370 	and.w	r3, r3, #112	; 0x70
   83638:	2b10      	cmp	r3, #16
   8363a:	d002      	beq.n	83642 <SystemCoreClockUpdate+0x56>
   8363c:	2b20      	cmp	r3, #32
   8363e:	d004      	beq.n	8364a <SystemCoreClockUpdate+0x5e>
   83640:	e03a      	b.n	836b8 <SystemCoreClockUpdate+0xcc>
   83642:	4a2e      	ldr	r2, [pc, #184]	; (836fc <SystemCoreClockUpdate+0x110>)
   83644:	4b2a      	ldr	r3, [pc, #168]	; (836f0 <SystemCoreClockUpdate+0x104>)
   83646:	601a      	str	r2, [r3, #0]
   83648:	e036      	b.n	836b8 <SystemCoreClockUpdate+0xcc>
   8364a:	4a2a      	ldr	r2, [pc, #168]	; (836f4 <SystemCoreClockUpdate+0x108>)
   8364c:	4b28      	ldr	r3, [pc, #160]	; (836f0 <SystemCoreClockUpdate+0x104>)
   8364e:	601a      	str	r2, [r3, #0]
   83650:	e032      	b.n	836b8 <SystemCoreClockUpdate+0xcc>
   83652:	4b25      	ldr	r3, [pc, #148]	; (836e8 <SystemCoreClockUpdate+0xfc>)
   83654:	6a1b      	ldr	r3, [r3, #32]
   83656:	f013 7f80 	tst.w	r3, #16777216	; 0x1000000
   8365a:	d003      	beq.n	83664 <SystemCoreClockUpdate+0x78>
   8365c:	4a25      	ldr	r2, [pc, #148]	; (836f4 <SystemCoreClockUpdate+0x108>)
   8365e:	4b24      	ldr	r3, [pc, #144]	; (836f0 <SystemCoreClockUpdate+0x104>)
   83660:	601a      	str	r2, [r3, #0]
   83662:	e012      	b.n	8368a <SystemCoreClockUpdate+0x9e>
   83664:	4a24      	ldr	r2, [pc, #144]	; (836f8 <SystemCoreClockUpdate+0x10c>)
   83666:	4b22      	ldr	r3, [pc, #136]	; (836f0 <SystemCoreClockUpdate+0x104>)
   83668:	601a      	str	r2, [r3, #0]
   8366a:	4b1f      	ldr	r3, [pc, #124]	; (836e8 <SystemCoreClockUpdate+0xfc>)
   8366c:	6a1b      	ldr	r3, [r3, #32]
   8366e:	f003 0370 	and.w	r3, r3, #112	; 0x70
   83672:	2b10      	cmp	r3, #16
   83674:	d002      	beq.n	8367c <SystemCoreClockUpdate+0x90>
   83676:	2b20      	cmp	r3, #32
   83678:	d004      	beq.n	83684 <SystemCoreClockUpdate+0x98>
   8367a:	e006      	b.n	8368a <SystemCoreClockUpdate+0x9e>
   8367c:	4a1f      	ldr	r2, [pc, #124]	; (836fc <SystemCoreClockUpdate+0x110>)
   8367e:	4b1c      	ldr	r3, [pc, #112]	; (836f0 <SystemCoreClockUpdate+0x104>)
   83680:	601a      	str	r2, [r3, #0]
   83682:	e002      	b.n	8368a <SystemCoreClockUpdate+0x9e>
   83684:	4a1b      	ldr	r2, [pc, #108]	; (836f4 <SystemCoreClockUpdate+0x108>)
   83686:	4b1a      	ldr	r3, [pc, #104]	; (836f0 <SystemCoreClockUpdate+0x104>)
   83688:	601a      	str	r2, [r3, #0]
   8368a:	4b17      	ldr	r3, [pc, #92]	; (836e8 <SystemCoreClockUpdate+0xfc>)
   8368c:	6b1b      	ldr	r3, [r3, #48]	; 0x30
   8368e:	f003 0303 	and.w	r3, r3, #3
   83692:	2b02      	cmp	r3, #2
   83694:	d10d      	bne.n	836b2 <SystemCoreClockUpdate+0xc6>
   83696:	4b14      	ldr	r3, [pc, #80]	; (836e8 <SystemCoreClockUpdate+0xfc>)
   83698:	6a98      	ldr	r0, [r3, #40]	; 0x28
   8369a:	6a99      	ldr	r1, [r3, #40]	; 0x28
   8369c:	4b14      	ldr	r3, [pc, #80]	; (836f0 <SystemCoreClockUpdate+0x104>)
   8369e:	f3c0 400a 	ubfx	r0, r0, #16, #11
   836a2:	681a      	ldr	r2, [r3, #0]
   836a4:	fb00 2202 	mla	r2, r0, r2, r2
   836a8:	b2c9      	uxtb	r1, r1
   836aa:	fbb2 f2f1 	udiv	r2, r2, r1
   836ae:	601a      	str	r2, [r3, #0]
   836b0:	e002      	b.n	836b8 <SystemCoreClockUpdate+0xcc>
   836b2:	4a13      	ldr	r2, [pc, #76]	; (83700 <SystemCoreClockUpdate+0x114>)
   836b4:	4b0e      	ldr	r3, [pc, #56]	; (836f0 <SystemCoreClockUpdate+0x104>)
   836b6:	601a      	str	r2, [r3, #0]
   836b8:	4b0b      	ldr	r3, [pc, #44]	; (836e8 <SystemCoreClockUpdate+0xfc>)
   836ba:	6b1b      	ldr	r3, [r3, #48]	; 0x30
   836bc:	f003 0370 	and.w	r3, r3, #112	; 0x70
   836c0:	2b70      	cmp	r3, #112	; 0x70
   836c2:	d107      	bne.n	836d4 <SystemCoreClockUpdate+0xe8>
   836c4:	4b0a      	ldr	r3, [pc, #40]	; (836f0 <SystemCoreClockUpdate+0x104>)
   836c6:	681a      	ldr	r2, [r3, #0]
   836c8:	490e      	ldr	r1, [pc, #56]	; (83704 <SystemCoreClockUpdate+0x118>)
   836ca:	fba1 0202 	umull	r0, r2, r1, r2
   836ce:	0852      	lsrs	r2, r2, #1
   836d0:	601a      	str	r2, [r3, #0]
   836d2:	4770      	bx	lr
   836d4:	4b04      	ldr	r3, [pc, #16]	; (836e8 <SystemCoreClockUpdate+0xfc>)
   836d6:	6b19      	ldr	r1, [r3, #48]	; 0x30
   836d8:	4b05      	ldr	r3, [pc, #20]	; (836f0 <SystemCoreClockUpdate+0x104>)
   836da:	f3c1 1102 	ubfx	r1, r1, #4, #3
   836de:	681a      	ldr	r2, [r3, #0]
   836e0:	40ca      	lsrs	r2, r1
   836e2:	601a      	str	r2, [r3, #0]
   836e4:	4770      	bx	lr
   836e6:	bf00      	nop
   836e8:	400e0600 	.word	0x400e0600
   836ec:	400e1a10 	.word	0x400e1a10
   836f0:	200701a4 	.word	0x200701a4
   836f4:	00b71b00 	.word	0x00b71b00
   836f8:	003d0900 	.word	0x003d0900
   836fc:	007a1200 	.word	0x007a1200
   83700:	0e4e1c00 	.word	0x0e4e1c00
   83704:	aaaaaaab 	.word	0xaaaaaaab

00083708 <_sbrk>:
   83708:	4b09      	ldr	r3, [pc, #36]	; (83730 <_sbrk+0x28>)
   8370a:	681b      	ldr	r3, [r3, #0]
   8370c:	b913      	cbnz	r3, 83714 <_sbrk+0xc>
   8370e:	4a09      	ldr	r2, [pc, #36]	; (83734 <_sbrk+0x2c>)
   83710:	4b07      	ldr	r3, [pc, #28]	; (83730 <_sbrk+0x28>)
   83712:	601a      	str	r2, [r3, #0]
   83714:	4b06      	ldr	r3, [pc, #24]	; (83730 <_sbrk+0x28>)
   83716:	681b      	ldr	r3, [r3, #0]
   83718:	181a      	adds	r2, r3, r0
   8371a:	4907      	ldr	r1, [pc, #28]	; (83738 <_sbrk+0x30>)
   8371c:	4291      	cmp	r1, r2
   8371e:	db04      	blt.n	8372a <_sbrk+0x22>
   83720:	4610      	mov	r0, r2
   83722:	4a03      	ldr	r2, [pc, #12]	; (83730 <_sbrk+0x28>)
   83724:	6010      	str	r0, [r2, #0]
   83726:	4618      	mov	r0, r3
   83728:	4770      	bx	lr
   8372a:	f04f 30ff 	mov.w	r0, #4294967295
   8372e:	4770      	bx	lr
   83730:	20078d68 	.word	0x20078d68
   83734:	2007ae08 	.word	0x2007ae08
   83738:	20087ffc 	.word	0x20087ffc

0008373c <_close>:
   8373c:	f04f 30ff 	mov.w	r0, #4294967295
   83740:	4770      	bx	lr
   83742:	bf00      	nop

00083744 <_fstat>:
   83744:	f44f 5300 	mov.w	r3, #8192	; 0x2000
   83748:	604b      	str	r3, [r1, #4]
   8374a:	2000      	movs	r0, #0
   8374c:	4770      	bx	lr
   8374e:	bf00      	nop

00083750 <_isatty>:
   83750:	2001      	movs	r0, #1
   83752:	4770      	bx	lr

00083754 <_lseek>:
   83754:	2000      	movs	r0, #0
   83756:	4770      	bx	lr

00083758 <ioport_init>:
 *
 * This function must be called before using any other functions in the IOPORT
 * service.
 */
static inline void ioport_init(void)
{
   83758:	b510      	push	{r4, lr}
 *
 * \param ul_id Id (number) of the peripheral clock.
 */
static inline void sysclk_enable_peripheral_clock(uint32_t ul_id)
{
	pmc_enable_periph_clk(ul_id);
   8375a:	200b      	movs	r0, #11
   8375c:	4c04      	ldr	r4, [pc, #16]	; (83770 <ioport_init+0x18>)
   8375e:	47a0      	blx	r4
   83760:	200c      	movs	r0, #12
   83762:	47a0      	blx	r4
   83764:	200d      	movs	r0, #13
   83766:	47a0      	blx	r4
   83768:	200e      	movs	r0, #14
   8376a:	47a0      	blx	r4
   8376c:	bd10      	pop	{r4, pc}
   8376e:	bf00      	nop
   83770:	000834e1 	.word	0x000834e1

00083774 <main>:




int main (void)
{
   83774:	b510      	push	{r4, lr}
   83776:	b084      	sub	sp, #16
	board_init();
   83778:	4b15      	ldr	r3, [pc, #84]	; (837d0 <main+0x5c>)
   8377a:	4798      	blx	r3
	sysclk_init();
   8377c:	4b15      	ldr	r3, [pc, #84]	; (837d4 <main+0x60>)
   8377e:	4798      	blx	r3
	ioport_init();
   83780:	4c15      	ldr	r4, [pc, #84]	; (837d8 <main+0x64>)
   83782:	47a0      	blx	r4
	delayInit();
   83784:	4b15      	ldr	r3, [pc, #84]	; (837dc <main+0x68>)
   83786:	4798      	blx	r3
	ioport_init();
   83788:	47a0      	blx	r4
	configure_console();
   8378a:	4b15      	ldr	r3, [pc, #84]	; (837e0 <main+0x6c>)
   8378c:	4798      	blx	r3
	init_sensor();
   8378e:	4b15      	ldr	r3, [pc, #84]	; (837e4 <main+0x70>)
   83790:	4798      	blx	r3
	initMotor();
   83792:	4b15      	ldr	r3, [pc, #84]	; (837e8 <main+0x74>)
   83794:	4798      	blx	r3
	//initDrive();
	//initRegulator();
	init_taskFunctions();
   83796:	4b15      	ldr	r3, [pc, #84]	; (837ec <main+0x78>)
   83798:	4798      	blx	r3
	init_twi_functions();
   8379a:	4b15      	ldr	r3, [pc, #84]	; (837f0 <main+0x7c>)
   8379c:	4798      	blx	r3
	//init_interrupt();
	
	
	printf("\nInit ok");
   8379e:	4815      	ldr	r0, [pc, #84]	; (837f4 <main+0x80>)
   837a0:	4b15      	ldr	r3, [pc, #84]	; (837f8 <main+0x84>)
   837a2:	4798      	blx	r3
		
// 		if (xTaskCreate(task_Regulate, (const signed char * const) "REGULATOR", TASK_REGULATE_STACK_SIZE, NULL, TASK_REGULATE_STACK_PRIORITY, NULL) != pdPASS) {
// 			printf("Failed the Regulator Task\r\n");
// 		}
 		
		if (xTaskCreate(task_ultraLjud, (const signed char * const) "ULTRALJUD SENSOR", TASK_ULTRALJUD_STACK_SIZE, NULL, TASK_ULTRALJUD_STACK_PRIORITY, NULL) != pdPASS) {
   837a4:	2305      	movs	r3, #5
   837a6:	9300      	str	r3, [sp, #0]
   837a8:	2300      	movs	r3, #0
   837aa:	9301      	str	r3, [sp, #4]
   837ac:	9302      	str	r3, [sp, #8]
   837ae:	9303      	str	r3, [sp, #12]
   837b0:	4812      	ldr	r0, [pc, #72]	; (837fc <main+0x88>)
   837b2:	4913      	ldr	r1, [pc, #76]	; (83800 <main+0x8c>)
   837b4:	f44f 7280 	mov.w	r2, #256	; 0x100
   837b8:	4c12      	ldr	r4, [pc, #72]	; (83804 <main+0x90>)
   837ba:	47a0      	blx	r4
   837bc:	2801      	cmp	r0, #1
   837be:	d002      	beq.n	837c6 <main+0x52>
			printf("Failed the UltraDistance Sensor Task\r\n");
   837c0:	4811      	ldr	r0, [pc, #68]	; (83808 <main+0x94>)
   837c2:	4b0d      	ldr	r3, [pc, #52]	; (837f8 <main+0x84>)
   837c4:	4798      	blx	r3
		}
		
		
		vTaskStartScheduler();
   837c6:	4b11      	ldr	r3, [pc, #68]	; (8380c <main+0x98>)
   837c8:	4798      	blx	r3
		
		
	//}
}
   837ca:	2000      	movs	r0, #0
   837cc:	b004      	add	sp, #16
   837ce:	bd10      	pop	{r4, pc}
   837d0:	00083099 	.word	0x00083099
   837d4:	00083035 	.word	0x00083035
   837d8:	00083759 	.word	0x00083759
   837dc:	00081905 	.word	0x00081905
   837e0:	00081849 	.word	0x00081849
   837e4:	00081449 	.word	0x00081449
   837e8:	0008197d 	.word	0x0008197d
   837ec:	00080879 	.word	0x00080879
   837f0:	00080149 	.word	0x00080149
   837f4:	0008a928 	.word	0x0008a928
   837f8:	00084959 	.word	0x00084959
   837fc:	00080f49 	.word	0x00080f49
   83800:	0008a934 	.word	0x0008a934
   83804:	000822f1 	.word	0x000822f1
   83808:	0008a948 	.word	0x0008a948
   8380c:	000824f9 	.word	0x000824f9

00083810 <acos>:
   83810:	e92d 41f0 	stmdb	sp!, {r4, r5, r6, r7, r8, lr}
   83814:	b08a      	sub	sp, #40	; 0x28
   83816:	4604      	mov	r4, r0
   83818:	460d      	mov	r5, r1
   8381a:	f000 f8a5 	bl	83968 <__ieee754_acos>
   8381e:	f8df 8094 	ldr.w	r8, [pc, #148]	; 838b4 <acos+0xa4>
   83822:	4606      	mov	r6, r0
   83824:	f998 3000 	ldrsb.w	r3, [r8]
   83828:	460f      	mov	r7, r1
   8382a:	3301      	adds	r3, #1
   8382c:	d004      	beq.n	83838 <acos+0x28>
   8382e:	4620      	mov	r0, r4
   83830:	4629      	mov	r1, r5
   83832:	f000 fbb9 	bl	83fa8 <__fpclassifyd>
   83836:	b920      	cbnz	r0, 83842 <acos+0x32>
   83838:	4630      	mov	r0, r6
   8383a:	4639      	mov	r1, r7
   8383c:	b00a      	add	sp, #40	; 0x28
   8383e:	e8bd 81f0 	ldmia.w	sp!, {r4, r5, r6, r7, r8, pc}
   83842:	4620      	mov	r0, r4
   83844:	4629      	mov	r1, r5
   83846:	f000 fbab 	bl	83fa0 <fabs>
   8384a:	2200      	movs	r2, #0
   8384c:	4b16      	ldr	r3, [pc, #88]	; (838a8 <acos+0x98>)
   8384e:	f001 f823 	bl	84898 <__aeabi_dcmpgt>
   83852:	2800      	cmp	r0, #0
   83854:	d0f0      	beq.n	83838 <acos+0x28>
   83856:	4915      	ldr	r1, [pc, #84]	; (838ac <acos+0x9c>)
   83858:	2300      	movs	r3, #0
   8385a:	2201      	movs	r2, #1
   8385c:	4814      	ldr	r0, [pc, #80]	; (838b0 <acos+0xa0>)
   8385e:	9308      	str	r3, [sp, #32]
   83860:	e9cd 4504 	strd	r4, r5, [sp, #16]
   83864:	e9cd 4502 	strd	r4, r5, [sp, #8]
   83868:	9101      	str	r1, [sp, #4]
   8386a:	9200      	str	r2, [sp, #0]
   8386c:	f000 fbc6 	bl	83ffc <nan>
   83870:	f998 3000 	ldrsb.w	r3, [r8]
   83874:	e9cd 0106 	strd	r0, r1, [sp, #24]
   83878:	2b02      	cmp	r3, #2
   8387a:	d00a      	beq.n	83892 <acos+0x82>
   8387c:	4668      	mov	r0, sp
   8387e:	f000 fbbb 	bl	83ff8 <matherr>
   83882:	b130      	cbz	r0, 83892 <acos+0x82>
   83884:	9b08      	ldr	r3, [sp, #32]
   83886:	b94b      	cbnz	r3, 8389c <acos+0x8c>
   83888:	e9dd 0106 	ldrd	r0, r1, [sp, #24]
   8388c:	b00a      	add	sp, #40	; 0x28
   8388e:	e8bd 81f0 	ldmia.w	sp!, {r4, r5, r6, r7, r8, pc}
   83892:	f001 f833 	bl	848fc <__errno>
   83896:	2321      	movs	r3, #33	; 0x21
   83898:	6003      	str	r3, [r0, #0]
   8389a:	e7f3      	b.n	83884 <acos+0x74>
   8389c:	f001 f82e 	bl	848fc <__errno>
   838a0:	9b08      	ldr	r3, [sp, #32]
   838a2:	6003      	str	r3, [r0, #0]
   838a4:	e7f0      	b.n	83888 <acos+0x78>
   838a6:	bf00      	nop
   838a8:	3ff00000 	.word	0x3ff00000
   838ac:	0008a970 	.word	0x0008a970
   838b0:	0008a8ac 	.word	0x0008a8ac
   838b4:	200701a8 	.word	0x200701a8

000838b8 <sqrt>:
   838b8:	e92d 47f0 	stmdb	sp!, {r4, r5, r6, r7, r8, r9, sl, lr}
   838bc:	b08a      	sub	sp, #40	; 0x28
   838be:	4604      	mov	r4, r0
   838c0:	460d      	mov	r5, r1
   838c2:	f000 faad 	bl	83e20 <__ieee754_sqrt>
   838c6:	f8df a098 	ldr.w	sl, [pc, #152]	; 83960 <sqrt+0xa8>
   838ca:	4606      	mov	r6, r0
   838cc:	f99a 3000 	ldrsb.w	r3, [sl]
   838d0:	460f      	mov	r7, r1
   838d2:	3301      	adds	r3, #1
   838d4:	d00f      	beq.n	838f6 <sqrt+0x3e>
   838d6:	4620      	mov	r0, r4
   838d8:	4629      	mov	r1, r5
   838da:	f000 fb65 	bl	83fa8 <__fpclassifyd>
   838de:	b150      	cbz	r0, 838f6 <sqrt+0x3e>
   838e0:	f04f 0800 	mov.w	r8, #0
   838e4:	f04f 0900 	mov.w	r9, #0
   838e8:	4642      	mov	r2, r8
   838ea:	464b      	mov	r3, r9
   838ec:	4620      	mov	r0, r4
   838ee:	4629      	mov	r1, r5
   838f0:	f000 ffb4 	bl	8485c <__aeabi_dcmplt>
   838f4:	b920      	cbnz	r0, 83900 <sqrt+0x48>
   838f6:	4630      	mov	r0, r6
   838f8:	4639      	mov	r1, r7
   838fa:	b00a      	add	sp, #40	; 0x28
   838fc:	e8bd 87f0 	ldmia.w	sp!, {r4, r5, r6, r7, r8, r9, sl, pc}
   83900:	4916      	ldr	r1, [pc, #88]	; (8395c <sqrt+0xa4>)
   83902:	f89a 6000 	ldrb.w	r6, [sl]
   83906:	2201      	movs	r2, #1
   83908:	2300      	movs	r3, #0
   8390a:	e9cd 4504 	strd	r4, r5, [sp, #16]
   8390e:	e9cd 4502 	strd	r4, r5, [sp, #8]
   83912:	9101      	str	r1, [sp, #4]
   83914:	9200      	str	r2, [sp, #0]
   83916:	9308      	str	r3, [sp, #32]
   83918:	b966      	cbnz	r6, 83934 <sqrt+0x7c>
   8391a:	e9cd 8906 	strd	r8, r9, [sp, #24]
   8391e:	4668      	mov	r0, sp
   83920:	f000 fb6a 	bl	83ff8 <matherr>
   83924:	b180      	cbz	r0, 83948 <sqrt+0x90>
   83926:	9b08      	ldr	r3, [sp, #32]
   83928:	b99b      	cbnz	r3, 83952 <sqrt+0x9a>
   8392a:	e9dd 0106 	ldrd	r0, r1, [sp, #24]
   8392e:	b00a      	add	sp, #40	; 0x28
   83930:	e8bd 87f0 	ldmia.w	sp!, {r4, r5, r6, r7, r8, r9, sl, pc}
   83934:	4640      	mov	r0, r8
   83936:	4649      	mov	r1, r9
   83938:	4642      	mov	r2, r8
   8393a:	464b      	mov	r3, r9
   8393c:	f000 fe46 	bl	845cc <__aeabi_ddiv>
   83940:	2e02      	cmp	r6, #2
   83942:	e9cd 0106 	strd	r0, r1, [sp, #24]
   83946:	d1ea      	bne.n	8391e <sqrt+0x66>
   83948:	f000 ffd8 	bl	848fc <__errno>
   8394c:	2321      	movs	r3, #33	; 0x21
   8394e:	6003      	str	r3, [r0, #0]
   83950:	e7e9      	b.n	83926 <sqrt+0x6e>
   83952:	f000 ffd3 	bl	848fc <__errno>
   83956:	9b08      	ldr	r3, [sp, #32]
   83958:	6003      	str	r3, [r0, #0]
   8395a:	e7e6      	b.n	8392a <sqrt+0x72>
   8395c:	0008a978 	.word	0x0008a978
   83960:	200701a8 	.word	0x200701a8
   83964:	00000000 	.word	0x00000000

00083968 <__ieee754_acos>:
   83968:	e92d 4ff8 	stmdb	sp!, {r3, r4, r5, r6, r7, r8, r9, sl, fp, lr}
   8396c:	4f80      	ldr	r7, [pc, #512]	; (83b70 <__ieee754_acos+0x208>)
   8396e:	f021 4600 	bic.w	r6, r1, #2147483648	; 0x80000000
   83972:	42be      	cmp	r6, r7
   83974:	4604      	mov	r4, r0
   83976:	460d      	mov	r5, r1
   83978:	dd0e      	ble.n	83998 <__ieee754_acos+0x30>
   8397a:	f106 4c40 	add.w	ip, r6, #3221225472	; 0xc0000000
   8397e:	f50c 1c80 	add.w	ip, ip, #1048576	; 0x100000
   83982:	ea5c 0c00 	orrs.w	ip, ip, r0
   83986:	f040 80bb 	bne.w	83b00 <__ieee754_acos+0x198>
   8398a:	2900      	cmp	r1, #0
   8398c:	f340 817c 	ble.w	83c88 <__ieee754_acos+0x320>
   83990:	2000      	movs	r0, #0
   83992:	2100      	movs	r1, #0
   83994:	e8bd 8ff8 	ldmia.w	sp!, {r3, r4, r5, r6, r7, r8, r9, sl, fp, pc}
   83998:	4f76      	ldr	r7, [pc, #472]	; (83b74 <__ieee754_acos+0x20c>)
   8399a:	42be      	cmp	r6, r7
   8399c:	f340 80a8 	ble.w	83af0 <__ieee754_acos+0x188>
   839a0:	2900      	cmp	r1, #0
   839a2:	f2c0 8176 	blt.w	83c92 <__ieee754_acos+0x32a>
   839a6:	4602      	mov	r2, r0
   839a8:	460b      	mov	r3, r1
   839aa:	2000      	movs	r0, #0
   839ac:	4972      	ldr	r1, [pc, #456]	; (83b78 <__ieee754_acos+0x210>)
   839ae:	f000 fb2f 	bl	84010 <__aeabi_dsub>
   839b2:	2200      	movs	r2, #0
   839b4:	4b71      	ldr	r3, [pc, #452]	; (83b7c <__ieee754_acos+0x214>)
   839b6:	f000 fcdf 	bl	84378 <__aeabi_dmul>
   839ba:	4604      	mov	r4, r0
   839bc:	460d      	mov	r5, r1
   839be:	f000 fa2f 	bl	83e20 <__ieee754_sqrt>
   839c2:	a355      	add	r3, pc, #340	; (adr r3, 83b18 <__ieee754_acos+0x1b0>)
   839c4:	e9d3 2300 	ldrd	r2, r3, [r3]
   839c8:	4689      	mov	r9, r1
   839ca:	4680      	mov	r8, r0
   839cc:	4629      	mov	r1, r5
   839ce:	4620      	mov	r0, r4
   839d0:	f000 fcd2 	bl	84378 <__aeabi_dmul>
   839d4:	a352      	add	r3, pc, #328	; (adr r3, 83b20 <__ieee754_acos+0x1b8>)
   839d6:	e9d3 2300 	ldrd	r2, r3, [r3]
   839da:	f000 fb1b 	bl	84014 <__adddf3>
   839de:	4622      	mov	r2, r4
   839e0:	462b      	mov	r3, r5
   839e2:	f000 fcc9 	bl	84378 <__aeabi_dmul>
   839e6:	a350      	add	r3, pc, #320	; (adr r3, 83b28 <__ieee754_acos+0x1c0>)
   839e8:	e9d3 2300 	ldrd	r2, r3, [r3]
   839ec:	f000 fb10 	bl	84010 <__aeabi_dsub>
   839f0:	4622      	mov	r2, r4
   839f2:	462b      	mov	r3, r5
   839f4:	f000 fcc0 	bl	84378 <__aeabi_dmul>
   839f8:	a34d      	add	r3, pc, #308	; (adr r3, 83b30 <__ieee754_acos+0x1c8>)
   839fa:	e9d3 2300 	ldrd	r2, r3, [r3]
   839fe:	f000 fb09 	bl	84014 <__adddf3>
   83a02:	4622      	mov	r2, r4
   83a04:	462b      	mov	r3, r5
   83a06:	f000 fcb7 	bl	84378 <__aeabi_dmul>
   83a0a:	a34b      	add	r3, pc, #300	; (adr r3, 83b38 <__ieee754_acos+0x1d0>)
   83a0c:	e9d3 2300 	ldrd	r2, r3, [r3]
   83a10:	f000 fafe 	bl	84010 <__aeabi_dsub>
   83a14:	4622      	mov	r2, r4
   83a16:	462b      	mov	r3, r5
   83a18:	f000 fcae 	bl	84378 <__aeabi_dmul>
   83a1c:	a348      	add	r3, pc, #288	; (adr r3, 83b40 <__ieee754_acos+0x1d8>)
   83a1e:	e9d3 2300 	ldrd	r2, r3, [r3]
   83a22:	f000 faf7 	bl	84014 <__adddf3>
   83a26:	4622      	mov	r2, r4
   83a28:	462b      	mov	r3, r5
   83a2a:	f000 fca5 	bl	84378 <__aeabi_dmul>
   83a2e:	a346      	add	r3, pc, #280	; (adr r3, 83b48 <__ieee754_acos+0x1e0>)
   83a30:	e9d3 2300 	ldrd	r2, r3, [r3]
   83a34:	4682      	mov	sl, r0
   83a36:	468b      	mov	fp, r1
   83a38:	4620      	mov	r0, r4
   83a3a:	4629      	mov	r1, r5
   83a3c:	f000 fc9c 	bl	84378 <__aeabi_dmul>
   83a40:	a343      	add	r3, pc, #268	; (adr r3, 83b50 <__ieee754_acos+0x1e8>)
   83a42:	e9d3 2300 	ldrd	r2, r3, [r3]
   83a46:	f000 fae3 	bl	84010 <__aeabi_dsub>
   83a4a:	4622      	mov	r2, r4
   83a4c:	462b      	mov	r3, r5
   83a4e:	f000 fc93 	bl	84378 <__aeabi_dmul>
   83a52:	a341      	add	r3, pc, #260	; (adr r3, 83b58 <__ieee754_acos+0x1f0>)
   83a54:	e9d3 2300 	ldrd	r2, r3, [r3]
   83a58:	f000 fadc 	bl	84014 <__adddf3>
   83a5c:	4622      	mov	r2, r4
   83a5e:	462b      	mov	r3, r5
   83a60:	f000 fc8a 	bl	84378 <__aeabi_dmul>
   83a64:	a33e      	add	r3, pc, #248	; (adr r3, 83b60 <__ieee754_acos+0x1f8>)
   83a66:	e9d3 2300 	ldrd	r2, r3, [r3]
   83a6a:	f000 fad1 	bl	84010 <__aeabi_dsub>
   83a6e:	4622      	mov	r2, r4
   83a70:	462b      	mov	r3, r5
   83a72:	f000 fc81 	bl	84378 <__aeabi_dmul>
   83a76:	2200      	movs	r2, #0
   83a78:	4b3f      	ldr	r3, [pc, #252]	; (83b78 <__ieee754_acos+0x210>)
   83a7a:	f000 facb 	bl	84014 <__adddf3>
   83a7e:	4602      	mov	r2, r0
   83a80:	460b      	mov	r3, r1
   83a82:	4650      	mov	r0, sl
   83a84:	4659      	mov	r1, fp
   83a86:	f000 fda1 	bl	845cc <__aeabi_ddiv>
   83a8a:	4642      	mov	r2, r8
   83a8c:	464b      	mov	r3, r9
   83a8e:	f000 fc73 	bl	84378 <__aeabi_dmul>
   83a92:	2600      	movs	r6, #0
   83a94:	4682      	mov	sl, r0
   83a96:	468b      	mov	fp, r1
   83a98:	4632      	mov	r2, r6
   83a9a:	464b      	mov	r3, r9
   83a9c:	4630      	mov	r0, r6
   83a9e:	4649      	mov	r1, r9
   83aa0:	f000 fc6a 	bl	84378 <__aeabi_dmul>
   83aa4:	4602      	mov	r2, r0
   83aa6:	460b      	mov	r3, r1
   83aa8:	4620      	mov	r0, r4
   83aaa:	4629      	mov	r1, r5
   83aac:	f000 fab0 	bl	84010 <__aeabi_dsub>
   83ab0:	4632      	mov	r2, r6
   83ab2:	4604      	mov	r4, r0
   83ab4:	460d      	mov	r5, r1
   83ab6:	464b      	mov	r3, r9
   83ab8:	4640      	mov	r0, r8
   83aba:	4649      	mov	r1, r9
   83abc:	f000 faaa 	bl	84014 <__adddf3>
   83ac0:	4602      	mov	r2, r0
   83ac2:	460b      	mov	r3, r1
   83ac4:	4620      	mov	r0, r4
   83ac6:	4629      	mov	r1, r5
   83ac8:	f000 fd80 	bl	845cc <__aeabi_ddiv>
   83acc:	4602      	mov	r2, r0
   83ace:	460b      	mov	r3, r1
   83ad0:	4650      	mov	r0, sl
   83ad2:	4659      	mov	r1, fp
   83ad4:	f000 fa9e 	bl	84014 <__adddf3>
   83ad8:	4602      	mov	r2, r0
   83ada:	460b      	mov	r3, r1
   83adc:	4630      	mov	r0, r6
   83ade:	4649      	mov	r1, r9
   83ae0:	f000 fa98 	bl	84014 <__adddf3>
   83ae4:	4602      	mov	r2, r0
   83ae6:	460b      	mov	r3, r1
   83ae8:	f000 fa94 	bl	84014 <__adddf3>
   83aec:	e8bd 8ff8 	ldmia.w	sp!, {r3, r4, r5, r6, r7, r8, r9, sl, fp, pc}
   83af0:	4b23      	ldr	r3, [pc, #140]	; (83b80 <__ieee754_acos+0x218>)
   83af2:	429e      	cmp	r6, r3
   83af4:	dc46      	bgt.n	83b84 <__ieee754_acos+0x21c>
   83af6:	a11c      	add	r1, pc, #112	; (adr r1, 83b68 <__ieee754_acos+0x200>)
   83af8:	e9d1 0100 	ldrd	r0, r1, [r1]
   83afc:	e8bd 8ff8 	ldmia.w	sp!, {r3, r4, r5, r6, r7, r8, r9, sl, fp, pc}
   83b00:	4602      	mov	r2, r0
   83b02:	460b      	mov	r3, r1
   83b04:	f000 fa84 	bl	84010 <__aeabi_dsub>
   83b08:	4602      	mov	r2, r0
   83b0a:	460b      	mov	r3, r1
   83b0c:	f000 fd5e 	bl	845cc <__aeabi_ddiv>
   83b10:	e8bd 8ff8 	ldmia.w	sp!, {r3, r4, r5, r6, r7, r8, r9, sl, fp, pc}
   83b14:	f3af 8000 	nop.w
   83b18:	0dfdf709 	.word	0x0dfdf709
   83b1c:	3f023de1 	.word	0x3f023de1
   83b20:	7501b288 	.word	0x7501b288
   83b24:	3f49efe0 	.word	0x3f49efe0
   83b28:	b5688f3b 	.word	0xb5688f3b
   83b2c:	3fa48228 	.word	0x3fa48228
   83b30:	0e884455 	.word	0x0e884455
   83b34:	3fc9c155 	.word	0x3fc9c155
   83b38:	03eb6f7d 	.word	0x03eb6f7d
   83b3c:	3fd4d612 	.word	0x3fd4d612
   83b40:	55555555 	.word	0x55555555
   83b44:	3fc55555 	.word	0x3fc55555
   83b48:	b12e9282 	.word	0xb12e9282
   83b4c:	3fb3b8c5 	.word	0x3fb3b8c5
   83b50:	1b8d0159 	.word	0x1b8d0159
   83b54:	3fe6066c 	.word	0x3fe6066c
   83b58:	9c598ac8 	.word	0x9c598ac8
   83b5c:	40002ae5 	.word	0x40002ae5
   83b60:	1c8a2d4b 	.word	0x1c8a2d4b
   83b64:	40033a27 	.word	0x40033a27
   83b68:	54442d18 	.word	0x54442d18
   83b6c:	3ff921fb 	.word	0x3ff921fb
   83b70:	3fefffff 	.word	0x3fefffff
   83b74:	3fdfffff 	.word	0x3fdfffff
   83b78:	3ff00000 	.word	0x3ff00000
   83b7c:	3fe00000 	.word	0x3fe00000
   83b80:	3c600000 	.word	0x3c600000
   83b84:	4602      	mov	r2, r0
   83b86:	460b      	mov	r3, r1
   83b88:	f000 fbf6 	bl	84378 <__aeabi_dmul>
   83b8c:	a388      	add	r3, pc, #544	; (adr r3, 83db0 <__ieee754_acos+0x448>)
   83b8e:	e9d3 2300 	ldrd	r2, r3, [r3]
   83b92:	4606      	mov	r6, r0
   83b94:	460f      	mov	r7, r1
   83b96:	f000 fbef 	bl	84378 <__aeabi_dmul>
   83b9a:	a387      	add	r3, pc, #540	; (adr r3, 83db8 <__ieee754_acos+0x450>)
   83b9c:	e9d3 2300 	ldrd	r2, r3, [r3]
   83ba0:	f000 fa38 	bl	84014 <__adddf3>
   83ba4:	4632      	mov	r2, r6
   83ba6:	463b      	mov	r3, r7
   83ba8:	f000 fbe6 	bl	84378 <__aeabi_dmul>
   83bac:	a384      	add	r3, pc, #528	; (adr r3, 83dc0 <__ieee754_acos+0x458>)
   83bae:	e9d3 2300 	ldrd	r2, r3, [r3]
   83bb2:	f000 fa2d 	bl	84010 <__aeabi_dsub>
   83bb6:	4632      	mov	r2, r6
   83bb8:	463b      	mov	r3, r7
   83bba:	f000 fbdd 	bl	84378 <__aeabi_dmul>
   83bbe:	a382      	add	r3, pc, #520	; (adr r3, 83dc8 <__ieee754_acos+0x460>)
   83bc0:	e9d3 2300 	ldrd	r2, r3, [r3]
   83bc4:	f000 fa26 	bl	84014 <__adddf3>
   83bc8:	4632      	mov	r2, r6
   83bca:	463b      	mov	r3, r7
   83bcc:	f000 fbd4 	bl	84378 <__aeabi_dmul>
   83bd0:	a37f      	add	r3, pc, #508	; (adr r3, 83dd0 <__ieee754_acos+0x468>)
   83bd2:	e9d3 2300 	ldrd	r2, r3, [r3]
   83bd6:	f000 fa1b 	bl	84010 <__aeabi_dsub>
   83bda:	4632      	mov	r2, r6
   83bdc:	463b      	mov	r3, r7
   83bde:	f000 fbcb 	bl	84378 <__aeabi_dmul>
   83be2:	a37d      	add	r3, pc, #500	; (adr r3, 83dd8 <__ieee754_acos+0x470>)
   83be4:	e9d3 2300 	ldrd	r2, r3, [r3]
   83be8:	f000 fa14 	bl	84014 <__adddf3>
   83bec:	4632      	mov	r2, r6
   83bee:	463b      	mov	r3, r7
   83bf0:	f000 fbc2 	bl	84378 <__aeabi_dmul>
   83bf4:	a37a      	add	r3, pc, #488	; (adr r3, 83de0 <__ieee754_acos+0x478>)
   83bf6:	e9d3 2300 	ldrd	r2, r3, [r3]
   83bfa:	4680      	mov	r8, r0
   83bfc:	4689      	mov	r9, r1
   83bfe:	4630      	mov	r0, r6
   83c00:	4639      	mov	r1, r7
   83c02:	f000 fbb9 	bl	84378 <__aeabi_dmul>
   83c06:	a378      	add	r3, pc, #480	; (adr r3, 83de8 <__ieee754_acos+0x480>)
   83c08:	e9d3 2300 	ldrd	r2, r3, [r3]
   83c0c:	f000 fa00 	bl	84010 <__aeabi_dsub>
   83c10:	4632      	mov	r2, r6
   83c12:	463b      	mov	r3, r7
   83c14:	f000 fbb0 	bl	84378 <__aeabi_dmul>
   83c18:	a375      	add	r3, pc, #468	; (adr r3, 83df0 <__ieee754_acos+0x488>)
   83c1a:	e9d3 2300 	ldrd	r2, r3, [r3]
   83c1e:	f000 f9f9 	bl	84014 <__adddf3>
   83c22:	4632      	mov	r2, r6
   83c24:	463b      	mov	r3, r7
   83c26:	f000 fba7 	bl	84378 <__aeabi_dmul>
   83c2a:	a373      	add	r3, pc, #460	; (adr r3, 83df8 <__ieee754_acos+0x490>)
   83c2c:	e9d3 2300 	ldrd	r2, r3, [r3]
   83c30:	f000 f9ee 	bl	84010 <__aeabi_dsub>
   83c34:	4632      	mov	r2, r6
   83c36:	463b      	mov	r3, r7
   83c38:	f000 fb9e 	bl	84378 <__aeabi_dmul>
   83c3c:	2200      	movs	r2, #0
   83c3e:	4b76      	ldr	r3, [pc, #472]	; (83e18 <__ieee754_acos+0x4b0>)
   83c40:	f000 f9e8 	bl	84014 <__adddf3>
   83c44:	4602      	mov	r2, r0
   83c46:	460b      	mov	r3, r1
   83c48:	4640      	mov	r0, r8
   83c4a:	4649      	mov	r1, r9
   83c4c:	f000 fcbe 	bl	845cc <__aeabi_ddiv>
   83c50:	4602      	mov	r2, r0
   83c52:	460b      	mov	r3, r1
   83c54:	4620      	mov	r0, r4
   83c56:	4629      	mov	r1, r5
   83c58:	f000 fb8e 	bl	84378 <__aeabi_dmul>
   83c5c:	4602      	mov	r2, r0
   83c5e:	460b      	mov	r3, r1
   83c60:	a167      	add	r1, pc, #412	; (adr r1, 83e00 <__ieee754_acos+0x498>)
   83c62:	e9d1 0100 	ldrd	r0, r1, [r1]
   83c66:	f000 f9d3 	bl	84010 <__aeabi_dsub>
   83c6a:	4602      	mov	r2, r0
   83c6c:	460b      	mov	r3, r1
   83c6e:	4620      	mov	r0, r4
   83c70:	4629      	mov	r1, r5
   83c72:	f000 f9cd 	bl	84010 <__aeabi_dsub>
   83c76:	4602      	mov	r2, r0
   83c78:	460b      	mov	r3, r1
   83c7a:	a163      	add	r1, pc, #396	; (adr r1, 83e08 <__ieee754_acos+0x4a0>)
   83c7c:	e9d1 0100 	ldrd	r0, r1, [r1]
   83c80:	f000 f9c6 	bl	84010 <__aeabi_dsub>
   83c84:	e8bd 8ff8 	ldmia.w	sp!, {r3, r4, r5, r6, r7, r8, r9, sl, fp, pc}
   83c88:	a161      	add	r1, pc, #388	; (adr r1, 83e10 <__ieee754_acos+0x4a8>)
   83c8a:	e9d1 0100 	ldrd	r0, r1, [r1]
   83c8e:	e8bd 8ff8 	ldmia.w	sp!, {r3, r4, r5, r6, r7, r8, r9, sl, fp, pc}
   83c92:	2200      	movs	r2, #0
   83c94:	4b60      	ldr	r3, [pc, #384]	; (83e18 <__ieee754_acos+0x4b0>)
   83c96:	f000 f9bd 	bl	84014 <__adddf3>
   83c9a:	2200      	movs	r2, #0
   83c9c:	4b5f      	ldr	r3, [pc, #380]	; (83e1c <__ieee754_acos+0x4b4>)
   83c9e:	f000 fb6b 	bl	84378 <__aeabi_dmul>
   83ca2:	a343      	add	r3, pc, #268	; (adr r3, 83db0 <__ieee754_acos+0x448>)
   83ca4:	e9d3 2300 	ldrd	r2, r3, [r3]
   83ca8:	4604      	mov	r4, r0
   83caa:	460d      	mov	r5, r1
   83cac:	f000 fb64 	bl	84378 <__aeabi_dmul>
   83cb0:	a341      	add	r3, pc, #260	; (adr r3, 83db8 <__ieee754_acos+0x450>)
   83cb2:	e9d3 2300 	ldrd	r2, r3, [r3]
   83cb6:	f000 f9ad 	bl	84014 <__adddf3>
   83cba:	4622      	mov	r2, r4
   83cbc:	462b      	mov	r3, r5
   83cbe:	f000 fb5b 	bl	84378 <__aeabi_dmul>
   83cc2:	a33f      	add	r3, pc, #252	; (adr r3, 83dc0 <__ieee754_acos+0x458>)
   83cc4:	e9d3 2300 	ldrd	r2, r3, [r3]
   83cc8:	f000 f9a2 	bl	84010 <__aeabi_dsub>
   83ccc:	4622      	mov	r2, r4
   83cce:	462b      	mov	r3, r5
   83cd0:	f000 fb52 	bl	84378 <__aeabi_dmul>
   83cd4:	a33c      	add	r3, pc, #240	; (adr r3, 83dc8 <__ieee754_acos+0x460>)
   83cd6:	e9d3 2300 	ldrd	r2, r3, [r3]
   83cda:	f000 f99b 	bl	84014 <__adddf3>
   83cde:	4622      	mov	r2, r4
   83ce0:	462b      	mov	r3, r5
   83ce2:	f000 fb49 	bl	84378 <__aeabi_dmul>
   83ce6:	a33a      	add	r3, pc, #232	; (adr r3, 83dd0 <__ieee754_acos+0x468>)
   83ce8:	e9d3 2300 	ldrd	r2, r3, [r3]
   83cec:	f000 f990 	bl	84010 <__aeabi_dsub>
   83cf0:	4622      	mov	r2, r4
   83cf2:	462b      	mov	r3, r5
   83cf4:	f000 fb40 	bl	84378 <__aeabi_dmul>
   83cf8:	a337      	add	r3, pc, #220	; (adr r3, 83dd8 <__ieee754_acos+0x470>)
   83cfa:	e9d3 2300 	ldrd	r2, r3, [r3]
   83cfe:	f000 f989 	bl	84014 <__adddf3>
   83d02:	4622      	mov	r2, r4
   83d04:	462b      	mov	r3, r5
   83d06:	f000 fb37 	bl	84378 <__aeabi_dmul>
   83d0a:	4680      	mov	r8, r0
   83d0c:	4689      	mov	r9, r1
   83d0e:	4620      	mov	r0, r4
   83d10:	4629      	mov	r1, r5
   83d12:	f000 f885 	bl	83e20 <__ieee754_sqrt>
   83d16:	a332      	add	r3, pc, #200	; (adr r3, 83de0 <__ieee754_acos+0x478>)
   83d18:	e9d3 2300 	ldrd	r2, r3, [r3]
   83d1c:	4606      	mov	r6, r0
   83d1e:	460f      	mov	r7, r1
   83d20:	4620      	mov	r0, r4
   83d22:	4629      	mov	r1, r5
   83d24:	f000 fb28 	bl	84378 <__aeabi_dmul>
   83d28:	a32f      	add	r3, pc, #188	; (adr r3, 83de8 <__ieee754_acos+0x480>)
   83d2a:	e9d3 2300 	ldrd	r2, r3, [r3]
   83d2e:	f000 f96f 	bl	84010 <__aeabi_dsub>
   83d32:	4622      	mov	r2, r4
   83d34:	462b      	mov	r3, r5
   83d36:	f000 fb1f 	bl	84378 <__aeabi_dmul>
   83d3a:	a32d      	add	r3, pc, #180	; (adr r3, 83df0 <__ieee754_acos+0x488>)
   83d3c:	e9d3 2300 	ldrd	r2, r3, [r3]
   83d40:	f000 f968 	bl	84014 <__adddf3>
   83d44:	4622      	mov	r2, r4
   83d46:	462b      	mov	r3, r5
   83d48:	f000 fb16 	bl	84378 <__aeabi_dmul>
   83d4c:	a32a      	add	r3, pc, #168	; (adr r3, 83df8 <__ieee754_acos+0x490>)
   83d4e:	e9d3 2300 	ldrd	r2, r3, [r3]
   83d52:	f000 f95d 	bl	84010 <__aeabi_dsub>
   83d56:	4622      	mov	r2, r4
   83d58:	462b      	mov	r3, r5
   83d5a:	f000 fb0d 	bl	84378 <__aeabi_dmul>
   83d5e:	2200      	movs	r2, #0
   83d60:	4b2d      	ldr	r3, [pc, #180]	; (83e18 <__ieee754_acos+0x4b0>)
   83d62:	f000 f957 	bl	84014 <__adddf3>
   83d66:	4602      	mov	r2, r0
   83d68:	460b      	mov	r3, r1
   83d6a:	4640      	mov	r0, r8
   83d6c:	4649      	mov	r1, r9
   83d6e:	f000 fc2d 	bl	845cc <__aeabi_ddiv>
   83d72:	4632      	mov	r2, r6
   83d74:	463b      	mov	r3, r7
   83d76:	f000 faff 	bl	84378 <__aeabi_dmul>
   83d7a:	a321      	add	r3, pc, #132	; (adr r3, 83e00 <__ieee754_acos+0x498>)
   83d7c:	e9d3 2300 	ldrd	r2, r3, [r3]
   83d80:	f000 f946 	bl	84010 <__aeabi_dsub>
   83d84:	4602      	mov	r2, r0
   83d86:	460b      	mov	r3, r1
   83d88:	4630      	mov	r0, r6
   83d8a:	4639      	mov	r1, r7
   83d8c:	f000 f942 	bl	84014 <__adddf3>
   83d90:	4602      	mov	r2, r0
   83d92:	460b      	mov	r3, r1
   83d94:	f000 f93e 	bl	84014 <__adddf3>
   83d98:	4602      	mov	r2, r0
   83d9a:	460b      	mov	r3, r1
   83d9c:	a11c      	add	r1, pc, #112	; (adr r1, 83e10 <__ieee754_acos+0x4a8>)
   83d9e:	e9d1 0100 	ldrd	r0, r1, [r1]
   83da2:	f000 f935 	bl	84010 <__aeabi_dsub>
   83da6:	e8bd 8ff8 	ldmia.w	sp!, {r3, r4, r5, r6, r7, r8, r9, sl, fp, pc}
   83daa:	bf00      	nop
   83dac:	f3af 8000 	nop.w
   83db0:	0dfdf709 	.word	0x0dfdf709
   83db4:	3f023de1 	.word	0x3f023de1
   83db8:	7501b288 	.word	0x7501b288
   83dbc:	3f49efe0 	.word	0x3f49efe0
   83dc0:	b5688f3b 	.word	0xb5688f3b
   83dc4:	3fa48228 	.word	0x3fa48228
   83dc8:	0e884455 	.word	0x0e884455
   83dcc:	3fc9c155 	.word	0x3fc9c155
   83dd0:	03eb6f7d 	.word	0x03eb6f7d
   83dd4:	3fd4d612 	.word	0x3fd4d612
   83dd8:	55555555 	.word	0x55555555
   83ddc:	3fc55555 	.word	0x3fc55555
   83de0:	b12e9282 	.word	0xb12e9282
   83de4:	3fb3b8c5 	.word	0x3fb3b8c5
   83de8:	1b8d0159 	.word	0x1b8d0159
   83dec:	3fe6066c 	.word	0x3fe6066c
   83df0:	9c598ac8 	.word	0x9c598ac8
   83df4:	40002ae5 	.word	0x40002ae5
   83df8:	1c8a2d4b 	.word	0x1c8a2d4b
   83dfc:	40033a27 	.word	0x40033a27
   83e00:	33145c07 	.word	0x33145c07
   83e04:	3c91a626 	.word	0x3c91a626
   83e08:	54442d18 	.word	0x54442d18
   83e0c:	3ff921fb 	.word	0x3ff921fb
   83e10:	54442d18 	.word	0x54442d18
   83e14:	400921fb 	.word	0x400921fb
   83e18:	3ff00000 	.word	0x3ff00000
   83e1c:	3fe00000 	.word	0x3fe00000

00083e20 <__ieee754_sqrt>:
   83e20:	f021 4c00 	bic.w	ip, r1, #2147483648	; 0x80000000
   83e24:	e92d 43f8 	stmdb	sp!, {r3, r4, r5, r6, r7, r8, r9, lr}
   83e28:	ea4f 5c1c 	mov.w	ip, ip, lsr #20
   83e2c:	f8df 816c 	ldr.w	r8, [pc, #364]	; 83f9c <__ieee754_sqrt+0x17c>
   83e30:	ea4f 5c0c 	mov.w	ip, ip, lsl #20
   83e34:	45c4      	cmp	ip, r8
   83e36:	4606      	mov	r6, r0
   83e38:	460f      	mov	r7, r1
   83e3a:	460b      	mov	r3, r1
   83e3c:	4602      	mov	r2, r0
   83e3e:	f000 808f 	beq.w	83f60 <__ieee754_sqrt+0x140>
   83e42:	2900      	cmp	r1, #0
   83e44:	dd6f      	ble.n	83f26 <__ieee754_sqrt+0x106>
   83e46:	150f      	asrs	r7, r1, #20
   83e48:	d078      	beq.n	83f3c <__ieee754_sqrt+0x11c>
   83e4a:	f2a7 37ff 	subw	r7, r7, #1023	; 0x3ff
   83e4e:	f3c3 0313 	ubfx	r3, r3, #0, #20
   83e52:	07f9      	lsls	r1, r7, #31
   83e54:	f443 1380 	orr.w	r3, r3, #1048576	; 0x100000
   83e58:	d460      	bmi.n	83f1c <__ieee754_sqrt+0xfc>
   83e5a:	0fd1      	lsrs	r1, r2, #31
   83e5c:	f04f 0c00 	mov.w	ip, #0
   83e60:	eb01 0343 	add.w	r3, r1, r3, lsl #1
   83e64:	107f      	asrs	r7, r7, #1
   83e66:	0052      	lsls	r2, r2, #1
   83e68:	4665      	mov	r5, ip
   83e6a:	2016      	movs	r0, #22
   83e6c:	f44f 1100 	mov.w	r1, #2097152	; 0x200000
   83e70:	186c      	adds	r4, r5, r1
   83e72:	429c      	cmp	r4, r3
   83e74:	ea4f 76d2 	mov.w	r6, r2, lsr #31
   83e78:	ea4f 0242 	mov.w	r2, r2, lsl #1
   83e7c:	dc02      	bgt.n	83e84 <__ieee754_sqrt+0x64>
   83e7e:	1b1b      	subs	r3, r3, r4
   83e80:	1865      	adds	r5, r4, r1
   83e82:	448c      	add	ip, r1
   83e84:	3801      	subs	r0, #1
   83e86:	eb06 0343 	add.w	r3, r6, r3, lsl #1
   83e8a:	ea4f 0151 	mov.w	r1, r1, lsr #1
   83e8e:	d1ef      	bne.n	83e70 <__ieee754_sqrt+0x50>
   83e90:	4680      	mov	r8, r0
   83e92:	2620      	movs	r6, #32
   83e94:	f04f 4100 	mov.w	r1, #2147483648	; 0x80000000
   83e98:	e009      	b.n	83eae <__ieee754_sqrt+0x8e>
   83e9a:	d023      	beq.n	83ee4 <__ieee754_sqrt+0xc4>
   83e9c:	0fd4      	lsrs	r4, r2, #31
   83e9e:	3e01      	subs	r6, #1
   83ea0:	ea4f 0151 	mov.w	r1, r1, lsr #1
   83ea4:	eb04 0343 	add.w	r3, r4, r3, lsl #1
   83ea8:	ea4f 0242 	mov.w	r2, r2, lsl #1
   83eac:	d01e      	beq.n	83eec <__ieee754_sqrt+0xcc>
   83eae:	42ab      	cmp	r3, r5
   83eb0:	eb01 0408 	add.w	r4, r1, r8
   83eb4:	ddf1      	ble.n	83e9a <__ieee754_sqrt+0x7a>
   83eb6:	f004 4900 	and.w	r9, r4, #2147483648	; 0x80000000
   83eba:	f1b9 4f00 	cmp.w	r9, #2147483648	; 0x80000000
   83ebe:	eb04 0801 	add.w	r8, r4, r1
   83ec2:	d009      	beq.n	83ed8 <__ieee754_sqrt+0xb8>
   83ec4:	46a9      	mov	r9, r5
   83ec6:	1b5b      	subs	r3, r3, r5
   83ec8:	4294      	cmp	r4, r2
   83eca:	bf88      	it	hi
   83ecc:	f103 33ff 	addhi.w	r3, r3, #4294967295
   83ed0:	1b12      	subs	r2, r2, r4
   83ed2:	4408      	add	r0, r1
   83ed4:	464d      	mov	r5, r9
   83ed6:	e7e1      	b.n	83e9c <__ieee754_sqrt+0x7c>
   83ed8:	f1b8 0f00 	cmp.w	r8, #0
   83edc:	dbf2      	blt.n	83ec4 <__ieee754_sqrt+0xa4>
   83ede:	f105 0901 	add.w	r9, r5, #1
   83ee2:	e7f0      	b.n	83ec6 <__ieee754_sqrt+0xa6>
   83ee4:	4294      	cmp	r4, r2
   83ee6:	d9e6      	bls.n	83eb6 <__ieee754_sqrt+0x96>
   83ee8:	461d      	mov	r5, r3
   83eea:	e7d7      	b.n	83e9c <__ieee754_sqrt+0x7c>
   83eec:	431a      	orrs	r2, r3
   83eee:	d004      	beq.n	83efa <__ieee754_sqrt+0xda>
   83ef0:	1c43      	adds	r3, r0, #1
   83ef2:	d041      	beq.n	83f78 <__ieee754_sqrt+0x158>
   83ef4:	f000 0301 	and.w	r3, r0, #1
   83ef8:	4418      	add	r0, r3
   83efa:	0846      	lsrs	r6, r0, #1
   83efc:	ea4f 036c 	mov.w	r3, ip, asr #1
   83f00:	f01c 0f01 	tst.w	ip, #1
   83f04:	f103 537f 	add.w	r3, r3, #1069547520	; 0x3fc00000
   83f08:	f503 1300 	add.w	r3, r3, #2097152	; 0x200000
   83f0c:	bf18      	it	ne
   83f0e:	f046 4600 	orrne.w	r6, r6, #2147483648	; 0x80000000
   83f12:	eb03 5107 	add.w	r1, r3, r7, lsl #20
   83f16:	4630      	mov	r0, r6
   83f18:	e8bd 83f8 	ldmia.w	sp!, {r3, r4, r5, r6, r7, r8, r9, pc}
   83f1c:	0fd1      	lsrs	r1, r2, #31
   83f1e:	eb01 0343 	add.w	r3, r1, r3, lsl #1
   83f22:	0052      	lsls	r2, r2, #1
   83f24:	e799      	b.n	83e5a <__ieee754_sqrt+0x3a>
   83f26:	f021 4300 	bic.w	r3, r1, #2147483648	; 0x80000000
   83f2a:	4303      	orrs	r3, r0
   83f2c:	d022      	beq.n	83f74 <__ieee754_sqrt+0x154>
   83f2e:	bb51      	cbnz	r1, 83f86 <__ieee754_sqrt+0x166>
   83f30:	460f      	mov	r7, r1
   83f32:	0ad3      	lsrs	r3, r2, #11
   83f34:	3f15      	subs	r7, #21
   83f36:	0552      	lsls	r2, r2, #21
   83f38:	2b00      	cmp	r3, #0
   83f3a:	d0fa      	beq.n	83f32 <__ieee754_sqrt+0x112>
   83f3c:	f413 1180 	ands.w	r1, r3, #1048576	; 0x100000
   83f40:	d11d      	bne.n	83f7e <__ieee754_sqrt+0x15e>
   83f42:	005b      	lsls	r3, r3, #1
   83f44:	02d8      	lsls	r0, r3, #11
   83f46:	f101 0101 	add.w	r1, r1, #1
   83f4a:	d5fa      	bpl.n	83f42 <__ieee754_sqrt+0x122>
   83f4c:	f1c1 0001 	rsb	r0, r1, #1
   83f50:	f1c1 0420 	rsb	r4, r1, #32
   83f54:	fa22 f404 	lsr.w	r4, r2, r4
   83f58:	4407      	add	r7, r0
   83f5a:	408a      	lsls	r2, r1
   83f5c:	4323      	orrs	r3, r4
   83f5e:	e774      	b.n	83e4a <__ieee754_sqrt+0x2a>
   83f60:	4602      	mov	r2, r0
   83f62:	460b      	mov	r3, r1
   83f64:	f000 fa08 	bl	84378 <__aeabi_dmul>
   83f68:	4632      	mov	r2, r6
   83f6a:	463b      	mov	r3, r7
   83f6c:	f000 f852 	bl	84014 <__adddf3>
   83f70:	e8bd 83f8 	ldmia.w	sp!, {r3, r4, r5, r6, r7, r8, r9, pc}
   83f74:	e8bd 83f8 	ldmia.w	sp!, {r3, r4, r5, r6, r7, r8, r9, pc}
   83f78:	f10c 0c01 	add.w	ip, ip, #1
   83f7c:	e7be      	b.n	83efc <__ieee754_sqrt+0xdc>
   83f7e:	2420      	movs	r4, #32
   83f80:	2001      	movs	r0, #1
   83f82:	2100      	movs	r1, #0
   83f84:	e7e6      	b.n	83f54 <__ieee754_sqrt+0x134>
   83f86:	4602      	mov	r2, r0
   83f88:	460b      	mov	r3, r1
   83f8a:	f000 f841 	bl	84010 <__aeabi_dsub>
   83f8e:	4602      	mov	r2, r0
   83f90:	460b      	mov	r3, r1
   83f92:	f000 fb1b 	bl	845cc <__aeabi_ddiv>
   83f96:	e8bd 83f8 	ldmia.w	sp!, {r3, r4, r5, r6, r7, r8, r9, pc}
   83f9a:	bf00      	nop
   83f9c:	7ff00000 	.word	0x7ff00000

00083fa0 <fabs>:
   83fa0:	f021 4100 	bic.w	r1, r1, #2147483648	; 0x80000000
   83fa4:	4770      	bx	lr
   83fa6:	bf00      	nop

00083fa8 <__fpclassifyd>:
   83fa8:	f031 4300 	bics.w	r3, r1, #2147483648	; 0x80000000
   83fac:	b410      	push	{r4}
   83fae:	d008      	beq.n	83fc2 <__fpclassifyd+0x1a>
   83fb0:	4a0f      	ldr	r2, [pc, #60]	; (83ff0 <__fpclassifyd+0x48>)
   83fb2:	f5a3 1480 	sub.w	r4, r3, #1048576	; 0x100000
   83fb6:	4294      	cmp	r4, r2
   83fb8:	d80a      	bhi.n	83fd0 <__fpclassifyd+0x28>
   83fba:	2004      	movs	r0, #4
   83fbc:	f85d 4b04 	ldr.w	r4, [sp], #4
   83fc0:	4770      	bx	lr
   83fc2:	2800      	cmp	r0, #0
   83fc4:	bf0c      	ite	eq
   83fc6:	2002      	moveq	r0, #2
   83fc8:	2003      	movne	r0, #3
   83fca:	f85d 4b04 	ldr.w	r4, [sp], #4
   83fce:	4770      	bx	lr
   83fd0:	f5b3 1f80 	cmp.w	r3, #1048576	; 0x100000
   83fd4:	d201      	bcs.n	83fda <__fpclassifyd+0x32>
   83fd6:	2003      	movs	r0, #3
   83fd8:	e7f7      	b.n	83fca <__fpclassifyd+0x22>
   83fda:	4a06      	ldr	r2, [pc, #24]	; (83ff4 <__fpclassifyd+0x4c>)
   83fdc:	4293      	cmp	r3, r2
   83fde:	d001      	beq.n	83fe4 <__fpclassifyd+0x3c>
   83fe0:	2000      	movs	r0, #0
   83fe2:	e7f2      	b.n	83fca <__fpclassifyd+0x22>
   83fe4:	f1d0 0001 	rsbs	r0, r0, #1
   83fe8:	bf38      	it	cc
   83fea:	2000      	movcc	r0, #0
   83fec:	e7ed      	b.n	83fca <__fpclassifyd+0x22>
   83fee:	bf00      	nop
   83ff0:	7fdfffff 	.word	0x7fdfffff
   83ff4:	7ff00000 	.word	0x7ff00000

00083ff8 <matherr>:
   83ff8:	2000      	movs	r0, #0
   83ffa:	4770      	bx	lr

00083ffc <nan>:
   83ffc:	2000      	movs	r0, #0
   83ffe:	4901      	ldr	r1, [pc, #4]	; (84004 <nan+0x8>)
   84000:	4770      	bx	lr
   84002:	bf00      	nop
   84004:	7ff80000 	.word	0x7ff80000

00084008 <__aeabi_drsub>:
   84008:	f081 4100 	eor.w	r1, r1, #2147483648	; 0x80000000
   8400c:	e002      	b.n	84014 <__adddf3>
   8400e:	bf00      	nop

00084010 <__aeabi_dsub>:
   84010:	f083 4300 	eor.w	r3, r3, #2147483648	; 0x80000000

00084014 <__adddf3>:
   84014:	b530      	push	{r4, r5, lr}
   84016:	ea4f 0441 	mov.w	r4, r1, lsl #1
   8401a:	ea4f 0543 	mov.w	r5, r3, lsl #1
   8401e:	ea94 0f05 	teq	r4, r5
   84022:	bf08      	it	eq
   84024:	ea90 0f02 	teqeq	r0, r2
   84028:	bf1f      	itttt	ne
   8402a:	ea54 0c00 	orrsne.w	ip, r4, r0
   8402e:	ea55 0c02 	orrsne.w	ip, r5, r2
   84032:	ea7f 5c64 	mvnsne.w	ip, r4, asr #21
   84036:	ea7f 5c65 	mvnsne.w	ip, r5, asr #21
   8403a:	f000 80e2 	beq.w	84202 <__adddf3+0x1ee>
   8403e:	ea4f 5454 	mov.w	r4, r4, lsr #21
   84042:	ebd4 5555 	rsbs	r5, r4, r5, lsr #21
   84046:	bfb8      	it	lt
   84048:	426d      	neglt	r5, r5
   8404a:	dd0c      	ble.n	84066 <__adddf3+0x52>
   8404c:	442c      	add	r4, r5
   8404e:	ea80 0202 	eor.w	r2, r0, r2
   84052:	ea81 0303 	eor.w	r3, r1, r3
   84056:	ea82 0000 	eor.w	r0, r2, r0
   8405a:	ea83 0101 	eor.w	r1, r3, r1
   8405e:	ea80 0202 	eor.w	r2, r0, r2
   84062:	ea81 0303 	eor.w	r3, r1, r3
   84066:	2d36      	cmp	r5, #54	; 0x36
   84068:	bf88      	it	hi
   8406a:	bd30      	pophi	{r4, r5, pc}
   8406c:	f011 4f00 	tst.w	r1, #2147483648	; 0x80000000
   84070:	ea4f 3101 	mov.w	r1, r1, lsl #12
   84074:	f44f 1c80 	mov.w	ip, #1048576	; 0x100000
   84078:	ea4c 3111 	orr.w	r1, ip, r1, lsr #12
   8407c:	d002      	beq.n	84084 <__adddf3+0x70>
   8407e:	4240      	negs	r0, r0
   84080:	eb61 0141 	sbc.w	r1, r1, r1, lsl #1
   84084:	f013 4f00 	tst.w	r3, #2147483648	; 0x80000000
   84088:	ea4f 3303 	mov.w	r3, r3, lsl #12
   8408c:	ea4c 3313 	orr.w	r3, ip, r3, lsr #12
   84090:	d002      	beq.n	84098 <__adddf3+0x84>
   84092:	4252      	negs	r2, r2
   84094:	eb63 0343 	sbc.w	r3, r3, r3, lsl #1
   84098:	ea94 0f05 	teq	r4, r5
   8409c:	f000 80a7 	beq.w	841ee <__adddf3+0x1da>
   840a0:	f1a4 0401 	sub.w	r4, r4, #1
   840a4:	f1d5 0e20 	rsbs	lr, r5, #32
   840a8:	db0d      	blt.n	840c6 <__adddf3+0xb2>
   840aa:	fa02 fc0e 	lsl.w	ip, r2, lr
   840ae:	fa22 f205 	lsr.w	r2, r2, r5
   840b2:	1880      	adds	r0, r0, r2
   840b4:	f141 0100 	adc.w	r1, r1, #0
   840b8:	fa03 f20e 	lsl.w	r2, r3, lr
   840bc:	1880      	adds	r0, r0, r2
   840be:	fa43 f305 	asr.w	r3, r3, r5
   840c2:	4159      	adcs	r1, r3
   840c4:	e00e      	b.n	840e4 <__adddf3+0xd0>
   840c6:	f1a5 0520 	sub.w	r5, r5, #32
   840ca:	f10e 0e20 	add.w	lr, lr, #32
   840ce:	2a01      	cmp	r2, #1
   840d0:	fa03 fc0e 	lsl.w	ip, r3, lr
   840d4:	bf28      	it	cs
   840d6:	f04c 0c02 	orrcs.w	ip, ip, #2
   840da:	fa43 f305 	asr.w	r3, r3, r5
   840de:	18c0      	adds	r0, r0, r3
   840e0:	eb51 71e3 	adcs.w	r1, r1, r3, asr #31
   840e4:	f001 4500 	and.w	r5, r1, #2147483648	; 0x80000000
   840e8:	d507      	bpl.n	840fa <__adddf3+0xe6>
   840ea:	f04f 0e00 	mov.w	lr, #0
   840ee:	f1dc 0c00 	rsbs	ip, ip, #0
   840f2:	eb7e 0000 	sbcs.w	r0, lr, r0
   840f6:	eb6e 0101 	sbc.w	r1, lr, r1
   840fa:	f5b1 1f80 	cmp.w	r1, #1048576	; 0x100000
   840fe:	d31b      	bcc.n	84138 <__adddf3+0x124>
   84100:	f5b1 1f00 	cmp.w	r1, #2097152	; 0x200000
   84104:	d30c      	bcc.n	84120 <__adddf3+0x10c>
   84106:	0849      	lsrs	r1, r1, #1
   84108:	ea5f 0030 	movs.w	r0, r0, rrx
   8410c:	ea4f 0c3c 	mov.w	ip, ip, rrx
   84110:	f104 0401 	add.w	r4, r4, #1
   84114:	ea4f 5244 	mov.w	r2, r4, lsl #21
   84118:	f512 0f80 	cmn.w	r2, #4194304	; 0x400000
   8411c:	f080 809a 	bcs.w	84254 <__adddf3+0x240>
   84120:	f1bc 4f00 	cmp.w	ip, #2147483648	; 0x80000000
   84124:	bf08      	it	eq
   84126:	ea5f 0c50 	movseq.w	ip, r0, lsr #1
   8412a:	f150 0000 	adcs.w	r0, r0, #0
   8412e:	eb41 5104 	adc.w	r1, r1, r4, lsl #20
   84132:	ea41 0105 	orr.w	r1, r1, r5
   84136:	bd30      	pop	{r4, r5, pc}
   84138:	ea5f 0c4c 	movs.w	ip, ip, lsl #1
   8413c:	4140      	adcs	r0, r0
   8413e:	eb41 0101 	adc.w	r1, r1, r1
   84142:	f411 1f80 	tst.w	r1, #1048576	; 0x100000
   84146:	f1a4 0401 	sub.w	r4, r4, #1
   8414a:	d1e9      	bne.n	84120 <__adddf3+0x10c>
   8414c:	f091 0f00 	teq	r1, #0
   84150:	bf04      	itt	eq
   84152:	4601      	moveq	r1, r0
   84154:	2000      	moveq	r0, #0
   84156:	fab1 f381 	clz	r3, r1
   8415a:	bf08      	it	eq
   8415c:	3320      	addeq	r3, #32
   8415e:	f1a3 030b 	sub.w	r3, r3, #11
   84162:	f1b3 0220 	subs.w	r2, r3, #32
   84166:	da0c      	bge.n	84182 <__adddf3+0x16e>
   84168:	320c      	adds	r2, #12
   8416a:	dd08      	ble.n	8417e <__adddf3+0x16a>
   8416c:	f102 0c14 	add.w	ip, r2, #20
   84170:	f1c2 020c 	rsb	r2, r2, #12
   84174:	fa01 f00c 	lsl.w	r0, r1, ip
   84178:	fa21 f102 	lsr.w	r1, r1, r2
   8417c:	e00c      	b.n	84198 <__adddf3+0x184>
   8417e:	f102 0214 	add.w	r2, r2, #20
   84182:	bfd8      	it	le
   84184:	f1c2 0c20 	rsble	ip, r2, #32
   84188:	fa01 f102 	lsl.w	r1, r1, r2
   8418c:	fa20 fc0c 	lsr.w	ip, r0, ip
   84190:	bfdc      	itt	le
   84192:	ea41 010c 	orrle.w	r1, r1, ip
   84196:	4090      	lslle	r0, r2
   84198:	1ae4      	subs	r4, r4, r3
   8419a:	bfa2      	ittt	ge
   8419c:	eb01 5104 	addge.w	r1, r1, r4, lsl #20
   841a0:	4329      	orrge	r1, r5
   841a2:	bd30      	popge	{r4, r5, pc}
   841a4:	ea6f 0404 	mvn.w	r4, r4
   841a8:	3c1f      	subs	r4, #31
   841aa:	da1c      	bge.n	841e6 <__adddf3+0x1d2>
   841ac:	340c      	adds	r4, #12
   841ae:	dc0e      	bgt.n	841ce <__adddf3+0x1ba>
   841b0:	f104 0414 	add.w	r4, r4, #20
   841b4:	f1c4 0220 	rsb	r2, r4, #32
   841b8:	fa20 f004 	lsr.w	r0, r0, r4
   841bc:	fa01 f302 	lsl.w	r3, r1, r2
   841c0:	ea40 0003 	orr.w	r0, r0, r3
   841c4:	fa21 f304 	lsr.w	r3, r1, r4
   841c8:	ea45 0103 	orr.w	r1, r5, r3
   841cc:	bd30      	pop	{r4, r5, pc}
   841ce:	f1c4 040c 	rsb	r4, r4, #12
   841d2:	f1c4 0220 	rsb	r2, r4, #32
   841d6:	fa20 f002 	lsr.w	r0, r0, r2
   841da:	fa01 f304 	lsl.w	r3, r1, r4
   841de:	ea40 0003 	orr.w	r0, r0, r3
   841e2:	4629      	mov	r1, r5
   841e4:	bd30      	pop	{r4, r5, pc}
   841e6:	fa21 f004 	lsr.w	r0, r1, r4
   841ea:	4629      	mov	r1, r5
   841ec:	bd30      	pop	{r4, r5, pc}
   841ee:	f094 0f00 	teq	r4, #0
   841f2:	f483 1380 	eor.w	r3, r3, #1048576	; 0x100000
   841f6:	bf06      	itte	eq
   841f8:	f481 1180 	eoreq.w	r1, r1, #1048576	; 0x100000
   841fc:	3401      	addeq	r4, #1
   841fe:	3d01      	subne	r5, #1
   84200:	e74e      	b.n	840a0 <__adddf3+0x8c>
   84202:	ea7f 5c64 	mvns.w	ip, r4, asr #21
   84206:	bf18      	it	ne
   84208:	ea7f 5c65 	mvnsne.w	ip, r5, asr #21
   8420c:	d029      	beq.n	84262 <__adddf3+0x24e>
   8420e:	ea94 0f05 	teq	r4, r5
   84212:	bf08      	it	eq
   84214:	ea90 0f02 	teqeq	r0, r2
   84218:	d005      	beq.n	84226 <__adddf3+0x212>
   8421a:	ea54 0c00 	orrs.w	ip, r4, r0
   8421e:	bf04      	itt	eq
   84220:	4619      	moveq	r1, r3
   84222:	4610      	moveq	r0, r2
   84224:	bd30      	pop	{r4, r5, pc}
   84226:	ea91 0f03 	teq	r1, r3
   8422a:	bf1e      	ittt	ne
   8422c:	2100      	movne	r1, #0
   8422e:	2000      	movne	r0, #0
   84230:	bd30      	popne	{r4, r5, pc}
   84232:	ea5f 5c54 	movs.w	ip, r4, lsr #21
   84236:	d105      	bne.n	84244 <__adddf3+0x230>
   84238:	0040      	lsls	r0, r0, #1
   8423a:	4149      	adcs	r1, r1
   8423c:	bf28      	it	cs
   8423e:	f041 4100 	orrcs.w	r1, r1, #2147483648	; 0x80000000
   84242:	bd30      	pop	{r4, r5, pc}
   84244:	f514 0480 	adds.w	r4, r4, #4194304	; 0x400000
   84248:	bf3c      	itt	cc
   8424a:	f501 1180 	addcc.w	r1, r1, #1048576	; 0x100000
   8424e:	bd30      	popcc	{r4, r5, pc}
   84250:	f001 4500 	and.w	r5, r1, #2147483648	; 0x80000000
   84254:	f045 41fe 	orr.w	r1, r5, #2130706432	; 0x7f000000
   84258:	f441 0170 	orr.w	r1, r1, #15728640	; 0xf00000
   8425c:	f04f 0000 	mov.w	r0, #0
   84260:	bd30      	pop	{r4, r5, pc}
   84262:	ea7f 5c64 	mvns.w	ip, r4, asr #21
   84266:	bf1a      	itte	ne
   84268:	4619      	movne	r1, r3
   8426a:	4610      	movne	r0, r2
   8426c:	ea7f 5c65 	mvnseq.w	ip, r5, asr #21
   84270:	bf1c      	itt	ne
   84272:	460b      	movne	r3, r1
   84274:	4602      	movne	r2, r0
   84276:	ea50 3401 	orrs.w	r4, r0, r1, lsl #12
   8427a:	bf06      	itte	eq
   8427c:	ea52 3503 	orrseq.w	r5, r2, r3, lsl #12
   84280:	ea91 0f03 	teqeq	r1, r3
   84284:	f441 2100 	orrne.w	r1, r1, #524288	; 0x80000
   84288:	bd30      	pop	{r4, r5, pc}
   8428a:	bf00      	nop

0008428c <__aeabi_ui2d>:
   8428c:	f090 0f00 	teq	r0, #0
   84290:	bf04      	itt	eq
   84292:	2100      	moveq	r1, #0
   84294:	4770      	bxeq	lr
   84296:	b530      	push	{r4, r5, lr}
   84298:	f44f 6480 	mov.w	r4, #1024	; 0x400
   8429c:	f104 0432 	add.w	r4, r4, #50	; 0x32
   842a0:	f04f 0500 	mov.w	r5, #0
   842a4:	f04f 0100 	mov.w	r1, #0
   842a8:	e750      	b.n	8414c <__adddf3+0x138>
   842aa:	bf00      	nop

000842ac <__aeabi_i2d>:
   842ac:	f090 0f00 	teq	r0, #0
   842b0:	bf04      	itt	eq
   842b2:	2100      	moveq	r1, #0
   842b4:	4770      	bxeq	lr
   842b6:	b530      	push	{r4, r5, lr}
   842b8:	f44f 6480 	mov.w	r4, #1024	; 0x400
   842bc:	f104 0432 	add.w	r4, r4, #50	; 0x32
   842c0:	f010 4500 	ands.w	r5, r0, #2147483648	; 0x80000000
   842c4:	bf48      	it	mi
   842c6:	4240      	negmi	r0, r0
   842c8:	f04f 0100 	mov.w	r1, #0
   842cc:	e73e      	b.n	8414c <__adddf3+0x138>
   842ce:	bf00      	nop

000842d0 <__aeabi_f2d>:
   842d0:	0042      	lsls	r2, r0, #1
   842d2:	ea4f 01e2 	mov.w	r1, r2, asr #3
   842d6:	ea4f 0131 	mov.w	r1, r1, rrx
   842da:	ea4f 7002 	mov.w	r0, r2, lsl #28
   842de:	bf1f      	itttt	ne
   842e0:	f012 437f 	andsne.w	r3, r2, #4278190080	; 0xff000000
   842e4:	f093 4f7f 	teqne	r3, #4278190080	; 0xff000000
   842e8:	f081 5160 	eorne.w	r1, r1, #939524096	; 0x38000000
   842ec:	4770      	bxne	lr
   842ee:	f092 0f00 	teq	r2, #0
   842f2:	bf14      	ite	ne
   842f4:	f093 4f7f 	teqne	r3, #4278190080	; 0xff000000
   842f8:	4770      	bxeq	lr
   842fa:	b530      	push	{r4, r5, lr}
   842fc:	f44f 7460 	mov.w	r4, #896	; 0x380
   84300:	f001 4500 	and.w	r5, r1, #2147483648	; 0x80000000
   84304:	f021 4100 	bic.w	r1, r1, #2147483648	; 0x80000000
   84308:	e720      	b.n	8414c <__adddf3+0x138>
   8430a:	bf00      	nop

0008430c <__aeabi_ul2d>:
   8430c:	ea50 0201 	orrs.w	r2, r0, r1
   84310:	bf08      	it	eq
   84312:	4770      	bxeq	lr
   84314:	b530      	push	{r4, r5, lr}
   84316:	f04f 0500 	mov.w	r5, #0
   8431a:	e00a      	b.n	84332 <__aeabi_l2d+0x16>

0008431c <__aeabi_l2d>:
   8431c:	ea50 0201 	orrs.w	r2, r0, r1
   84320:	bf08      	it	eq
   84322:	4770      	bxeq	lr
   84324:	b530      	push	{r4, r5, lr}
   84326:	f011 4500 	ands.w	r5, r1, #2147483648	; 0x80000000
   8432a:	d502      	bpl.n	84332 <__aeabi_l2d+0x16>
   8432c:	4240      	negs	r0, r0
   8432e:	eb61 0141 	sbc.w	r1, r1, r1, lsl #1
   84332:	f44f 6480 	mov.w	r4, #1024	; 0x400
   84336:	f104 0432 	add.w	r4, r4, #50	; 0x32
   8433a:	ea5f 5c91 	movs.w	ip, r1, lsr #22
   8433e:	f43f aedc 	beq.w	840fa <__adddf3+0xe6>
   84342:	f04f 0203 	mov.w	r2, #3
   84346:	ea5f 0cdc 	movs.w	ip, ip, lsr #3
   8434a:	bf18      	it	ne
   8434c:	3203      	addne	r2, #3
   8434e:	ea5f 0cdc 	movs.w	ip, ip, lsr #3
   84352:	bf18      	it	ne
   84354:	3203      	addne	r2, #3
   84356:	eb02 02dc 	add.w	r2, r2, ip, lsr #3
   8435a:	f1c2 0320 	rsb	r3, r2, #32
   8435e:	fa00 fc03 	lsl.w	ip, r0, r3
   84362:	fa20 f002 	lsr.w	r0, r0, r2
   84366:	fa01 fe03 	lsl.w	lr, r1, r3
   8436a:	ea40 000e 	orr.w	r0, r0, lr
   8436e:	fa21 f102 	lsr.w	r1, r1, r2
   84372:	4414      	add	r4, r2
   84374:	e6c1      	b.n	840fa <__adddf3+0xe6>
   84376:	bf00      	nop

00084378 <__aeabi_dmul>:
   84378:	b570      	push	{r4, r5, r6, lr}
   8437a:	f04f 0cff 	mov.w	ip, #255	; 0xff
   8437e:	f44c 6ce0 	orr.w	ip, ip, #1792	; 0x700
   84382:	ea1c 5411 	ands.w	r4, ip, r1, lsr #20
   84386:	bf1d      	ittte	ne
   84388:	ea1c 5513 	andsne.w	r5, ip, r3, lsr #20
   8438c:	ea94 0f0c 	teqne	r4, ip
   84390:	ea95 0f0c 	teqne	r5, ip
   84394:	f000 f8de 	bleq	84554 <__aeabi_dmul+0x1dc>
   84398:	442c      	add	r4, r5
   8439a:	ea81 0603 	eor.w	r6, r1, r3
   8439e:	ea21 514c 	bic.w	r1, r1, ip, lsl #21
   843a2:	ea23 534c 	bic.w	r3, r3, ip, lsl #21
   843a6:	ea50 3501 	orrs.w	r5, r0, r1, lsl #12
   843aa:	bf18      	it	ne
   843ac:	ea52 3503 	orrsne.w	r5, r2, r3, lsl #12
   843b0:	f441 1180 	orr.w	r1, r1, #1048576	; 0x100000
   843b4:	f443 1380 	orr.w	r3, r3, #1048576	; 0x100000
   843b8:	d038      	beq.n	8442c <__aeabi_dmul+0xb4>
   843ba:	fba0 ce02 	umull	ip, lr, r0, r2
   843be:	f04f 0500 	mov.w	r5, #0
   843c2:	fbe1 e502 	umlal	lr, r5, r1, r2
   843c6:	f006 4200 	and.w	r2, r6, #2147483648	; 0x80000000
   843ca:	fbe0 e503 	umlal	lr, r5, r0, r3
   843ce:	f04f 0600 	mov.w	r6, #0
   843d2:	fbe1 5603 	umlal	r5, r6, r1, r3
   843d6:	f09c 0f00 	teq	ip, #0
   843da:	bf18      	it	ne
   843dc:	f04e 0e01 	orrne.w	lr, lr, #1
   843e0:	f1a4 04ff 	sub.w	r4, r4, #255	; 0xff
   843e4:	f5b6 7f00 	cmp.w	r6, #512	; 0x200
   843e8:	f564 7440 	sbc.w	r4, r4, #768	; 0x300
   843ec:	d204      	bcs.n	843f8 <__aeabi_dmul+0x80>
   843ee:	ea5f 0e4e 	movs.w	lr, lr, lsl #1
   843f2:	416d      	adcs	r5, r5
   843f4:	eb46 0606 	adc.w	r6, r6, r6
   843f8:	ea42 21c6 	orr.w	r1, r2, r6, lsl #11
   843fc:	ea41 5155 	orr.w	r1, r1, r5, lsr #21
   84400:	ea4f 20c5 	mov.w	r0, r5, lsl #11
   84404:	ea40 505e 	orr.w	r0, r0, lr, lsr #21
   84408:	ea4f 2ece 	mov.w	lr, lr, lsl #11
   8440c:	f1b4 0cfd 	subs.w	ip, r4, #253	; 0xfd
   84410:	bf88      	it	hi
   84412:	f5bc 6fe0 	cmphi.w	ip, #1792	; 0x700
   84416:	d81e      	bhi.n	84456 <__aeabi_dmul+0xde>
   84418:	f1be 4f00 	cmp.w	lr, #2147483648	; 0x80000000
   8441c:	bf08      	it	eq
   8441e:	ea5f 0e50 	movseq.w	lr, r0, lsr #1
   84422:	f150 0000 	adcs.w	r0, r0, #0
   84426:	eb41 5104 	adc.w	r1, r1, r4, lsl #20
   8442a:	bd70      	pop	{r4, r5, r6, pc}
   8442c:	f006 4600 	and.w	r6, r6, #2147483648	; 0x80000000
   84430:	ea46 0101 	orr.w	r1, r6, r1
   84434:	ea40 0002 	orr.w	r0, r0, r2
   84438:	ea81 0103 	eor.w	r1, r1, r3
   8443c:	ebb4 045c 	subs.w	r4, r4, ip, lsr #1
   84440:	bfc2      	ittt	gt
   84442:	ebd4 050c 	rsbsgt	r5, r4, ip
   84446:	ea41 5104 	orrgt.w	r1, r1, r4, lsl #20
   8444a:	bd70      	popgt	{r4, r5, r6, pc}
   8444c:	f441 1180 	orr.w	r1, r1, #1048576	; 0x100000
   84450:	f04f 0e00 	mov.w	lr, #0
   84454:	3c01      	subs	r4, #1
   84456:	f300 80ab 	bgt.w	845b0 <__aeabi_dmul+0x238>
   8445a:	f114 0f36 	cmn.w	r4, #54	; 0x36
   8445e:	bfde      	ittt	le
   84460:	2000      	movle	r0, #0
   84462:	f001 4100 	andle.w	r1, r1, #2147483648	; 0x80000000
   84466:	bd70      	pople	{r4, r5, r6, pc}
   84468:	f1c4 0400 	rsb	r4, r4, #0
   8446c:	3c20      	subs	r4, #32
   8446e:	da35      	bge.n	844dc <__aeabi_dmul+0x164>
   84470:	340c      	adds	r4, #12
   84472:	dc1b      	bgt.n	844ac <__aeabi_dmul+0x134>
   84474:	f104 0414 	add.w	r4, r4, #20
   84478:	f1c4 0520 	rsb	r5, r4, #32
   8447c:	fa00 f305 	lsl.w	r3, r0, r5
   84480:	fa20 f004 	lsr.w	r0, r0, r4
   84484:	fa01 f205 	lsl.w	r2, r1, r5
   84488:	ea40 0002 	orr.w	r0, r0, r2
   8448c:	f001 4200 	and.w	r2, r1, #2147483648	; 0x80000000
   84490:	f021 4100 	bic.w	r1, r1, #2147483648	; 0x80000000
   84494:	eb10 70d3 	adds.w	r0, r0, r3, lsr #31
   84498:	fa21 f604 	lsr.w	r6, r1, r4
   8449c:	eb42 0106 	adc.w	r1, r2, r6
   844a0:	ea5e 0e43 	orrs.w	lr, lr, r3, lsl #1
   844a4:	bf08      	it	eq
   844a6:	ea20 70d3 	biceq.w	r0, r0, r3, lsr #31
   844aa:	bd70      	pop	{r4, r5, r6, pc}
   844ac:	f1c4 040c 	rsb	r4, r4, #12
   844b0:	f1c4 0520 	rsb	r5, r4, #32
   844b4:	fa00 f304 	lsl.w	r3, r0, r4
   844b8:	fa20 f005 	lsr.w	r0, r0, r5
   844bc:	fa01 f204 	lsl.w	r2, r1, r4
   844c0:	ea40 0002 	orr.w	r0, r0, r2
   844c4:	f001 4100 	and.w	r1, r1, #2147483648	; 0x80000000
   844c8:	eb10 70d3 	adds.w	r0, r0, r3, lsr #31
   844cc:	f141 0100 	adc.w	r1, r1, #0
   844d0:	ea5e 0e43 	orrs.w	lr, lr, r3, lsl #1
   844d4:	bf08      	it	eq
   844d6:	ea20 70d3 	biceq.w	r0, r0, r3, lsr #31
   844da:	bd70      	pop	{r4, r5, r6, pc}
   844dc:	f1c4 0520 	rsb	r5, r4, #32
   844e0:	fa00 f205 	lsl.w	r2, r0, r5
   844e4:	ea4e 0e02 	orr.w	lr, lr, r2
   844e8:	fa20 f304 	lsr.w	r3, r0, r4
   844ec:	fa01 f205 	lsl.w	r2, r1, r5
   844f0:	ea43 0302 	orr.w	r3, r3, r2
   844f4:	fa21 f004 	lsr.w	r0, r1, r4
   844f8:	f001 4100 	and.w	r1, r1, #2147483648	; 0x80000000
   844fc:	fa21 f204 	lsr.w	r2, r1, r4
   84500:	ea20 0002 	bic.w	r0, r0, r2
   84504:	eb00 70d3 	add.w	r0, r0, r3, lsr #31
   84508:	ea5e 0e43 	orrs.w	lr, lr, r3, lsl #1
   8450c:	bf08      	it	eq
   8450e:	ea20 70d3 	biceq.w	r0, r0, r3, lsr #31
   84512:	bd70      	pop	{r4, r5, r6, pc}
   84514:	f094 0f00 	teq	r4, #0
   84518:	d10f      	bne.n	8453a <__aeabi_dmul+0x1c2>
   8451a:	f001 4600 	and.w	r6, r1, #2147483648	; 0x80000000
   8451e:	0040      	lsls	r0, r0, #1
   84520:	eb41 0101 	adc.w	r1, r1, r1
   84524:	f411 1f80 	tst.w	r1, #1048576	; 0x100000
   84528:	bf08      	it	eq
   8452a:	3c01      	subeq	r4, #1
   8452c:	d0f7      	beq.n	8451e <__aeabi_dmul+0x1a6>
   8452e:	ea41 0106 	orr.w	r1, r1, r6
   84532:	f095 0f00 	teq	r5, #0
   84536:	bf18      	it	ne
   84538:	4770      	bxne	lr
   8453a:	f003 4600 	and.w	r6, r3, #2147483648	; 0x80000000
   8453e:	0052      	lsls	r2, r2, #1
   84540:	eb43 0303 	adc.w	r3, r3, r3
   84544:	f413 1f80 	tst.w	r3, #1048576	; 0x100000
   84548:	bf08      	it	eq
   8454a:	3d01      	subeq	r5, #1
   8454c:	d0f7      	beq.n	8453e <__aeabi_dmul+0x1c6>
   8454e:	ea43 0306 	orr.w	r3, r3, r6
   84552:	4770      	bx	lr
   84554:	ea94 0f0c 	teq	r4, ip
   84558:	ea0c 5513 	and.w	r5, ip, r3, lsr #20
   8455c:	bf18      	it	ne
   8455e:	ea95 0f0c 	teqne	r5, ip
   84562:	d00c      	beq.n	8457e <__aeabi_dmul+0x206>
   84564:	ea50 0641 	orrs.w	r6, r0, r1, lsl #1
   84568:	bf18      	it	ne
   8456a:	ea52 0643 	orrsne.w	r6, r2, r3, lsl #1
   8456e:	d1d1      	bne.n	84514 <__aeabi_dmul+0x19c>
   84570:	ea81 0103 	eor.w	r1, r1, r3
   84574:	f001 4100 	and.w	r1, r1, #2147483648	; 0x80000000
   84578:	f04f 0000 	mov.w	r0, #0
   8457c:	bd70      	pop	{r4, r5, r6, pc}
   8457e:	ea50 0641 	orrs.w	r6, r0, r1, lsl #1
   84582:	bf06      	itte	eq
   84584:	4610      	moveq	r0, r2
   84586:	4619      	moveq	r1, r3
   84588:	ea52 0643 	orrsne.w	r6, r2, r3, lsl #1
   8458c:	d019      	beq.n	845c2 <__aeabi_dmul+0x24a>
   8458e:	ea94 0f0c 	teq	r4, ip
   84592:	d102      	bne.n	8459a <__aeabi_dmul+0x222>
   84594:	ea50 3601 	orrs.w	r6, r0, r1, lsl #12
   84598:	d113      	bne.n	845c2 <__aeabi_dmul+0x24a>
   8459a:	ea95 0f0c 	teq	r5, ip
   8459e:	d105      	bne.n	845ac <__aeabi_dmul+0x234>
   845a0:	ea52 3603 	orrs.w	r6, r2, r3, lsl #12
   845a4:	bf1c      	itt	ne
   845a6:	4610      	movne	r0, r2
   845a8:	4619      	movne	r1, r3
   845aa:	d10a      	bne.n	845c2 <__aeabi_dmul+0x24a>
   845ac:	ea81 0103 	eor.w	r1, r1, r3
   845b0:	f001 4100 	and.w	r1, r1, #2147483648	; 0x80000000
   845b4:	f041 41fe 	orr.w	r1, r1, #2130706432	; 0x7f000000
   845b8:	f441 0170 	orr.w	r1, r1, #15728640	; 0xf00000
   845bc:	f04f 0000 	mov.w	r0, #0
   845c0:	bd70      	pop	{r4, r5, r6, pc}
   845c2:	f041 41fe 	orr.w	r1, r1, #2130706432	; 0x7f000000
   845c6:	f441 0178 	orr.w	r1, r1, #16252928	; 0xf80000
   845ca:	bd70      	pop	{r4, r5, r6, pc}

000845cc <__aeabi_ddiv>:
   845cc:	b570      	push	{r4, r5, r6, lr}
   845ce:	f04f 0cff 	mov.w	ip, #255	; 0xff
   845d2:	f44c 6ce0 	orr.w	ip, ip, #1792	; 0x700
   845d6:	ea1c 5411 	ands.w	r4, ip, r1, lsr #20
   845da:	bf1d      	ittte	ne
   845dc:	ea1c 5513 	andsne.w	r5, ip, r3, lsr #20
   845e0:	ea94 0f0c 	teqne	r4, ip
   845e4:	ea95 0f0c 	teqne	r5, ip
   845e8:	f000 f8a7 	bleq	8473a <__aeabi_ddiv+0x16e>
   845ec:	eba4 0405 	sub.w	r4, r4, r5
   845f0:	ea81 0e03 	eor.w	lr, r1, r3
   845f4:	ea52 3503 	orrs.w	r5, r2, r3, lsl #12
   845f8:	ea4f 3101 	mov.w	r1, r1, lsl #12
   845fc:	f000 8088 	beq.w	84710 <__aeabi_ddiv+0x144>
   84600:	ea4f 3303 	mov.w	r3, r3, lsl #12
   84604:	f04f 5580 	mov.w	r5, #268435456	; 0x10000000
   84608:	ea45 1313 	orr.w	r3, r5, r3, lsr #4
   8460c:	ea43 6312 	orr.w	r3, r3, r2, lsr #24
   84610:	ea4f 2202 	mov.w	r2, r2, lsl #8
   84614:	ea45 1511 	orr.w	r5, r5, r1, lsr #4
   84618:	ea45 6510 	orr.w	r5, r5, r0, lsr #24
   8461c:	ea4f 2600 	mov.w	r6, r0, lsl #8
   84620:	f00e 4100 	and.w	r1, lr, #2147483648	; 0x80000000
   84624:	429d      	cmp	r5, r3
   84626:	bf08      	it	eq
   84628:	4296      	cmpeq	r6, r2
   8462a:	f144 04fd 	adc.w	r4, r4, #253	; 0xfd
   8462e:	f504 7440 	add.w	r4, r4, #768	; 0x300
   84632:	d202      	bcs.n	8463a <__aeabi_ddiv+0x6e>
   84634:	085b      	lsrs	r3, r3, #1
   84636:	ea4f 0232 	mov.w	r2, r2, rrx
   8463a:	1ab6      	subs	r6, r6, r2
   8463c:	eb65 0503 	sbc.w	r5, r5, r3
   84640:	085b      	lsrs	r3, r3, #1
   84642:	ea4f 0232 	mov.w	r2, r2, rrx
   84646:	f44f 1080 	mov.w	r0, #1048576	; 0x100000
   8464a:	f44f 2c00 	mov.w	ip, #524288	; 0x80000
   8464e:	ebb6 0e02 	subs.w	lr, r6, r2
   84652:	eb75 0e03 	sbcs.w	lr, r5, r3
   84656:	bf22      	ittt	cs
   84658:	1ab6      	subcs	r6, r6, r2
   8465a:	4675      	movcs	r5, lr
   8465c:	ea40 000c 	orrcs.w	r0, r0, ip
   84660:	085b      	lsrs	r3, r3, #1
   84662:	ea4f 0232 	mov.w	r2, r2, rrx
   84666:	ebb6 0e02 	subs.w	lr, r6, r2
   8466a:	eb75 0e03 	sbcs.w	lr, r5, r3
   8466e:	bf22      	ittt	cs
   84670:	1ab6      	subcs	r6, r6, r2
   84672:	4675      	movcs	r5, lr
   84674:	ea40 005c 	orrcs.w	r0, r0, ip, lsr #1
   84678:	085b      	lsrs	r3, r3, #1
   8467a:	ea4f 0232 	mov.w	r2, r2, rrx
   8467e:	ebb6 0e02 	subs.w	lr, r6, r2
   84682:	eb75 0e03 	sbcs.w	lr, r5, r3
   84686:	bf22      	ittt	cs
   84688:	1ab6      	subcs	r6, r6, r2
   8468a:	4675      	movcs	r5, lr
   8468c:	ea40 009c 	orrcs.w	r0, r0, ip, lsr #2
   84690:	085b      	lsrs	r3, r3, #1
   84692:	ea4f 0232 	mov.w	r2, r2, rrx
   84696:	ebb6 0e02 	subs.w	lr, r6, r2
   8469a:	eb75 0e03 	sbcs.w	lr, r5, r3
   8469e:	bf22      	ittt	cs
   846a0:	1ab6      	subcs	r6, r6, r2
   846a2:	4675      	movcs	r5, lr
   846a4:	ea40 00dc 	orrcs.w	r0, r0, ip, lsr #3
   846a8:	ea55 0e06 	orrs.w	lr, r5, r6
   846ac:	d018      	beq.n	846e0 <__aeabi_ddiv+0x114>
   846ae:	ea4f 1505 	mov.w	r5, r5, lsl #4
   846b2:	ea45 7516 	orr.w	r5, r5, r6, lsr #28
   846b6:	ea4f 1606 	mov.w	r6, r6, lsl #4
   846ba:	ea4f 03c3 	mov.w	r3, r3, lsl #3
   846be:	ea43 7352 	orr.w	r3, r3, r2, lsr #29
   846c2:	ea4f 02c2 	mov.w	r2, r2, lsl #3
   846c6:	ea5f 1c1c 	movs.w	ip, ip, lsr #4
   846ca:	d1c0      	bne.n	8464e <__aeabi_ddiv+0x82>
   846cc:	f411 1f80 	tst.w	r1, #1048576	; 0x100000
   846d0:	d10b      	bne.n	846ea <__aeabi_ddiv+0x11e>
   846d2:	ea41 0100 	orr.w	r1, r1, r0
   846d6:	f04f 0000 	mov.w	r0, #0
   846da:	f04f 4c00 	mov.w	ip, #2147483648	; 0x80000000
   846de:	e7b6      	b.n	8464e <__aeabi_ddiv+0x82>
   846e0:	f411 1f80 	tst.w	r1, #1048576	; 0x100000
   846e4:	bf04      	itt	eq
   846e6:	4301      	orreq	r1, r0
   846e8:	2000      	moveq	r0, #0
   846ea:	f1b4 0cfd 	subs.w	ip, r4, #253	; 0xfd
   846ee:	bf88      	it	hi
   846f0:	f5bc 6fe0 	cmphi.w	ip, #1792	; 0x700
   846f4:	f63f aeaf 	bhi.w	84456 <__aeabi_dmul+0xde>
   846f8:	ebb5 0c03 	subs.w	ip, r5, r3
   846fc:	bf04      	itt	eq
   846fe:	ebb6 0c02 	subseq.w	ip, r6, r2
   84702:	ea5f 0c50 	movseq.w	ip, r0, lsr #1
   84706:	f150 0000 	adcs.w	r0, r0, #0
   8470a:	eb41 5104 	adc.w	r1, r1, r4, lsl #20
   8470e:	bd70      	pop	{r4, r5, r6, pc}
   84710:	f00e 4e00 	and.w	lr, lr, #2147483648	; 0x80000000
   84714:	ea4e 3111 	orr.w	r1, lr, r1, lsr #12
   84718:	eb14 045c 	adds.w	r4, r4, ip, lsr #1
   8471c:	bfc2      	ittt	gt
   8471e:	ebd4 050c 	rsbsgt	r5, r4, ip
   84722:	ea41 5104 	orrgt.w	r1, r1, r4, lsl #20
   84726:	bd70      	popgt	{r4, r5, r6, pc}
   84728:	f441 1180 	orr.w	r1, r1, #1048576	; 0x100000
   8472c:	f04f 0e00 	mov.w	lr, #0
   84730:	3c01      	subs	r4, #1
   84732:	e690      	b.n	84456 <__aeabi_dmul+0xde>
   84734:	ea45 0e06 	orr.w	lr, r5, r6
   84738:	e68d      	b.n	84456 <__aeabi_dmul+0xde>
   8473a:	ea0c 5513 	and.w	r5, ip, r3, lsr #20
   8473e:	ea94 0f0c 	teq	r4, ip
   84742:	bf08      	it	eq
   84744:	ea95 0f0c 	teqeq	r5, ip
   84748:	f43f af3b 	beq.w	845c2 <__aeabi_dmul+0x24a>
   8474c:	ea94 0f0c 	teq	r4, ip
   84750:	d10a      	bne.n	84768 <__aeabi_ddiv+0x19c>
   84752:	ea50 3401 	orrs.w	r4, r0, r1, lsl #12
   84756:	f47f af34 	bne.w	845c2 <__aeabi_dmul+0x24a>
   8475a:	ea95 0f0c 	teq	r5, ip
   8475e:	f47f af25 	bne.w	845ac <__aeabi_dmul+0x234>
   84762:	4610      	mov	r0, r2
   84764:	4619      	mov	r1, r3
   84766:	e72c      	b.n	845c2 <__aeabi_dmul+0x24a>
   84768:	ea95 0f0c 	teq	r5, ip
   8476c:	d106      	bne.n	8477c <__aeabi_ddiv+0x1b0>
   8476e:	ea52 3503 	orrs.w	r5, r2, r3, lsl #12
   84772:	f43f aefd 	beq.w	84570 <__aeabi_dmul+0x1f8>
   84776:	4610      	mov	r0, r2
   84778:	4619      	mov	r1, r3
   8477a:	e722      	b.n	845c2 <__aeabi_dmul+0x24a>
   8477c:	ea50 0641 	orrs.w	r6, r0, r1, lsl #1
   84780:	bf18      	it	ne
   84782:	ea52 0643 	orrsne.w	r6, r2, r3, lsl #1
   84786:	f47f aec5 	bne.w	84514 <__aeabi_dmul+0x19c>
   8478a:	ea50 0441 	orrs.w	r4, r0, r1, lsl #1
   8478e:	f47f af0d 	bne.w	845ac <__aeabi_dmul+0x234>
   84792:	ea52 0543 	orrs.w	r5, r2, r3, lsl #1
   84796:	f47f aeeb 	bne.w	84570 <__aeabi_dmul+0x1f8>
   8479a:	e712      	b.n	845c2 <__aeabi_dmul+0x24a>

0008479c <__gedf2>:
   8479c:	f04f 3cff 	mov.w	ip, #4294967295
   847a0:	e006      	b.n	847b0 <__cmpdf2+0x4>
   847a2:	bf00      	nop

000847a4 <__ledf2>:
   847a4:	f04f 0c01 	mov.w	ip, #1
   847a8:	e002      	b.n	847b0 <__cmpdf2+0x4>
   847aa:	bf00      	nop

000847ac <__cmpdf2>:
   847ac:	f04f 0c01 	mov.w	ip, #1
   847b0:	f84d cd04 	str.w	ip, [sp, #-4]!
   847b4:	ea4f 0c41 	mov.w	ip, r1, lsl #1
   847b8:	ea7f 5c6c 	mvns.w	ip, ip, asr #21
   847bc:	ea4f 0c43 	mov.w	ip, r3, lsl #1
   847c0:	bf18      	it	ne
   847c2:	ea7f 5c6c 	mvnsne.w	ip, ip, asr #21
   847c6:	d01b      	beq.n	84800 <__cmpdf2+0x54>
   847c8:	b001      	add	sp, #4
   847ca:	ea50 0c41 	orrs.w	ip, r0, r1, lsl #1
   847ce:	bf0c      	ite	eq
   847d0:	ea52 0c43 	orrseq.w	ip, r2, r3, lsl #1
   847d4:	ea91 0f03 	teqne	r1, r3
   847d8:	bf02      	ittt	eq
   847da:	ea90 0f02 	teqeq	r0, r2
   847de:	2000      	moveq	r0, #0
   847e0:	4770      	bxeq	lr
   847e2:	f110 0f00 	cmn.w	r0, #0
   847e6:	ea91 0f03 	teq	r1, r3
   847ea:	bf58      	it	pl
   847ec:	4299      	cmppl	r1, r3
   847ee:	bf08      	it	eq
   847f0:	4290      	cmpeq	r0, r2
   847f2:	bf2c      	ite	cs
   847f4:	17d8      	asrcs	r0, r3, #31
   847f6:	ea6f 70e3 	mvncc.w	r0, r3, asr #31
   847fa:	f040 0001 	orr.w	r0, r0, #1
   847fe:	4770      	bx	lr
   84800:	ea4f 0c41 	mov.w	ip, r1, lsl #1
   84804:	ea7f 5c6c 	mvns.w	ip, ip, asr #21
   84808:	d102      	bne.n	84810 <__cmpdf2+0x64>
   8480a:	ea50 3c01 	orrs.w	ip, r0, r1, lsl #12
   8480e:	d107      	bne.n	84820 <__cmpdf2+0x74>
   84810:	ea4f 0c43 	mov.w	ip, r3, lsl #1
   84814:	ea7f 5c6c 	mvns.w	ip, ip, asr #21
   84818:	d1d6      	bne.n	847c8 <__cmpdf2+0x1c>
   8481a:	ea52 3c03 	orrs.w	ip, r2, r3, lsl #12
   8481e:	d0d3      	beq.n	847c8 <__cmpdf2+0x1c>
   84820:	f85d 0b04 	ldr.w	r0, [sp], #4
   84824:	4770      	bx	lr
   84826:	bf00      	nop

00084828 <__aeabi_cdrcmple>:
   84828:	4684      	mov	ip, r0
   8482a:	4610      	mov	r0, r2
   8482c:	4662      	mov	r2, ip
   8482e:	468c      	mov	ip, r1
   84830:	4619      	mov	r1, r3
   84832:	4663      	mov	r3, ip
   84834:	e000      	b.n	84838 <__aeabi_cdcmpeq>
   84836:	bf00      	nop

00084838 <__aeabi_cdcmpeq>:
   84838:	b501      	push	{r0, lr}
   8483a:	f7ff ffb7 	bl	847ac <__cmpdf2>
   8483e:	2800      	cmp	r0, #0
   84840:	bf48      	it	mi
   84842:	f110 0f00 	cmnmi.w	r0, #0
   84846:	bd01      	pop	{r0, pc}

00084848 <__aeabi_dcmpeq>:
   84848:	f84d ed08 	str.w	lr, [sp, #-8]!
   8484c:	f7ff fff4 	bl	84838 <__aeabi_cdcmpeq>
   84850:	bf0c      	ite	eq
   84852:	2001      	moveq	r0, #1
   84854:	2000      	movne	r0, #0
   84856:	f85d fb08 	ldr.w	pc, [sp], #8
   8485a:	bf00      	nop

0008485c <__aeabi_dcmplt>:
   8485c:	f84d ed08 	str.w	lr, [sp, #-8]!
   84860:	f7ff ffea 	bl	84838 <__aeabi_cdcmpeq>
   84864:	bf34      	ite	cc
   84866:	2001      	movcc	r0, #1
   84868:	2000      	movcs	r0, #0
   8486a:	f85d fb08 	ldr.w	pc, [sp], #8
   8486e:	bf00      	nop

00084870 <__aeabi_dcmple>:
   84870:	f84d ed08 	str.w	lr, [sp, #-8]!
   84874:	f7ff ffe0 	bl	84838 <__aeabi_cdcmpeq>
   84878:	bf94      	ite	ls
   8487a:	2001      	movls	r0, #1
   8487c:	2000      	movhi	r0, #0
   8487e:	f85d fb08 	ldr.w	pc, [sp], #8
   84882:	bf00      	nop

00084884 <__aeabi_dcmpge>:
   84884:	f84d ed08 	str.w	lr, [sp, #-8]!
   84888:	f7ff ffce 	bl	84828 <__aeabi_cdrcmple>
   8488c:	bf94      	ite	ls
   8488e:	2001      	movls	r0, #1
   84890:	2000      	movhi	r0, #0
   84892:	f85d fb08 	ldr.w	pc, [sp], #8
   84896:	bf00      	nop

00084898 <__aeabi_dcmpgt>:
   84898:	f84d ed08 	str.w	lr, [sp, #-8]!
   8489c:	f7ff ffc4 	bl	84828 <__aeabi_cdrcmple>
   848a0:	bf34      	ite	cc
   848a2:	2001      	movcc	r0, #1
   848a4:	2000      	movcs	r0, #0
   848a6:	f85d fb08 	ldr.w	pc, [sp], #8
   848aa:	bf00      	nop

000848ac <__aeabi_d2iz>:
   848ac:	ea4f 0241 	mov.w	r2, r1, lsl #1
   848b0:	f512 1200 	adds.w	r2, r2, #2097152	; 0x200000
   848b4:	d215      	bcs.n	848e2 <__aeabi_d2iz+0x36>
   848b6:	d511      	bpl.n	848dc <__aeabi_d2iz+0x30>
   848b8:	f46f 7378 	mvn.w	r3, #992	; 0x3e0
   848bc:	ebb3 5262 	subs.w	r2, r3, r2, asr #21
   848c0:	d912      	bls.n	848e8 <__aeabi_d2iz+0x3c>
   848c2:	ea4f 23c1 	mov.w	r3, r1, lsl #11
   848c6:	f043 4300 	orr.w	r3, r3, #2147483648	; 0x80000000
   848ca:	ea43 5350 	orr.w	r3, r3, r0, lsr #21
   848ce:	f011 4f00 	tst.w	r1, #2147483648	; 0x80000000
   848d2:	fa23 f002 	lsr.w	r0, r3, r2
   848d6:	bf18      	it	ne
   848d8:	4240      	negne	r0, r0
   848da:	4770      	bx	lr
   848dc:	f04f 0000 	mov.w	r0, #0
   848e0:	4770      	bx	lr
   848e2:	ea50 3001 	orrs.w	r0, r0, r1, lsl #12
   848e6:	d105      	bne.n	848f4 <__aeabi_d2iz+0x48>
   848e8:	f011 4000 	ands.w	r0, r1, #2147483648	; 0x80000000
   848ec:	bf08      	it	eq
   848ee:	f06f 4000 	mvneq.w	r0, #2147483648	; 0x80000000
   848f2:	4770      	bx	lr
   848f4:	f04f 0000 	mov.w	r0, #0
   848f8:	4770      	bx	lr
   848fa:	bf00      	nop

000848fc <__errno>:
   848fc:	4b01      	ldr	r3, [pc, #4]	; (84904 <__errno+0x8>)
   848fe:	6818      	ldr	r0, [r3, #0]
   84900:	4770      	bx	lr
   84902:	bf00      	nop
   84904:	200705d8 	.word	0x200705d8

00084908 <__libc_init_array>:
   84908:	b570      	push	{r4, r5, r6, lr}
   8490a:	4e0f      	ldr	r6, [pc, #60]	; (84948 <__libc_init_array+0x40>)
   8490c:	4d0f      	ldr	r5, [pc, #60]	; (8494c <__libc_init_array+0x44>)
   8490e:	1b76      	subs	r6, r6, r5
   84910:	10b6      	asrs	r6, r6, #2
   84912:	d007      	beq.n	84924 <__libc_init_array+0x1c>
   84914:	3d04      	subs	r5, #4
   84916:	2400      	movs	r4, #0
   84918:	3401      	adds	r4, #1
   8491a:	f855 3f04 	ldr.w	r3, [r5, #4]!
   8491e:	4798      	blx	r3
   84920:	42a6      	cmp	r6, r4
   84922:	d1f9      	bne.n	84918 <__libc_init_array+0x10>
   84924:	4e0a      	ldr	r6, [pc, #40]	; (84950 <__libc_init_array+0x48>)
   84926:	4d0b      	ldr	r5, [pc, #44]	; (84954 <__libc_init_array+0x4c>)
   84928:	f006 f8fc 	bl	8ab24 <_init>
   8492c:	1b76      	subs	r6, r6, r5
   8492e:	10b6      	asrs	r6, r6, #2
   84930:	d008      	beq.n	84944 <__libc_init_array+0x3c>
   84932:	3d04      	subs	r5, #4
   84934:	2400      	movs	r4, #0
   84936:	3401      	adds	r4, #1
   84938:	f855 3f04 	ldr.w	r3, [r5, #4]!
   8493c:	4798      	blx	r3
   8493e:	42a6      	cmp	r6, r4
   84940:	d1f9      	bne.n	84936 <__libc_init_array+0x2e>
   84942:	bd70      	pop	{r4, r5, r6, pc}
   84944:	bd70      	pop	{r4, r5, r6, pc}
   84946:	bf00      	nop
   84948:	0008ab30 	.word	0x0008ab30
   8494c:	0008ab30 	.word	0x0008ab30
   84950:	0008ab38 	.word	0x0008ab38
   84954:	0008ab30 	.word	0x0008ab30

00084958 <iprintf>:
   84958:	b40f      	push	{r0, r1, r2, r3}
   8495a:	b510      	push	{r4, lr}
   8495c:	4b07      	ldr	r3, [pc, #28]	; (8497c <iprintf+0x24>)
   8495e:	b082      	sub	sp, #8
   84960:	ac04      	add	r4, sp, #16
   84962:	f854 2b04 	ldr.w	r2, [r4], #4
   84966:	6818      	ldr	r0, [r3, #0]
   84968:	4623      	mov	r3, r4
   8496a:	6881      	ldr	r1, [r0, #8]
   8496c:	9401      	str	r4, [sp, #4]
   8496e:	f001 fc83 	bl	86278 <_vfiprintf_r>
   84972:	b002      	add	sp, #8
   84974:	e8bd 4010 	ldmia.w	sp!, {r4, lr}
   84978:	b004      	add	sp, #16
   8497a:	4770      	bx	lr
   8497c:	200705d8 	.word	0x200705d8

00084980 <memcpy>:
   84980:	4684      	mov	ip, r0
   84982:	ea41 0300 	orr.w	r3, r1, r0
   84986:	f013 0303 	ands.w	r3, r3, #3
   8498a:	d149      	bne.n	84a20 <memcpy+0xa0>
   8498c:	3a40      	subs	r2, #64	; 0x40
   8498e:	d323      	bcc.n	849d8 <memcpy+0x58>
   84990:	680b      	ldr	r3, [r1, #0]
   84992:	6003      	str	r3, [r0, #0]
   84994:	684b      	ldr	r3, [r1, #4]
   84996:	6043      	str	r3, [r0, #4]
   84998:	688b      	ldr	r3, [r1, #8]
   8499a:	6083      	str	r3, [r0, #8]
   8499c:	68cb      	ldr	r3, [r1, #12]
   8499e:	60c3      	str	r3, [r0, #12]
   849a0:	690b      	ldr	r3, [r1, #16]
   849a2:	6103      	str	r3, [r0, #16]
   849a4:	694b      	ldr	r3, [r1, #20]
   849a6:	6143      	str	r3, [r0, #20]
   849a8:	698b      	ldr	r3, [r1, #24]
   849aa:	6183      	str	r3, [r0, #24]
   849ac:	69cb      	ldr	r3, [r1, #28]
   849ae:	61c3      	str	r3, [r0, #28]
   849b0:	6a0b      	ldr	r3, [r1, #32]
   849b2:	6203      	str	r3, [r0, #32]
   849b4:	6a4b      	ldr	r3, [r1, #36]	; 0x24
   849b6:	6243      	str	r3, [r0, #36]	; 0x24
   849b8:	6a8b      	ldr	r3, [r1, #40]	; 0x28
   849ba:	6283      	str	r3, [r0, #40]	; 0x28
   849bc:	6acb      	ldr	r3, [r1, #44]	; 0x2c
   849be:	62c3      	str	r3, [r0, #44]	; 0x2c
   849c0:	6b0b      	ldr	r3, [r1, #48]	; 0x30
   849c2:	6303      	str	r3, [r0, #48]	; 0x30
   849c4:	6b4b      	ldr	r3, [r1, #52]	; 0x34
   849c6:	6343      	str	r3, [r0, #52]	; 0x34
   849c8:	6b8b      	ldr	r3, [r1, #56]	; 0x38
   849ca:	6383      	str	r3, [r0, #56]	; 0x38
   849cc:	6bcb      	ldr	r3, [r1, #60]	; 0x3c
   849ce:	63c3      	str	r3, [r0, #60]	; 0x3c
   849d0:	3040      	adds	r0, #64	; 0x40
   849d2:	3140      	adds	r1, #64	; 0x40
   849d4:	3a40      	subs	r2, #64	; 0x40
   849d6:	d2db      	bcs.n	84990 <memcpy+0x10>
   849d8:	3230      	adds	r2, #48	; 0x30
   849da:	d30b      	bcc.n	849f4 <memcpy+0x74>
   849dc:	680b      	ldr	r3, [r1, #0]
   849de:	6003      	str	r3, [r0, #0]
   849e0:	684b      	ldr	r3, [r1, #4]
   849e2:	6043      	str	r3, [r0, #4]
   849e4:	688b      	ldr	r3, [r1, #8]
   849e6:	6083      	str	r3, [r0, #8]
   849e8:	68cb      	ldr	r3, [r1, #12]
   849ea:	60c3      	str	r3, [r0, #12]
   849ec:	3010      	adds	r0, #16
   849ee:	3110      	adds	r1, #16
   849f0:	3a10      	subs	r2, #16
   849f2:	d2f3      	bcs.n	849dc <memcpy+0x5c>
   849f4:	320c      	adds	r2, #12
   849f6:	d305      	bcc.n	84a04 <memcpy+0x84>
   849f8:	f851 3b04 	ldr.w	r3, [r1], #4
   849fc:	f840 3b04 	str.w	r3, [r0], #4
   84a00:	3a04      	subs	r2, #4
   84a02:	d2f9      	bcs.n	849f8 <memcpy+0x78>
   84a04:	3204      	adds	r2, #4
   84a06:	d008      	beq.n	84a1a <memcpy+0x9a>
   84a08:	07d2      	lsls	r2, r2, #31
   84a0a:	bf1c      	itt	ne
   84a0c:	f811 3b01 	ldrbne.w	r3, [r1], #1
   84a10:	f800 3b01 	strbne.w	r3, [r0], #1
   84a14:	d301      	bcc.n	84a1a <memcpy+0x9a>
   84a16:	880b      	ldrh	r3, [r1, #0]
   84a18:	8003      	strh	r3, [r0, #0]
   84a1a:	4660      	mov	r0, ip
   84a1c:	4770      	bx	lr
   84a1e:	bf00      	nop
   84a20:	2a08      	cmp	r2, #8
   84a22:	d313      	bcc.n	84a4c <memcpy+0xcc>
   84a24:	078b      	lsls	r3, r1, #30
   84a26:	d0b1      	beq.n	8498c <memcpy+0xc>
   84a28:	f010 0303 	ands.w	r3, r0, #3
   84a2c:	d0ae      	beq.n	8498c <memcpy+0xc>
   84a2e:	f1c3 0304 	rsb	r3, r3, #4
   84a32:	1ad2      	subs	r2, r2, r3
   84a34:	07db      	lsls	r3, r3, #31
   84a36:	bf1c      	itt	ne
   84a38:	f811 3b01 	ldrbne.w	r3, [r1], #1
   84a3c:	f800 3b01 	strbne.w	r3, [r0], #1
   84a40:	d3a4      	bcc.n	8498c <memcpy+0xc>
   84a42:	f831 3b02 	ldrh.w	r3, [r1], #2
   84a46:	f820 3b02 	strh.w	r3, [r0], #2
   84a4a:	e79f      	b.n	8498c <memcpy+0xc>
   84a4c:	3a04      	subs	r2, #4
   84a4e:	d3d9      	bcc.n	84a04 <memcpy+0x84>
   84a50:	3a01      	subs	r2, #1
   84a52:	f811 3b01 	ldrb.w	r3, [r1], #1
   84a56:	f800 3b01 	strb.w	r3, [r0], #1
   84a5a:	d2f9      	bcs.n	84a50 <memcpy+0xd0>
   84a5c:	780b      	ldrb	r3, [r1, #0]
   84a5e:	7003      	strb	r3, [r0, #0]
   84a60:	784b      	ldrb	r3, [r1, #1]
   84a62:	7043      	strb	r3, [r0, #1]
   84a64:	788b      	ldrb	r3, [r1, #2]
   84a66:	7083      	strb	r3, [r0, #2]
   84a68:	4660      	mov	r0, ip
   84a6a:	4770      	bx	lr

00084a6c <memset>:
   84a6c:	b4f0      	push	{r4, r5, r6, r7}
   84a6e:	0784      	lsls	r4, r0, #30
   84a70:	d043      	beq.n	84afa <memset+0x8e>
   84a72:	1e54      	subs	r4, r2, #1
   84a74:	2a00      	cmp	r2, #0
   84a76:	d03e      	beq.n	84af6 <memset+0x8a>
   84a78:	b2cd      	uxtb	r5, r1
   84a7a:	4603      	mov	r3, r0
   84a7c:	e003      	b.n	84a86 <memset+0x1a>
   84a7e:	1e62      	subs	r2, r4, #1
   84a80:	2c00      	cmp	r4, #0
   84a82:	d038      	beq.n	84af6 <memset+0x8a>
   84a84:	4614      	mov	r4, r2
   84a86:	f803 5b01 	strb.w	r5, [r3], #1
   84a8a:	079a      	lsls	r2, r3, #30
   84a8c:	d1f7      	bne.n	84a7e <memset+0x12>
   84a8e:	2c03      	cmp	r4, #3
   84a90:	d92a      	bls.n	84ae8 <memset+0x7c>
   84a92:	b2cd      	uxtb	r5, r1
   84a94:	ea45 2505 	orr.w	r5, r5, r5, lsl #8
   84a98:	2c0f      	cmp	r4, #15
   84a9a:	ea45 4505 	orr.w	r5, r5, r5, lsl #16
   84a9e:	d915      	bls.n	84acc <memset+0x60>
   84aa0:	f1a4 0710 	sub.w	r7, r4, #16
   84aa4:	093f      	lsrs	r7, r7, #4
   84aa6:	f103 0610 	add.w	r6, r3, #16
   84aaa:	eb06 1607 	add.w	r6, r6, r7, lsl #4
   84aae:	461a      	mov	r2, r3
   84ab0:	6015      	str	r5, [r2, #0]
   84ab2:	6055      	str	r5, [r2, #4]
   84ab4:	6095      	str	r5, [r2, #8]
   84ab6:	60d5      	str	r5, [r2, #12]
   84ab8:	3210      	adds	r2, #16
   84aba:	42b2      	cmp	r2, r6
   84abc:	d1f8      	bne.n	84ab0 <memset+0x44>
   84abe:	f004 040f 	and.w	r4, r4, #15
   84ac2:	3701      	adds	r7, #1
   84ac4:	2c03      	cmp	r4, #3
   84ac6:	eb03 1307 	add.w	r3, r3, r7, lsl #4
   84aca:	d90d      	bls.n	84ae8 <memset+0x7c>
   84acc:	461e      	mov	r6, r3
   84ace:	4622      	mov	r2, r4
   84ad0:	3a04      	subs	r2, #4
   84ad2:	2a03      	cmp	r2, #3
   84ad4:	f846 5b04 	str.w	r5, [r6], #4
   84ad8:	d8fa      	bhi.n	84ad0 <memset+0x64>
   84ada:	1f22      	subs	r2, r4, #4
   84adc:	f022 0203 	bic.w	r2, r2, #3
   84ae0:	3204      	adds	r2, #4
   84ae2:	4413      	add	r3, r2
   84ae4:	f004 0403 	and.w	r4, r4, #3
   84ae8:	b12c      	cbz	r4, 84af6 <memset+0x8a>
   84aea:	b2c9      	uxtb	r1, r1
   84aec:	441c      	add	r4, r3
   84aee:	f803 1b01 	strb.w	r1, [r3], #1
   84af2:	42a3      	cmp	r3, r4
   84af4:	d1fb      	bne.n	84aee <memset+0x82>
   84af6:	bcf0      	pop	{r4, r5, r6, r7}
   84af8:	4770      	bx	lr
   84afa:	4614      	mov	r4, r2
   84afc:	4603      	mov	r3, r0
   84afe:	e7c6      	b.n	84a8e <memset+0x22>

00084b00 <setbuf>:
   84b00:	2900      	cmp	r1, #0
   84b02:	bf0c      	ite	eq
   84b04:	2202      	moveq	r2, #2
   84b06:	2200      	movne	r2, #0
   84b08:	f44f 6380 	mov.w	r3, #1024	; 0x400
   84b0c:	f000 b800 	b.w	84b10 <setvbuf>

00084b10 <setvbuf>:
   84b10:	e92d 41f0 	stmdb	sp!, {r4, r5, r6, r7, r8, lr}
   84b14:	4d3c      	ldr	r5, [pc, #240]	; (84c08 <setvbuf+0xf8>)
   84b16:	4604      	mov	r4, r0
   84b18:	682d      	ldr	r5, [r5, #0]
   84b1a:	4688      	mov	r8, r1
   84b1c:	4616      	mov	r6, r2
   84b1e:	461f      	mov	r7, r3
   84b20:	b115      	cbz	r5, 84b28 <setvbuf+0x18>
   84b22:	6bab      	ldr	r3, [r5, #56]	; 0x38
   84b24:	2b00      	cmp	r3, #0
   84b26:	d04f      	beq.n	84bc8 <setvbuf+0xb8>
   84b28:	2e02      	cmp	r6, #2
   84b2a:	d830      	bhi.n	84b8e <setvbuf+0x7e>
   84b2c:	2f00      	cmp	r7, #0
   84b2e:	db2e      	blt.n	84b8e <setvbuf+0x7e>
   84b30:	4628      	mov	r0, r5
   84b32:	4621      	mov	r1, r4
   84b34:	f003 fad4 	bl	880e0 <_fflush_r>
   84b38:	89a3      	ldrh	r3, [r4, #12]
   84b3a:	2200      	movs	r2, #0
   84b3c:	6062      	str	r2, [r4, #4]
   84b3e:	61a2      	str	r2, [r4, #24]
   84b40:	061a      	lsls	r2, r3, #24
   84b42:	d428      	bmi.n	84b96 <setvbuf+0x86>
   84b44:	f023 0383 	bic.w	r3, r3, #131	; 0x83
   84b48:	b29b      	uxth	r3, r3
   84b4a:	2e02      	cmp	r6, #2
   84b4c:	81a3      	strh	r3, [r4, #12]
   84b4e:	d02d      	beq.n	84bac <setvbuf+0x9c>
   84b50:	f1b8 0f00 	cmp.w	r8, #0
   84b54:	d03c      	beq.n	84bd0 <setvbuf+0xc0>
   84b56:	2e01      	cmp	r6, #1
   84b58:	d013      	beq.n	84b82 <setvbuf+0x72>
   84b5a:	b29b      	uxth	r3, r3
   84b5c:	f003 0008 	and.w	r0, r3, #8
   84b60:	4a2a      	ldr	r2, [pc, #168]	; (84c0c <setvbuf+0xfc>)
   84b62:	b280      	uxth	r0, r0
   84b64:	63ea      	str	r2, [r5, #60]	; 0x3c
   84b66:	f8c4 8000 	str.w	r8, [r4]
   84b6a:	f8c4 8010 	str.w	r8, [r4, #16]
   84b6e:	6167      	str	r7, [r4, #20]
   84b70:	b178      	cbz	r0, 84b92 <setvbuf+0x82>
   84b72:	f013 0f03 	tst.w	r3, #3
   84b76:	bf18      	it	ne
   84b78:	2700      	movne	r7, #0
   84b7a:	60a7      	str	r7, [r4, #8]
   84b7c:	2000      	movs	r0, #0
   84b7e:	e8bd 81f0 	ldmia.w	sp!, {r4, r5, r6, r7, r8, pc}
   84b82:	f043 0301 	orr.w	r3, r3, #1
   84b86:	427a      	negs	r2, r7
   84b88:	81a3      	strh	r3, [r4, #12]
   84b8a:	61a2      	str	r2, [r4, #24]
   84b8c:	e7e5      	b.n	84b5a <setvbuf+0x4a>
   84b8e:	f04f 30ff 	mov.w	r0, #4294967295
   84b92:	e8bd 81f0 	ldmia.w	sp!, {r4, r5, r6, r7, r8, pc}
   84b96:	4628      	mov	r0, r5
   84b98:	6921      	ldr	r1, [r4, #16]
   84b9a:	f003 fc01 	bl	883a0 <_free_r>
   84b9e:	89a3      	ldrh	r3, [r4, #12]
   84ba0:	2e02      	cmp	r6, #2
   84ba2:	f023 0383 	bic.w	r3, r3, #131	; 0x83
   84ba6:	b29b      	uxth	r3, r3
   84ba8:	81a3      	strh	r3, [r4, #12]
   84baa:	d1d1      	bne.n	84b50 <setvbuf+0x40>
   84bac:	2000      	movs	r0, #0
   84bae:	f104 0243 	add.w	r2, r4, #67	; 0x43
   84bb2:	f043 0302 	orr.w	r3, r3, #2
   84bb6:	2500      	movs	r5, #0
   84bb8:	2101      	movs	r1, #1
   84bba:	81a3      	strh	r3, [r4, #12]
   84bbc:	60a5      	str	r5, [r4, #8]
   84bbe:	6022      	str	r2, [r4, #0]
   84bc0:	6122      	str	r2, [r4, #16]
   84bc2:	6161      	str	r1, [r4, #20]
   84bc4:	e8bd 81f0 	ldmia.w	sp!, {r4, r5, r6, r7, r8, pc}
   84bc8:	4628      	mov	r0, r5
   84bca:	f003 faa5 	bl	88118 <__sinit>
   84bce:	e7ab      	b.n	84b28 <setvbuf+0x18>
   84bd0:	2f00      	cmp	r7, #0
   84bd2:	bf08      	it	eq
   84bd4:	f44f 6780 	moveq.w	r7, #1024	; 0x400
   84bd8:	4638      	mov	r0, r7
   84bda:	f003 fedb 	bl	88994 <malloc>
   84bde:	4680      	mov	r8, r0
   84be0:	b128      	cbz	r0, 84bee <setvbuf+0xde>
   84be2:	89a3      	ldrh	r3, [r4, #12]
   84be4:	f043 0380 	orr.w	r3, r3, #128	; 0x80
   84be8:	b29b      	uxth	r3, r3
   84bea:	81a3      	strh	r3, [r4, #12]
   84bec:	e7b3      	b.n	84b56 <setvbuf+0x46>
   84bee:	f44f 6080 	mov.w	r0, #1024	; 0x400
   84bf2:	f003 fecf 	bl	88994 <malloc>
   84bf6:	4680      	mov	r8, r0
   84bf8:	b918      	cbnz	r0, 84c02 <setvbuf+0xf2>
   84bfa:	89a3      	ldrh	r3, [r4, #12]
   84bfc:	f04f 30ff 	mov.w	r0, #4294967295
   84c00:	e7d5      	b.n	84bae <setvbuf+0x9e>
   84c02:	f44f 6780 	mov.w	r7, #1024	; 0x400
   84c06:	e7ec      	b.n	84be2 <setvbuf+0xd2>
   84c08:	200705d8 	.word	0x200705d8
   84c0c:	0008810d 	.word	0x0008810d

00084c10 <sprintf>:
   84c10:	b40e      	push	{r1, r2, r3}
   84c12:	b5f0      	push	{r4, r5, r6, r7, lr}
   84c14:	b09c      	sub	sp, #112	; 0x70
   84c16:	ac21      	add	r4, sp, #132	; 0x84
   84c18:	f854 2b04 	ldr.w	r2, [r4], #4
   84c1c:	490e      	ldr	r1, [pc, #56]	; (84c58 <sprintf+0x48>)
   84c1e:	4606      	mov	r6, r0
   84c20:	4623      	mov	r3, r4
   84c22:	f44f 7e02 	mov.w	lr, #520	; 0x208
   84c26:	f06f 4500 	mvn.w	r5, #2147483648	; 0x80000000
   84c2a:	6808      	ldr	r0, [r1, #0]
   84c2c:	f64f 77ff 	movw	r7, #65535	; 0xffff
   84c30:	a902      	add	r1, sp, #8
   84c32:	9602      	str	r6, [sp, #8]
   84c34:	9606      	str	r6, [sp, #24]
   84c36:	9401      	str	r4, [sp, #4]
   84c38:	f8ad e014 	strh.w	lr, [sp, #20]
   84c3c:	9504      	str	r5, [sp, #16]
   84c3e:	9507      	str	r5, [sp, #28]
   84c40:	f8ad 7016 	strh.w	r7, [sp, #22]
   84c44:	f000 f86c 	bl	84d20 <_svfprintf_r>
   84c48:	9b02      	ldr	r3, [sp, #8]
   84c4a:	2200      	movs	r2, #0
   84c4c:	701a      	strb	r2, [r3, #0]
   84c4e:	b01c      	add	sp, #112	; 0x70
   84c50:	e8bd 40f0 	ldmia.w	sp!, {r4, r5, r6, r7, lr}
   84c54:	b003      	add	sp, #12
   84c56:	4770      	bx	lr
   84c58:	200705d8 	.word	0x200705d8

00084c5c <strlen>:
   84c5c:	f020 0103 	bic.w	r1, r0, #3
   84c60:	f010 0003 	ands.w	r0, r0, #3
   84c64:	f1c0 0000 	rsb	r0, r0, #0
   84c68:	f851 3b04 	ldr.w	r3, [r1], #4
   84c6c:	f100 0c04 	add.w	ip, r0, #4
   84c70:	ea4f 0ccc 	mov.w	ip, ip, lsl #3
   84c74:	f06f 0200 	mvn.w	r2, #0
   84c78:	bf1c      	itt	ne
   84c7a:	fa22 f20c 	lsrne.w	r2, r2, ip
   84c7e:	4313      	orrne	r3, r2
   84c80:	f04f 0c01 	mov.w	ip, #1
   84c84:	ea4c 2c0c 	orr.w	ip, ip, ip, lsl #8
   84c88:	ea4c 4c0c 	orr.w	ip, ip, ip, lsl #16
   84c8c:	eba3 020c 	sub.w	r2, r3, ip
   84c90:	ea22 0203 	bic.w	r2, r2, r3
   84c94:	ea12 12cc 	ands.w	r2, r2, ip, lsl #7
   84c98:	bf04      	itt	eq
   84c9a:	f851 3b04 	ldreq.w	r3, [r1], #4
   84c9e:	3004      	addeq	r0, #4
   84ca0:	d0f4      	beq.n	84c8c <strlen+0x30>
   84ca2:	f013 0fff 	tst.w	r3, #255	; 0xff
   84ca6:	bf1f      	itttt	ne
   84ca8:	3001      	addne	r0, #1
   84caa:	f413 4f7f 	tstne.w	r3, #65280	; 0xff00
   84cae:	3001      	addne	r0, #1
   84cb0:	f413 0f7f 	tstne.w	r3, #16711680	; 0xff0000
   84cb4:	bf18      	it	ne
   84cb6:	3001      	addne	r0, #1
   84cb8:	4770      	bx	lr
   84cba:	bf00      	nop

00084cbc <strncpy>:
   84cbc:	ea40 0301 	orr.w	r3, r0, r1
   84cc0:	079b      	lsls	r3, r3, #30
   84cc2:	b470      	push	{r4, r5, r6}
   84cc4:	d12a      	bne.n	84d1c <strncpy+0x60>
   84cc6:	2a03      	cmp	r2, #3
   84cc8:	d928      	bls.n	84d1c <strncpy+0x60>
   84cca:	460c      	mov	r4, r1
   84ccc:	4603      	mov	r3, r0
   84cce:	4621      	mov	r1, r4
   84cd0:	f854 5b04 	ldr.w	r5, [r4], #4
   84cd4:	f1a5 3601 	sub.w	r6, r5, #16843009	; 0x1010101
   84cd8:	ea26 0605 	bic.w	r6, r6, r5
   84cdc:	f016 3f80 	tst.w	r6, #2155905152	; 0x80808080
   84ce0:	d105      	bne.n	84cee <strncpy+0x32>
   84ce2:	3a04      	subs	r2, #4
   84ce4:	2a03      	cmp	r2, #3
   84ce6:	f843 5b04 	str.w	r5, [r3], #4
   84cea:	4621      	mov	r1, r4
   84cec:	d8ef      	bhi.n	84cce <strncpy+0x12>
   84cee:	b19a      	cbz	r2, 84d18 <strncpy+0x5c>
   84cf0:	780c      	ldrb	r4, [r1, #0]
   84cf2:	3a01      	subs	r2, #1
   84cf4:	701c      	strb	r4, [r3, #0]
   84cf6:	3301      	adds	r3, #1
   84cf8:	b13c      	cbz	r4, 84d0a <strncpy+0x4e>
   84cfa:	b16a      	cbz	r2, 84d18 <strncpy+0x5c>
   84cfc:	f811 4f01 	ldrb.w	r4, [r1, #1]!
   84d00:	3a01      	subs	r2, #1
   84d02:	f803 4b01 	strb.w	r4, [r3], #1
   84d06:	2c00      	cmp	r4, #0
   84d08:	d1f7      	bne.n	84cfa <strncpy+0x3e>
   84d0a:	b12a      	cbz	r2, 84d18 <strncpy+0x5c>
   84d0c:	441a      	add	r2, r3
   84d0e:	2100      	movs	r1, #0
   84d10:	f803 1b01 	strb.w	r1, [r3], #1
   84d14:	4293      	cmp	r3, r2
   84d16:	d1fb      	bne.n	84d10 <strncpy+0x54>
   84d18:	bc70      	pop	{r4, r5, r6}
   84d1a:	4770      	bx	lr
   84d1c:	4603      	mov	r3, r0
   84d1e:	e7e6      	b.n	84cee <strncpy+0x32>

00084d20 <_svfprintf_r>:
   84d20:	e92d 4ff0 	stmdb	sp!, {r4, r5, r6, r7, r8, r9, sl, fp, lr}
   84d24:	b0c9      	sub	sp, #292	; 0x124
   84d26:	9310      	str	r3, [sp, #64]	; 0x40
   84d28:	910c      	str	r1, [sp, #48]	; 0x30
   84d2a:	4691      	mov	r9, r2
   84d2c:	900d      	str	r0, [sp, #52]	; 0x34
   84d2e:	f003 fdbd 	bl	888ac <_localeconv_r>
   84d32:	6800      	ldr	r0, [r0, #0]
   84d34:	9015      	str	r0, [sp, #84]	; 0x54
   84d36:	f7ff ff91 	bl	84c5c <strlen>
   84d3a:	9c0c      	ldr	r4, [sp, #48]	; 0x30
   84d3c:	9018      	str	r0, [sp, #96]	; 0x60
   84d3e:	89a3      	ldrh	r3, [r4, #12]
   84d40:	061e      	lsls	r6, r3, #24
   84d42:	d503      	bpl.n	84d4c <_svfprintf_r+0x2c>
   84d44:	6923      	ldr	r3, [r4, #16]
   84d46:	2b00      	cmp	r3, #0
   84d48:	f001 8081 	beq.w	85e4e <_svfprintf_r+0x112e>
   84d4c:	ac38      	add	r4, sp, #224	; 0xe0
   84d4e:	46a4      	mov	ip, r4
   84d50:	9408      	str	r4, [sp, #32]
   84d52:	942b      	str	r4, [sp, #172]	; 0xac
   84d54:	2500      	movs	r5, #0
   84d56:	2400      	movs	r4, #0
   84d58:	e9cd 4516 	strd	r4, r5, [sp, #88]	; 0x58
   84d5c:	2300      	movs	r3, #0
   84d5e:	9311      	str	r3, [sp, #68]	; 0x44
   84d60:	932d      	str	r3, [sp, #180]	; 0xb4
   84d62:	932c      	str	r3, [sp, #176]	; 0xb0
   84d64:	931a      	str	r3, [sp, #104]	; 0x68
   84d66:	9319      	str	r3, [sp, #100]	; 0x64
   84d68:	930e      	str	r3, [sp, #56]	; 0x38
   84d6a:	4666      	mov	r6, ip
   84d6c:	f899 3000 	ldrb.w	r3, [r9]
   84d70:	2b00      	cmp	r3, #0
   84d72:	f000 80f8 	beq.w	84f66 <_svfprintf_r+0x246>
   84d76:	2b25      	cmp	r3, #37	; 0x25
   84d78:	f000 80f5 	beq.w	84f66 <_svfprintf_r+0x246>
   84d7c:	f109 0201 	add.w	r2, r9, #1
   84d80:	e001      	b.n	84d86 <_svfprintf_r+0x66>
   84d82:	2b25      	cmp	r3, #37	; 0x25
   84d84:	d004      	beq.n	84d90 <_svfprintf_r+0x70>
   84d86:	7813      	ldrb	r3, [r2, #0]
   84d88:	4614      	mov	r4, r2
   84d8a:	3201      	adds	r2, #1
   84d8c:	2b00      	cmp	r3, #0
   84d8e:	d1f8      	bne.n	84d82 <_svfprintf_r+0x62>
   84d90:	ebc9 0504 	rsb	r5, r9, r4
   84d94:	b17d      	cbz	r5, 84db6 <_svfprintf_r+0x96>
   84d96:	9b2c      	ldr	r3, [sp, #176]	; 0xb0
   84d98:	9a2d      	ldr	r2, [sp, #180]	; 0xb4
   84d9a:	3301      	adds	r3, #1
   84d9c:	442a      	add	r2, r5
   84d9e:	2b07      	cmp	r3, #7
   84da0:	f8c6 9000 	str.w	r9, [r6]
   84da4:	6075      	str	r5, [r6, #4]
   84da6:	922d      	str	r2, [sp, #180]	; 0xb4
   84da8:	932c      	str	r3, [sp, #176]	; 0xb0
   84daa:	f300 80c2 	bgt.w	84f32 <_svfprintf_r+0x212>
   84dae:	3608      	adds	r6, #8
   84db0:	980e      	ldr	r0, [sp, #56]	; 0x38
   84db2:	4428      	add	r0, r5
   84db4:	900e      	str	r0, [sp, #56]	; 0x38
   84db6:	7823      	ldrb	r3, [r4, #0]
   84db8:	2b00      	cmp	r3, #0
   84dba:	f000 80c2 	beq.w	84f42 <_svfprintf_r+0x222>
   84dbe:	2300      	movs	r3, #0
   84dc0:	f894 8001 	ldrb.w	r8, [r4, #1]
   84dc4:	461a      	mov	r2, r3
   84dc6:	f88d 308f 	strb.w	r3, [sp, #143]	; 0x8f
   84dca:	930f      	str	r3, [sp, #60]	; 0x3c
   84dcc:	9309      	str	r3, [sp, #36]	; 0x24
   84dce:	f104 0901 	add.w	r9, r4, #1
   84dd2:	f04f 34ff 	mov.w	r4, #4294967295
   84dd6:	940a      	str	r4, [sp, #40]	; 0x28
   84dd8:	f109 0901 	add.w	r9, r9, #1
   84ddc:	f1a8 0320 	sub.w	r3, r8, #32
   84de0:	2b58      	cmp	r3, #88	; 0x58
   84de2:	f200 83c5 	bhi.w	85570 <_svfprintf_r+0x850>
   84de6:	e8df f013 	tbh	[pc, r3, lsl #1]
   84dea:	026a      	.short	0x026a
   84dec:	03c303c3 	.word	0x03c303c3
   84df0:	03c30271 	.word	0x03c30271
   84df4:	03c303c3 	.word	0x03c303c3
   84df8:	03c303c3 	.word	0x03c303c3
   84dfc:	031403c3 	.word	0x031403c3
   84e00:	03c30366 	.word	0x03c30366
   84e04:	00c0009d 	.word	0x00c0009d
   84e08:	027803c3 	.word	0x027803c3
   84e0c:	027f027f 	.word	0x027f027f
   84e10:	027f027f 	.word	0x027f027f
   84e14:	027f027f 	.word	0x027f027f
   84e18:	027f027f 	.word	0x027f027f
   84e1c:	03c3027f 	.word	0x03c3027f
   84e20:	03c303c3 	.word	0x03c303c3
   84e24:	03c303c3 	.word	0x03c303c3
   84e28:	03c303c3 	.word	0x03c303c3
   84e2c:	03c303c3 	.word	0x03c303c3
   84e30:	029003c3 	.word	0x029003c3
   84e34:	03c30371 	.word	0x03c30371
   84e38:	03c30371 	.word	0x03c30371
   84e3c:	03c303c3 	.word	0x03c303c3
   84e40:	036a03c3 	.word	0x036a03c3
   84e44:	03c303c3 	.word	0x03c303c3
   84e48:	03c30078 	.word	0x03c30078
   84e4c:	03c303c3 	.word	0x03c303c3
   84e50:	03c303c3 	.word	0x03c303c3
   84e54:	03c30059 	.word	0x03c30059
   84e58:	02af03c3 	.word	0x02af03c3
   84e5c:	03c303c3 	.word	0x03c303c3
   84e60:	03c303c3 	.word	0x03c303c3
   84e64:	03c303c3 	.word	0x03c303c3
   84e68:	03c303c3 	.word	0x03c303c3
   84e6c:	03c303c3 	.word	0x03c303c3
   84e70:	03480337 	.word	0x03480337
   84e74:	03710371 	.word	0x03710371
   84e78:	02ff0371 	.word	0x02ff0371
   84e7c:	03c30348 	.word	0x03c30348
   84e80:	030803c3 	.word	0x030803c3
   84e84:	02c503c3 	.word	0x02c503c3
   84e88:	0320007c 	.word	0x0320007c
   84e8c:	03c303a3 	.word	0x03c303a3
   84e90:	03c302d9 	.word	0x03c302d9
   84e94:	03c3005f 	.word	0x03c3005f
   84e98:	00de03c3 	.word	0x00de03c3
   84e9c:	f8dd c024 	ldr.w	ip, [sp, #36]	; 0x24
   84ea0:	f04c 0c10 	orr.w	ip, ip, #16
   84ea4:	f8cd c024 	str.w	ip, [sp, #36]	; 0x24
   84ea8:	9c09      	ldr	r4, [sp, #36]	; 0x24
   84eaa:	06a2      	lsls	r2, r4, #26
   84eac:	f100 8354 	bmi.w	85558 <_svfprintf_r+0x838>
   84eb0:	9c09      	ldr	r4, [sp, #36]	; 0x24
   84eb2:	06e3      	lsls	r3, r4, #27
   84eb4:	f100 85bd 	bmi.w	85a32 <_svfprintf_r+0xd12>
   84eb8:	f8dd c024 	ldr.w	ip, [sp, #36]	; 0x24
   84ebc:	f01c 0f40 	tst.w	ip, #64	; 0x40
   84ec0:	f000 85b7 	beq.w	85a32 <_svfprintf_r+0xd12>
   84ec4:	f8dd c040 	ldr.w	ip, [sp, #64]	; 0x40
   84ec8:	2500      	movs	r5, #0
   84eca:	f8bc 4000 	ldrh.w	r4, [ip]
   84ece:	f10c 0c04 	add.w	ip, ip, #4
   84ed2:	2301      	movs	r3, #1
   84ed4:	f8cd c040 	str.w	ip, [sp, #64]	; 0x40
   84ed8:	e08c      	b.n	84ff4 <_svfprintf_r+0x2d4>
   84eda:	9d09      	ldr	r5, [sp, #36]	; 0x24
   84edc:	f045 0510 	orr.w	r5, r5, #16
   84ee0:	9509      	str	r5, [sp, #36]	; 0x24
   84ee2:	f8dd c024 	ldr.w	ip, [sp, #36]	; 0x24
   84ee6:	f01c 0320 	ands.w	r3, ip, #32
   84eea:	f040 832a 	bne.w	85542 <_svfprintf_r+0x822>
   84eee:	f8dd c024 	ldr.w	ip, [sp, #36]	; 0x24
   84ef2:	f01c 0210 	ands.w	r2, ip, #16
   84ef6:	f040 85a4 	bne.w	85a42 <_svfprintf_r+0xd22>
   84efa:	f8dd c024 	ldr.w	ip, [sp, #36]	; 0x24
   84efe:	f01c 0340 	ands.w	r3, ip, #64	; 0x40
   84f02:	f000 859e 	beq.w	85a42 <_svfprintf_r+0xd22>
   84f06:	f8dd c040 	ldr.w	ip, [sp, #64]	; 0x40
   84f0a:	4613      	mov	r3, r2
   84f0c:	f8bc 4000 	ldrh.w	r4, [ip]
   84f10:	f10c 0c04 	add.w	ip, ip, #4
   84f14:	2500      	movs	r5, #0
   84f16:	f8cd c040 	str.w	ip, [sp, #64]	; 0x40
   84f1a:	e06b      	b.n	84ff4 <_svfprintf_r+0x2d4>
   84f1c:	9c0f      	ldr	r4, [sp, #60]	; 0x3c
   84f1e:	9310      	str	r3, [sp, #64]	; 0x40
   84f20:	4264      	negs	r4, r4
   84f22:	940f      	str	r4, [sp, #60]	; 0x3c
   84f24:	9d09      	ldr	r5, [sp, #36]	; 0x24
   84f26:	f045 0504 	orr.w	r5, r5, #4
   84f2a:	9509      	str	r5, [sp, #36]	; 0x24
   84f2c:	f899 8000 	ldrb.w	r8, [r9]
   84f30:	e752      	b.n	84dd8 <_svfprintf_r+0xb8>
   84f32:	980d      	ldr	r0, [sp, #52]	; 0x34
   84f34:	990c      	ldr	r1, [sp, #48]	; 0x30
   84f36:	aa2b      	add	r2, sp, #172	; 0xac
   84f38:	f004 fdc2 	bl	89ac0 <__ssprint_r>
   84f3c:	b940      	cbnz	r0, 84f50 <_svfprintf_r+0x230>
   84f3e:	ae38      	add	r6, sp, #224	; 0xe0
   84f40:	e736      	b.n	84db0 <_svfprintf_r+0x90>
   84f42:	9b2d      	ldr	r3, [sp, #180]	; 0xb4
   84f44:	b123      	cbz	r3, 84f50 <_svfprintf_r+0x230>
   84f46:	980d      	ldr	r0, [sp, #52]	; 0x34
   84f48:	990c      	ldr	r1, [sp, #48]	; 0x30
   84f4a:	aa2b      	add	r2, sp, #172	; 0xac
   84f4c:	f004 fdb8 	bl	89ac0 <__ssprint_r>
   84f50:	9c0c      	ldr	r4, [sp, #48]	; 0x30
   84f52:	980e      	ldr	r0, [sp, #56]	; 0x38
   84f54:	89a3      	ldrh	r3, [r4, #12]
   84f56:	f013 0f40 	tst.w	r3, #64	; 0x40
   84f5a:	bf18      	it	ne
   84f5c:	f04f 30ff 	movne.w	r0, #4294967295
   84f60:	b049      	add	sp, #292	; 0x124
   84f62:	e8bd 8ff0 	ldmia.w	sp!, {r4, r5, r6, r7, r8, r9, sl, fp, pc}
   84f66:	464c      	mov	r4, r9
   84f68:	e725      	b.n	84db6 <_svfprintf_r+0x96>
   84f6a:	f899 8000 	ldrb.w	r8, [r9]
   84f6e:	f109 0001 	add.w	r0, r9, #1
   84f72:	f1b8 0f2a 	cmp.w	r8, #42	; 0x2a
   84f76:	f001 810c 	beq.w	86192 <_svfprintf_r+0x1472>
   84f7a:	f1a8 0330 	sub.w	r3, r8, #48	; 0x30
   84f7e:	2b09      	cmp	r3, #9
   84f80:	bf98      	it	ls
   84f82:	2100      	movls	r1, #0
   84f84:	f201 806b 	bhi.w	8605e <_svfprintf_r+0x133e>
   84f88:	f810 8b01 	ldrb.w	r8, [r0], #1
   84f8c:	eb01 0181 	add.w	r1, r1, r1, lsl #2
   84f90:	eb03 0141 	add.w	r1, r3, r1, lsl #1
   84f94:	f1a8 0330 	sub.w	r3, r8, #48	; 0x30
   84f98:	2b09      	cmp	r3, #9
   84f9a:	d9f5      	bls.n	84f88 <_svfprintf_r+0x268>
   84f9c:	ea41 71e1 	orr.w	r1, r1, r1, asr #31
   84fa0:	910a      	str	r1, [sp, #40]	; 0x28
   84fa2:	4681      	mov	r9, r0
   84fa4:	e71a      	b.n	84ddc <_svfprintf_r+0xbc>
   84fa6:	9d09      	ldr	r5, [sp, #36]	; 0x24
   84fa8:	4ca1      	ldr	r4, [pc, #644]	; (85230 <_svfprintf_r+0x510>)
   84faa:	06af      	lsls	r7, r5, #26
   84fac:	941a      	str	r4, [sp, #104]	; 0x68
   84fae:	f88d 208f 	strb.w	r2, [sp, #143]	; 0x8f
   84fb2:	f140 81d1 	bpl.w	85358 <_svfprintf_r+0x638>
   84fb6:	f8dd c040 	ldr.w	ip, [sp, #64]	; 0x40
   84fba:	f10c 0307 	add.w	r3, ip, #7
   84fbe:	f023 0307 	bic.w	r3, r3, #7
   84fc2:	f103 0408 	add.w	r4, r3, #8
   84fc6:	9410      	str	r4, [sp, #64]	; 0x40
   84fc8:	e9d3 4500 	ldrd	r4, r5, [r3]
   84fcc:	f8dd c024 	ldr.w	ip, [sp, #36]	; 0x24
   84fd0:	f01c 0f01 	tst.w	ip, #1
   84fd4:	f000 8462 	beq.w	8589c <_svfprintf_r+0xb7c>
   84fd8:	ea54 0005 	orrs.w	r0, r4, r5
   84fdc:	f000 845e 	beq.w	8589c <_svfprintf_r+0xb7c>
   84fe0:	2330      	movs	r3, #48	; 0x30
   84fe2:	f04c 0c02 	orr.w	ip, ip, #2
   84fe6:	f88d 3090 	strb.w	r3, [sp, #144]	; 0x90
   84fea:	f88d 8091 	strb.w	r8, [sp, #145]	; 0x91
   84fee:	f8cd c024 	str.w	ip, [sp, #36]	; 0x24
   84ff2:	2302      	movs	r3, #2
   84ff4:	f04f 0a00 	mov.w	sl, #0
   84ff8:	f88d a08f 	strb.w	sl, [sp, #143]	; 0x8f
   84ffc:	990a      	ldr	r1, [sp, #40]	; 0x28
   84ffe:	2900      	cmp	r1, #0
   85000:	db05      	blt.n	8500e <_svfprintf_r+0x2ee>
   85002:	f8dd c024 	ldr.w	ip, [sp, #36]	; 0x24
   85006:	f02c 0c80 	bic.w	ip, ip, #128	; 0x80
   8500a:	f8cd c024 	str.w	ip, [sp, #36]	; 0x24
   8500e:	ea54 0005 	orrs.w	r0, r4, r5
   85012:	f040 82c5 	bne.w	855a0 <_svfprintf_r+0x880>
   85016:	990a      	ldr	r1, [sp, #40]	; 0x28
   85018:	2900      	cmp	r1, #0
   8501a:	f040 82c1 	bne.w	855a0 <_svfprintf_r+0x880>
   8501e:	2b00      	cmp	r3, #0
   85020:	f040 8438 	bne.w	85894 <_svfprintf_r+0xb74>
   85024:	f8dd c024 	ldr.w	ip, [sp, #36]	; 0x24
   85028:	f01c 0f01 	tst.w	ip, #1
   8502c:	f000 8432 	beq.w	85894 <_svfprintf_r+0xb74>
   85030:	af48      	add	r7, sp, #288	; 0x120
   85032:	2330      	movs	r3, #48	; 0x30
   85034:	9d08      	ldr	r5, [sp, #32]
   85036:	f807 3d41 	strb.w	r3, [r7, #-65]!
   8503a:	1bec      	subs	r4, r5, r7
   8503c:	f8dd c028 	ldr.w	ip, [sp, #40]	; 0x28
   85040:	2500      	movs	r5, #0
   85042:	4564      	cmp	r4, ip
   85044:	bfa8      	it	ge
   85046:	46a4      	movge	ip, r4
   85048:	f8cd c02c 	str.w	ip, [sp, #44]	; 0x2c
   8504c:	9514      	str	r5, [sp, #80]	; 0x50
   8504e:	f1ba 0f00 	cmp.w	sl, #0
   85052:	d002      	beq.n	8505a <_svfprintf_r+0x33a>
   85054:	9d0b      	ldr	r5, [sp, #44]	; 0x2c
   85056:	3501      	adds	r5, #1
   85058:	950b      	str	r5, [sp, #44]	; 0x2c
   8505a:	9b09      	ldr	r3, [sp, #36]	; 0x24
   8505c:	f013 0302 	ands.w	r3, r3, #2
   85060:	9312      	str	r3, [sp, #72]	; 0x48
   85062:	d002      	beq.n	8506a <_svfprintf_r+0x34a>
   85064:	9d0b      	ldr	r5, [sp, #44]	; 0x2c
   85066:	3502      	adds	r5, #2
   85068:	950b      	str	r5, [sp, #44]	; 0x2c
   8506a:	f8dd c024 	ldr.w	ip, [sp, #36]	; 0x24
   8506e:	f01c 0c84 	ands.w	ip, ip, #132	; 0x84
   85072:	f8cd c04c 	str.w	ip, [sp, #76]	; 0x4c
   85076:	f040 8290 	bne.w	8559a <_svfprintf_r+0x87a>
   8507a:	9d0f      	ldr	r5, [sp, #60]	; 0x3c
   8507c:	f8dd c02c 	ldr.w	ip, [sp, #44]	; 0x2c
   85080:	ebcc 0b05 	rsb	fp, ip, r5
   85084:	f1bb 0f00 	cmp.w	fp, #0
   85088:	f340 8287 	ble.w	8559a <_svfprintf_r+0x87a>
   8508c:	f1bb 0f10 	cmp.w	fp, #16
   85090:	992d      	ldr	r1, [sp, #180]	; 0xb4
   85092:	9a2c      	ldr	r2, [sp, #176]	; 0xb0
   85094:	f8df a1a0 	ldr.w	sl, [pc, #416]	; 85238 <_svfprintf_r+0x518>
   85098:	dd2c      	ble.n	850f4 <_svfprintf_r+0x3d4>
   8509a:	971b      	str	r7, [sp, #108]	; 0x6c
   8509c:	4630      	mov	r0, r6
   8509e:	4657      	mov	r7, sl
   850a0:	2510      	movs	r5, #16
   850a2:	46ca      	mov	sl, r9
   850a4:	9e0c      	ldr	r6, [sp, #48]	; 0x30
   850a6:	46a1      	mov	r9, r4
   850a8:	9c0d      	ldr	r4, [sp, #52]	; 0x34
   850aa:	e006      	b.n	850ba <_svfprintf_r+0x39a>
   850ac:	f1ab 0b10 	sub.w	fp, fp, #16
   850b0:	f1bb 0f10 	cmp.w	fp, #16
   850b4:	f100 0008 	add.w	r0, r0, #8
   850b8:	dd17      	ble.n	850ea <_svfprintf_r+0x3ca>
   850ba:	3201      	adds	r2, #1
   850bc:	3110      	adds	r1, #16
   850be:	2a07      	cmp	r2, #7
   850c0:	912d      	str	r1, [sp, #180]	; 0xb4
   850c2:	922c      	str	r2, [sp, #176]	; 0xb0
   850c4:	6007      	str	r7, [r0, #0]
   850c6:	6045      	str	r5, [r0, #4]
   850c8:	ddf0      	ble.n	850ac <_svfprintf_r+0x38c>
   850ca:	4620      	mov	r0, r4
   850cc:	4631      	mov	r1, r6
   850ce:	aa2b      	add	r2, sp, #172	; 0xac
   850d0:	f004 fcf6 	bl	89ac0 <__ssprint_r>
   850d4:	2800      	cmp	r0, #0
   850d6:	f47f af3b 	bne.w	84f50 <_svfprintf_r+0x230>
   850da:	f1ab 0b10 	sub.w	fp, fp, #16
   850de:	f1bb 0f10 	cmp.w	fp, #16
   850e2:	992d      	ldr	r1, [sp, #180]	; 0xb4
   850e4:	9a2c      	ldr	r2, [sp, #176]	; 0xb0
   850e6:	a838      	add	r0, sp, #224	; 0xe0
   850e8:	dce7      	bgt.n	850ba <_svfprintf_r+0x39a>
   850ea:	464c      	mov	r4, r9
   850ec:	46d1      	mov	r9, sl
   850ee:	46ba      	mov	sl, r7
   850f0:	9f1b      	ldr	r7, [sp, #108]	; 0x6c
   850f2:	4606      	mov	r6, r0
   850f4:	3201      	adds	r2, #1
   850f6:	eb0b 0c01 	add.w	ip, fp, r1
   850fa:	2a07      	cmp	r2, #7
   850fc:	f8cd c0b4 	str.w	ip, [sp, #180]	; 0xb4
   85100:	922c      	str	r2, [sp, #176]	; 0xb0
   85102:	e886 0c00 	stmia.w	r6, {sl, fp}
   85106:	f300 841a 	bgt.w	8593e <_svfprintf_r+0xc1e>
   8510a:	f89d a08f 	ldrb.w	sl, [sp, #143]	; 0x8f
   8510e:	3608      	adds	r6, #8
   85110:	f1ba 0f00 	cmp.w	sl, #0
   85114:	d00f      	beq.n	85136 <_svfprintf_r+0x416>
   85116:	9b2c      	ldr	r3, [sp, #176]	; 0xb0
   85118:	f10c 0c01 	add.w	ip, ip, #1
   8511c:	3301      	adds	r3, #1
   8511e:	f10d 018f 	add.w	r1, sp, #143	; 0x8f
   85122:	2201      	movs	r2, #1
   85124:	2b07      	cmp	r3, #7
   85126:	f8cd c0b4 	str.w	ip, [sp, #180]	; 0xb4
   8512a:	932c      	str	r3, [sp, #176]	; 0xb0
   8512c:	e886 0006 	stmia.w	r6, {r1, r2}
   85130:	f300 83a4 	bgt.w	8587c <_svfprintf_r+0xb5c>
   85134:	3608      	adds	r6, #8
   85136:	9b12      	ldr	r3, [sp, #72]	; 0x48
   85138:	b173      	cbz	r3, 85158 <_svfprintf_r+0x438>
   8513a:	9b2c      	ldr	r3, [sp, #176]	; 0xb0
   8513c:	f10c 0c02 	add.w	ip, ip, #2
   85140:	3301      	adds	r3, #1
   85142:	a924      	add	r1, sp, #144	; 0x90
   85144:	2202      	movs	r2, #2
   85146:	2b07      	cmp	r3, #7
   85148:	f8cd c0b4 	str.w	ip, [sp, #180]	; 0xb4
   8514c:	932c      	str	r3, [sp, #176]	; 0xb0
   8514e:	e886 0006 	stmia.w	r6, {r1, r2}
   85152:	f300 8387 	bgt.w	85864 <_svfprintf_r+0xb44>
   85156:	3608      	adds	r6, #8
   85158:	9d13      	ldr	r5, [sp, #76]	; 0x4c
   8515a:	2d80      	cmp	r5, #128	; 0x80
   8515c:	f000 82ca 	beq.w	856f4 <_svfprintf_r+0x9d4>
   85160:	9d0a      	ldr	r5, [sp, #40]	; 0x28
   85162:	ebc4 0a05 	rsb	sl, r4, r5
   85166:	f1ba 0f00 	cmp.w	sl, #0
   8516a:	dd3b      	ble.n	851e4 <_svfprintf_r+0x4c4>
   8516c:	f1ba 0f10 	cmp.w	sl, #16
   85170:	9b2c      	ldr	r3, [sp, #176]	; 0xb0
   85172:	4d30      	ldr	r5, [pc, #192]	; (85234 <_svfprintf_r+0x514>)
   85174:	dd2b      	ble.n	851ce <_svfprintf_r+0x4ae>
   85176:	940a      	str	r4, [sp, #40]	; 0x28
   85178:	4632      	mov	r2, r6
   8517a:	f04f 0b10 	mov.w	fp, #16
   8517e:	462e      	mov	r6, r5
   85180:	4661      	mov	r1, ip
   85182:	9c0d      	ldr	r4, [sp, #52]	; 0x34
   85184:	9d0c      	ldr	r5, [sp, #48]	; 0x30
   85186:	e006      	b.n	85196 <_svfprintf_r+0x476>
   85188:	f1aa 0a10 	sub.w	sl, sl, #16
   8518c:	f1ba 0f10 	cmp.w	sl, #16
   85190:	f102 0208 	add.w	r2, r2, #8
   85194:	dd17      	ble.n	851c6 <_svfprintf_r+0x4a6>
   85196:	3301      	adds	r3, #1
   85198:	3110      	adds	r1, #16
   8519a:	2b07      	cmp	r3, #7
   8519c:	912d      	str	r1, [sp, #180]	; 0xb4
   8519e:	932c      	str	r3, [sp, #176]	; 0xb0
   851a0:	e882 0840 	stmia.w	r2, {r6, fp}
   851a4:	ddf0      	ble.n	85188 <_svfprintf_r+0x468>
   851a6:	4620      	mov	r0, r4
   851a8:	4629      	mov	r1, r5
   851aa:	aa2b      	add	r2, sp, #172	; 0xac
   851ac:	f004 fc88 	bl	89ac0 <__ssprint_r>
   851b0:	2800      	cmp	r0, #0
   851b2:	f47f aecd 	bne.w	84f50 <_svfprintf_r+0x230>
   851b6:	f1aa 0a10 	sub.w	sl, sl, #16
   851ba:	f1ba 0f10 	cmp.w	sl, #16
   851be:	992d      	ldr	r1, [sp, #180]	; 0xb4
   851c0:	9b2c      	ldr	r3, [sp, #176]	; 0xb0
   851c2:	aa38      	add	r2, sp, #224	; 0xe0
   851c4:	dce7      	bgt.n	85196 <_svfprintf_r+0x476>
   851c6:	9c0a      	ldr	r4, [sp, #40]	; 0x28
   851c8:	4635      	mov	r5, r6
   851ca:	468c      	mov	ip, r1
   851cc:	4616      	mov	r6, r2
   851ce:	3301      	adds	r3, #1
   851d0:	44d4      	add	ip, sl
   851d2:	2b07      	cmp	r3, #7
   851d4:	f8cd c0b4 	str.w	ip, [sp, #180]	; 0xb4
   851d8:	932c      	str	r3, [sp, #176]	; 0xb0
   851da:	e886 0420 	stmia.w	r6, {r5, sl}
   851de:	f300 8335 	bgt.w	8584c <_svfprintf_r+0xb2c>
   851e2:	3608      	adds	r6, #8
   851e4:	9d09      	ldr	r5, [sp, #36]	; 0x24
   851e6:	05ed      	lsls	r5, r5, #23
   851e8:	f100 8224 	bmi.w	85634 <_svfprintf_r+0x914>
   851ec:	9b2c      	ldr	r3, [sp, #176]	; 0xb0
   851ee:	44a4      	add	ip, r4
   851f0:	3301      	adds	r3, #1
   851f2:	2b07      	cmp	r3, #7
   851f4:	f8cd c0b4 	str.w	ip, [sp, #180]	; 0xb4
   851f8:	6037      	str	r7, [r6, #0]
   851fa:	6074      	str	r4, [r6, #4]
   851fc:	932c      	str	r3, [sp, #176]	; 0xb0
   851fe:	f300 830f 	bgt.w	85820 <_svfprintf_r+0xb00>
   85202:	3608      	adds	r6, #8
   85204:	9c09      	ldr	r4, [sp, #36]	; 0x24
   85206:	0763      	lsls	r3, r4, #29
   85208:	d549      	bpl.n	8529e <_svfprintf_r+0x57e>
   8520a:	9d0f      	ldr	r5, [sp, #60]	; 0x3c
   8520c:	980b      	ldr	r0, [sp, #44]	; 0x2c
   8520e:	1a2c      	subs	r4, r5, r0
   85210:	2c00      	cmp	r4, #0
   85212:	dd44      	ble.n	8529e <_svfprintf_r+0x57e>
   85214:	2c10      	cmp	r4, #16
   85216:	9b2c      	ldr	r3, [sp, #176]	; 0xb0
   85218:	f8df a01c 	ldr.w	sl, [pc, #28]	; 85238 <_svfprintf_r+0x518>
   8521c:	dd2b      	ble.n	85276 <_svfprintf_r+0x556>
   8521e:	4657      	mov	r7, sl
   85220:	2510      	movs	r5, #16
   85222:	4662      	mov	r2, ip
   85224:	f8dd 8030 	ldr.w	r8, [sp, #48]	; 0x30
   85228:	f8dd a034 	ldr.w	sl, [sp, #52]	; 0x34
   8522c:	e00b      	b.n	85246 <_svfprintf_r+0x526>
   8522e:	bf00      	nop
   85230:	0008a9bc 	.word	0x0008a9bc
   85234:	0008a988 	.word	0x0008a988
   85238:	0008a9d8 	.word	0x0008a9d8
   8523c:	3c10      	subs	r4, #16
   8523e:	2c10      	cmp	r4, #16
   85240:	f106 0608 	add.w	r6, r6, #8
   85244:	dd15      	ble.n	85272 <_svfprintf_r+0x552>
   85246:	3301      	adds	r3, #1
   85248:	3210      	adds	r2, #16
   8524a:	2b07      	cmp	r3, #7
   8524c:	922d      	str	r2, [sp, #180]	; 0xb4
   8524e:	932c      	str	r3, [sp, #176]	; 0xb0
   85250:	6037      	str	r7, [r6, #0]
   85252:	6075      	str	r5, [r6, #4]
   85254:	ddf2      	ble.n	8523c <_svfprintf_r+0x51c>
   85256:	4650      	mov	r0, sl
   85258:	4641      	mov	r1, r8
   8525a:	aa2b      	add	r2, sp, #172	; 0xac
   8525c:	f004 fc30 	bl	89ac0 <__ssprint_r>
   85260:	2800      	cmp	r0, #0
   85262:	f47f ae75 	bne.w	84f50 <_svfprintf_r+0x230>
   85266:	3c10      	subs	r4, #16
   85268:	2c10      	cmp	r4, #16
   8526a:	9a2d      	ldr	r2, [sp, #180]	; 0xb4
   8526c:	9b2c      	ldr	r3, [sp, #176]	; 0xb0
   8526e:	ae38      	add	r6, sp, #224	; 0xe0
   85270:	dce9      	bgt.n	85246 <_svfprintf_r+0x526>
   85272:	4694      	mov	ip, r2
   85274:	46ba      	mov	sl, r7
   85276:	3301      	adds	r3, #1
   85278:	44a4      	add	ip, r4
   8527a:	2b07      	cmp	r3, #7
   8527c:	f8cd c0b4 	str.w	ip, [sp, #180]	; 0xb4
   85280:	932c      	str	r3, [sp, #176]	; 0xb0
   85282:	f8c6 a000 	str.w	sl, [r6]
   85286:	6074      	str	r4, [r6, #4]
   85288:	dd09      	ble.n	8529e <_svfprintf_r+0x57e>
   8528a:	980d      	ldr	r0, [sp, #52]	; 0x34
   8528c:	990c      	ldr	r1, [sp, #48]	; 0x30
   8528e:	aa2b      	add	r2, sp, #172	; 0xac
   85290:	f004 fc16 	bl	89ac0 <__ssprint_r>
   85294:	2800      	cmp	r0, #0
   85296:	f47f ae5b 	bne.w	84f50 <_svfprintf_r+0x230>
   8529a:	f8dd c0b4 	ldr.w	ip, [sp, #180]	; 0xb4
   8529e:	9c0e      	ldr	r4, [sp, #56]	; 0x38
   852a0:	980b      	ldr	r0, [sp, #44]	; 0x2c
   852a2:	9d0f      	ldr	r5, [sp, #60]	; 0x3c
   852a4:	42a8      	cmp	r0, r5
   852a6:	bfac      	ite	ge
   852a8:	1824      	addge	r4, r4, r0
   852aa:	1964      	addlt	r4, r4, r5
   852ac:	940e      	str	r4, [sp, #56]	; 0x38
   852ae:	f1bc 0f00 	cmp.w	ip, #0
   852b2:	f040 82c1 	bne.w	85838 <_svfprintf_r+0xb18>
   852b6:	2300      	movs	r3, #0
   852b8:	932c      	str	r3, [sp, #176]	; 0xb0
   852ba:	ae38      	add	r6, sp, #224	; 0xe0
   852bc:	e556      	b.n	84d6c <_svfprintf_r+0x4c>
   852be:	f899 8000 	ldrb.w	r8, [r9]
   852c2:	2a00      	cmp	r2, #0
   852c4:	f47f ad88 	bne.w	84dd8 <_svfprintf_r+0xb8>
   852c8:	2220      	movs	r2, #32
   852ca:	e585      	b.n	84dd8 <_svfprintf_r+0xb8>
   852cc:	9d09      	ldr	r5, [sp, #36]	; 0x24
   852ce:	f045 0501 	orr.w	r5, r5, #1
   852d2:	9509      	str	r5, [sp, #36]	; 0x24
   852d4:	f899 8000 	ldrb.w	r8, [r9]
   852d8:	e57e      	b.n	84dd8 <_svfprintf_r+0xb8>
   852da:	9d09      	ldr	r5, [sp, #36]	; 0x24
   852dc:	f045 0580 	orr.w	r5, r5, #128	; 0x80
   852e0:	9509      	str	r5, [sp, #36]	; 0x24
   852e2:	f899 8000 	ldrb.w	r8, [r9]
   852e6:	e577      	b.n	84dd8 <_svfprintf_r+0xb8>
   852e8:	2400      	movs	r4, #0
   852ea:	f1a8 0330 	sub.w	r3, r8, #48	; 0x30
   852ee:	940f      	str	r4, [sp, #60]	; 0x3c
   852f0:	4621      	mov	r1, r4
   852f2:	f819 8b01 	ldrb.w	r8, [r9], #1
   852f6:	eb01 0181 	add.w	r1, r1, r1, lsl #2
   852fa:	eb03 0141 	add.w	r1, r3, r1, lsl #1
   852fe:	f1a8 0330 	sub.w	r3, r8, #48	; 0x30
   85302:	2b09      	cmp	r3, #9
   85304:	d9f5      	bls.n	852f2 <_svfprintf_r+0x5d2>
   85306:	910f      	str	r1, [sp, #60]	; 0x3c
   85308:	e568      	b.n	84ddc <_svfprintf_r+0xbc>
   8530a:	f8dd c024 	ldr.w	ip, [sp, #36]	; 0x24
   8530e:	f88d 208f 	strb.w	r2, [sp, #143]	; 0x8f
   85312:	f04c 0c10 	orr.w	ip, ip, #16
   85316:	f8cd c024 	str.w	ip, [sp, #36]	; 0x24
   8531a:	9c09      	ldr	r4, [sp, #36]	; 0x24
   8531c:	06a5      	lsls	r5, r4, #26
   8531e:	f140 80b2 	bpl.w	85486 <_svfprintf_r+0x766>
   85322:	9d10      	ldr	r5, [sp, #64]	; 0x40
   85324:	1de9      	adds	r1, r5, #7
   85326:	f021 0107 	bic.w	r1, r1, #7
   8532a:	e9d1 2300 	ldrd	r2, r3, [r1]
   8532e:	3108      	adds	r1, #8
   85330:	9110      	str	r1, [sp, #64]	; 0x40
   85332:	4614      	mov	r4, r2
   85334:	461d      	mov	r5, r3
   85336:	2a00      	cmp	r2, #0
   85338:	f173 0c00 	sbcs.w	ip, r3, #0
   8533c:	f2c0 8394 	blt.w	85a68 <_svfprintf_r+0xd48>
   85340:	f89d a08f 	ldrb.w	sl, [sp, #143]	; 0x8f
   85344:	2301      	movs	r3, #1
   85346:	e659      	b.n	84ffc <_svfprintf_r+0x2dc>
   85348:	9d09      	ldr	r5, [sp, #36]	; 0x24
   8534a:	4cb6      	ldr	r4, [pc, #728]	; (85624 <_svfprintf_r+0x904>)
   8534c:	06af      	lsls	r7, r5, #26
   8534e:	f88d 208f 	strb.w	r2, [sp, #143]	; 0x8f
   85352:	941a      	str	r4, [sp, #104]	; 0x68
   85354:	f53f ae2f 	bmi.w	84fb6 <_svfprintf_r+0x296>
   85358:	9d09      	ldr	r5, [sp, #36]	; 0x24
   8535a:	06ed      	lsls	r5, r5, #27
   8535c:	f140 8443 	bpl.w	85be6 <_svfprintf_r+0xec6>
   85360:	f8dd c040 	ldr.w	ip, [sp, #64]	; 0x40
   85364:	2500      	movs	r5, #0
   85366:	f8dc 4000 	ldr.w	r4, [ip]
   8536a:	f10c 0c04 	add.w	ip, ip, #4
   8536e:	f8cd c040 	str.w	ip, [sp, #64]	; 0x40
   85372:	e62b      	b.n	84fcc <_svfprintf_r+0x2ac>
   85374:	f8dd c024 	ldr.w	ip, [sp, #36]	; 0x24
   85378:	f88d 208f 	strb.w	r2, [sp, #143]	; 0x8f
   8537c:	f01c 0f20 	tst.w	ip, #32
   85380:	f000 8440 	beq.w	85c04 <_svfprintf_r+0xee4>
   85384:	9c10      	ldr	r4, [sp, #64]	; 0x40
   85386:	6821      	ldr	r1, [r4, #0]
   85388:	9c0e      	ldr	r4, [sp, #56]	; 0x38
   8538a:	17e5      	asrs	r5, r4, #31
   8538c:	462b      	mov	r3, r5
   8538e:	9d10      	ldr	r5, [sp, #64]	; 0x40
   85390:	4622      	mov	r2, r4
   85392:	3504      	adds	r5, #4
   85394:	9510      	str	r5, [sp, #64]	; 0x40
   85396:	e9c1 2300 	strd	r2, r3, [r1]
   8539a:	e4e7      	b.n	84d6c <_svfprintf_r+0x4c>
   8539c:	9c10      	ldr	r4, [sp, #64]	; 0x40
   8539e:	f04f 0a00 	mov.w	sl, #0
   853a2:	6827      	ldr	r7, [r4, #0]
   853a4:	f88d a08f 	strb.w	sl, [sp, #143]	; 0x8f
   853a8:	1d25      	adds	r5, r4, #4
   853aa:	2f00      	cmp	r7, #0
   853ac:	f000 85e9 	beq.w	85f82 <_svfprintf_r+0x1262>
   853b0:	9c0a      	ldr	r4, [sp, #40]	; 0x28
   853b2:	4638      	mov	r0, r7
   853b4:	2c00      	cmp	r4, #0
   853b6:	f2c0 859b 	blt.w	85ef0 <_svfprintf_r+0x11d0>
   853ba:	4651      	mov	r1, sl
   853bc:	4622      	mov	r2, r4
   853be:	f003 fd8d 	bl	88edc <memchr>
   853c2:	2800      	cmp	r0, #0
   853c4:	f000 8613 	beq.w	85fee <_svfprintf_r+0x12ce>
   853c8:	9c0a      	ldr	r4, [sp, #40]	; 0x28
   853ca:	1bc0      	subs	r0, r0, r7
   853cc:	42a0      	cmp	r0, r4
   853ce:	bfb8      	it	lt
   853d0:	4604      	movlt	r4, r0
   853d2:	9510      	str	r5, [sp, #64]	; 0x40
   853d4:	ea24 75e4 	bic.w	r5, r4, r4, asr #31
   853d8:	f8cd a028 	str.w	sl, [sp, #40]	; 0x28
   853dc:	f8cd a050 	str.w	sl, [sp, #80]	; 0x50
   853e0:	950b      	str	r5, [sp, #44]	; 0x2c
   853e2:	f89d a08f 	ldrb.w	sl, [sp, #143]	; 0x8f
   853e6:	e632      	b.n	8504e <_svfprintf_r+0x32e>
   853e8:	f8dd c024 	ldr.w	ip, [sp, #36]	; 0x24
   853ec:	f04c 0c40 	orr.w	ip, ip, #64	; 0x40
   853f0:	f8cd c024 	str.w	ip, [sp, #36]	; 0x24
   853f4:	f899 8000 	ldrb.w	r8, [r9]
   853f8:	e4ee      	b.n	84dd8 <_svfprintf_r+0xb8>
   853fa:	f899 8000 	ldrb.w	r8, [r9]
   853fe:	464b      	mov	r3, r9
   85400:	f1b8 0f6c 	cmp.w	r8, #108	; 0x6c
   85404:	f000 847f 	beq.w	85d06 <_svfprintf_r+0xfe6>
   85408:	9d09      	ldr	r5, [sp, #36]	; 0x24
   8540a:	f045 0510 	orr.w	r5, r5, #16
   8540e:	9509      	str	r5, [sp, #36]	; 0x24
   85410:	e4e2      	b.n	84dd8 <_svfprintf_r+0xb8>
   85412:	9c10      	ldr	r4, [sp, #64]	; 0x40
   85414:	9d10      	ldr	r5, [sp, #64]	; 0x40
   85416:	6824      	ldr	r4, [r4, #0]
   85418:	1d2b      	adds	r3, r5, #4
   8541a:	2c00      	cmp	r4, #0
   8541c:	940f      	str	r4, [sp, #60]	; 0x3c
   8541e:	f6ff ad7d 	blt.w	84f1c <_svfprintf_r+0x1fc>
   85422:	9310      	str	r3, [sp, #64]	; 0x40
   85424:	f899 8000 	ldrb.w	r8, [r9]
   85428:	e4d6      	b.n	84dd8 <_svfprintf_r+0xb8>
   8542a:	9b10      	ldr	r3, [sp, #64]	; 0x40
   8542c:	f8dd c024 	ldr.w	ip, [sp, #36]	; 0x24
   85430:	9d10      	ldr	r5, [sp, #64]	; 0x40
   85432:	487d      	ldr	r0, [pc, #500]	; (85628 <_svfprintf_r+0x908>)
   85434:	3504      	adds	r5, #4
   85436:	681c      	ldr	r4, [r3, #0]
   85438:	f04f 0878 	mov.w	r8, #120	; 0x78
   8543c:	2330      	movs	r3, #48	; 0x30
   8543e:	f04c 0c02 	orr.w	ip, ip, #2
   85442:	9510      	str	r5, [sp, #64]	; 0x40
   85444:	f88d 3090 	strb.w	r3, [sp, #144]	; 0x90
   85448:	f8cd c024 	str.w	ip, [sp, #36]	; 0x24
   8544c:	2500      	movs	r5, #0
   8544e:	f88d 8091 	strb.w	r8, [sp, #145]	; 0x91
   85452:	901a      	str	r0, [sp, #104]	; 0x68
   85454:	2302      	movs	r3, #2
   85456:	e5cd      	b.n	84ff4 <_svfprintf_r+0x2d4>
   85458:	9b10      	ldr	r3, [sp, #64]	; 0x40
   8545a:	9d10      	ldr	r5, [sp, #64]	; 0x40
   8545c:	681a      	ldr	r2, [r3, #0]
   8545e:	2401      	movs	r4, #1
   85460:	2300      	movs	r3, #0
   85462:	3504      	adds	r5, #4
   85464:	469a      	mov	sl, r3
   85466:	940b      	str	r4, [sp, #44]	; 0x2c
   85468:	f88d 20b8 	strb.w	r2, [sp, #184]	; 0xb8
   8546c:	9510      	str	r5, [sp, #64]	; 0x40
   8546e:	f88d 308f 	strb.w	r3, [sp, #143]	; 0x8f
   85472:	930a      	str	r3, [sp, #40]	; 0x28
   85474:	9314      	str	r3, [sp, #80]	; 0x50
   85476:	af2e      	add	r7, sp, #184	; 0xb8
   85478:	e5ef      	b.n	8505a <_svfprintf_r+0x33a>
   8547a:	9c09      	ldr	r4, [sp, #36]	; 0x24
   8547c:	f88d 208f 	strb.w	r2, [sp, #143]	; 0x8f
   85480:	06a5      	lsls	r5, r4, #26
   85482:	f53f af4e 	bmi.w	85322 <_svfprintf_r+0x602>
   85486:	f8dd c024 	ldr.w	ip, [sp, #36]	; 0x24
   8548a:	f01c 0f10 	tst.w	ip, #16
   8548e:	f040 82df 	bne.w	85a50 <_svfprintf_r+0xd30>
   85492:	f8dd c024 	ldr.w	ip, [sp, #36]	; 0x24
   85496:	f01c 0f40 	tst.w	ip, #64	; 0x40
   8549a:	f000 82d9 	beq.w	85a50 <_svfprintf_r+0xd30>
   8549e:	f8dd c040 	ldr.w	ip, [sp, #64]	; 0x40
   854a2:	f9bc 4000 	ldrsh.w	r4, [ip]
   854a6:	f10c 0c04 	add.w	ip, ip, #4
   854aa:	17e5      	asrs	r5, r4, #31
   854ac:	4622      	mov	r2, r4
   854ae:	462b      	mov	r3, r5
   854b0:	f8cd c040 	str.w	ip, [sp, #64]	; 0x40
   854b4:	e73f      	b.n	85336 <_svfprintf_r+0x616>
   854b6:	f899 8000 	ldrb.w	r8, [r9]
   854ba:	222b      	movs	r2, #43	; 0x2b
   854bc:	e48c      	b.n	84dd8 <_svfprintf_r+0xb8>
   854be:	9d09      	ldr	r5, [sp, #36]	; 0x24
   854c0:	f045 0508 	orr.w	r5, r5, #8
   854c4:	9509      	str	r5, [sp, #36]	; 0x24
   854c6:	f899 8000 	ldrb.w	r8, [r9]
   854ca:	e485      	b.n	84dd8 <_svfprintf_r+0xb8>
   854cc:	9d10      	ldr	r5, [sp, #64]	; 0x40
   854ce:	f88d 208f 	strb.w	r2, [sp, #143]	; 0x8f
   854d2:	1deb      	adds	r3, r5, #7
   854d4:	f023 0307 	bic.w	r3, r3, #7
   854d8:	f103 0c08 	add.w	ip, r3, #8
   854dc:	f8cd c040 	str.w	ip, [sp, #64]	; 0x40
   854e0:	e9d3 4500 	ldrd	r4, r5, [r3]
   854e4:	e9cd 4516 	strd	r4, r5, [sp, #88]	; 0x58
   854e8:	e9dd 0116 	ldrd	r0, r1, [sp, #88]	; 0x58
   854ec:	f7fe fd5c 	bl	83fa8 <__fpclassifyd>
   854f0:	2801      	cmp	r0, #1
   854f2:	e9dd 0116 	ldrd	r0, r1, [sp, #88]	; 0x58
   854f6:	f040 835c 	bne.w	85bb2 <_svfprintf_r+0xe92>
   854fa:	2200      	movs	r2, #0
   854fc:	2300      	movs	r3, #0
   854fe:	f7ff f9ad 	bl	8485c <__aeabi_dcmplt>
   85502:	2800      	cmp	r0, #0
   85504:	f040 8563 	bne.w	85fce <_svfprintf_r+0x12ae>
   85508:	f89d a08f 	ldrb.w	sl, [sp, #143]	; 0x8f
   8550c:	2503      	movs	r5, #3
   8550e:	950b      	str	r5, [sp, #44]	; 0x2c
   85510:	9d09      	ldr	r5, [sp, #36]	; 0x24
   85512:	4f46      	ldr	r7, [pc, #280]	; (8562c <_svfprintf_r+0x90c>)
   85514:	f025 0580 	bic.w	r5, r5, #128	; 0x80
   85518:	4b45      	ldr	r3, [pc, #276]	; (85630 <_svfprintf_r+0x910>)
   8551a:	2400      	movs	r4, #0
   8551c:	9509      	str	r5, [sp, #36]	; 0x24
   8551e:	2500      	movs	r5, #0
   85520:	940a      	str	r4, [sp, #40]	; 0x28
   85522:	f1b8 0f47 	cmp.w	r8, #71	; 0x47
   85526:	bfd8      	it	le
   85528:	461f      	movle	r7, r3
   8552a:	2403      	movs	r4, #3
   8552c:	9514      	str	r5, [sp, #80]	; 0x50
   8552e:	e58e      	b.n	8504e <_svfprintf_r+0x32e>
   85530:	f8dd c024 	ldr.w	ip, [sp, #36]	; 0x24
   85534:	f04c 0c20 	orr.w	ip, ip, #32
   85538:	f8cd c024 	str.w	ip, [sp, #36]	; 0x24
   8553c:	f899 8000 	ldrb.w	r8, [r9]
   85540:	e44a      	b.n	84dd8 <_svfprintf_r+0xb8>
   85542:	9c10      	ldr	r4, [sp, #64]	; 0x40
   85544:	1de3      	adds	r3, r4, #7
   85546:	f023 0307 	bic.w	r3, r3, #7
   8554a:	f103 0508 	add.w	r5, r3, #8
   8554e:	9510      	str	r5, [sp, #64]	; 0x40
   85550:	e9d3 4500 	ldrd	r4, r5, [r3]
   85554:	2300      	movs	r3, #0
   85556:	e54d      	b.n	84ff4 <_svfprintf_r+0x2d4>
   85558:	9d10      	ldr	r5, [sp, #64]	; 0x40
   8555a:	1deb      	adds	r3, r5, #7
   8555c:	f023 0307 	bic.w	r3, r3, #7
   85560:	f103 0c08 	add.w	ip, r3, #8
   85564:	e9d3 4500 	ldrd	r4, r5, [r3]
   85568:	f8cd c040 	str.w	ip, [sp, #64]	; 0x40
   8556c:	2301      	movs	r3, #1
   8556e:	e541      	b.n	84ff4 <_svfprintf_r+0x2d4>
   85570:	f88d 208f 	strb.w	r2, [sp, #143]	; 0x8f
   85574:	f1b8 0f00 	cmp.w	r8, #0
   85578:	f43f ace3 	beq.w	84f42 <_svfprintf_r+0x222>
   8557c:	2300      	movs	r3, #0
   8557e:	f04f 0c01 	mov.w	ip, #1
   85582:	469a      	mov	sl, r3
   85584:	f8cd c02c 	str.w	ip, [sp, #44]	; 0x2c
   85588:	f88d 80b8 	strb.w	r8, [sp, #184]	; 0xb8
   8558c:	f88d 308f 	strb.w	r3, [sp, #143]	; 0x8f
   85590:	930a      	str	r3, [sp, #40]	; 0x28
   85592:	9314      	str	r3, [sp, #80]	; 0x50
   85594:	4664      	mov	r4, ip
   85596:	af2e      	add	r7, sp, #184	; 0xb8
   85598:	e55f      	b.n	8505a <_svfprintf_r+0x33a>
   8559a:	f8dd c0b4 	ldr.w	ip, [sp, #180]	; 0xb4
   8559e:	e5b7      	b.n	85110 <_svfprintf_r+0x3f0>
   855a0:	2b01      	cmp	r3, #1
   855a2:	f000 80ec 	beq.w	8577e <_svfprintf_r+0xa5e>
   855a6:	2b02      	cmp	r3, #2
   855a8:	f10d 03df 	add.w	r3, sp, #223	; 0xdf
   855ac:	d118      	bne.n	855e0 <_svfprintf_r+0x8c0>
   855ae:	f8dd c068 	ldr.w	ip, [sp, #104]	; 0x68
   855b2:	4619      	mov	r1, r3
   855b4:	f004 000f 	and.w	r0, r4, #15
   855b8:	0922      	lsrs	r2, r4, #4
   855ba:	f81c 0000 	ldrb.w	r0, [ip, r0]
   855be:	ea42 7205 	orr.w	r2, r2, r5, lsl #28
   855c2:	092b      	lsrs	r3, r5, #4
   855c4:	7008      	strb	r0, [r1, #0]
   855c6:	ea52 0003 	orrs.w	r0, r2, r3
   855ca:	460f      	mov	r7, r1
   855cc:	4614      	mov	r4, r2
   855ce:	461d      	mov	r5, r3
   855d0:	f101 31ff 	add.w	r1, r1, #4294967295
   855d4:	d1ee      	bne.n	855b4 <_svfprintf_r+0x894>
   855d6:	9d08      	ldr	r5, [sp, #32]
   855d8:	e9cd 231e 	strd	r2, r3, [sp, #120]	; 0x78
   855dc:	1bec      	subs	r4, r5, r7
   855de:	e52d      	b.n	8503c <_svfprintf_r+0x31c>
   855e0:	08e0      	lsrs	r0, r4, #3
   855e2:	ea40 7045 	orr.w	r0, r0, r5, lsl #29
   855e6:	f004 0207 	and.w	r2, r4, #7
   855ea:	08e9      	lsrs	r1, r5, #3
   855ec:	3230      	adds	r2, #48	; 0x30
   855ee:	ea50 0c01 	orrs.w	ip, r0, r1
   855f2:	461f      	mov	r7, r3
   855f4:	701a      	strb	r2, [r3, #0]
   855f6:	4604      	mov	r4, r0
   855f8:	460d      	mov	r5, r1
   855fa:	f103 33ff 	add.w	r3, r3, #4294967295
   855fe:	d1ef      	bne.n	855e0 <_svfprintf_r+0x8c0>
   85600:	9c09      	ldr	r4, [sp, #36]	; 0x24
   85602:	e9cd 011c 	strd	r0, r1, [sp, #112]	; 0x70
   85606:	07e0      	lsls	r0, r4, #31
   85608:	4639      	mov	r1, r7
   8560a:	f140 80c1 	bpl.w	85790 <_svfprintf_r+0xa70>
   8560e:	2a30      	cmp	r2, #48	; 0x30
   85610:	f000 80be 	beq.w	85790 <_svfprintf_r+0xa70>
   85614:	9d08      	ldr	r5, [sp, #32]
   85616:	461f      	mov	r7, r3
   85618:	2330      	movs	r3, #48	; 0x30
   8561a:	1bec      	subs	r4, r5, r7
   8561c:	f801 3c01 	strb.w	r3, [r1, #-1]
   85620:	e50c      	b.n	8503c <_svfprintf_r+0x31c>
   85622:	bf00      	nop
   85624:	0008a9a8 	.word	0x0008a9a8
   85628:	0008a9bc 	.word	0x0008a9bc
   8562c:	0008a99c 	.word	0x0008a99c
   85630:	0008a998 	.word	0x0008a998
   85634:	f1b8 0f65 	cmp.w	r8, #101	; 0x65
   85638:	f340 80ad 	ble.w	85796 <_svfprintf_r+0xa76>
   8563c:	e9dd 0116 	ldrd	r0, r1, [sp, #88]	; 0x58
   85640:	2200      	movs	r2, #0
   85642:	2300      	movs	r3, #0
   85644:	f8cd c01c 	str.w	ip, [sp, #28]
   85648:	f7ff f8fe 	bl	84848 <__aeabi_dcmpeq>
   8564c:	f8dd c01c 	ldr.w	ip, [sp, #28]
   85650:	2800      	cmp	r0, #0
   85652:	f000 8126 	beq.w	858a2 <_svfprintf_r+0xb82>
   85656:	9b2c      	ldr	r3, [sp, #176]	; 0xb0
   85658:	49aa      	ldr	r1, [pc, #680]	; (85904 <_svfprintf_r+0xbe4>)
   8565a:	3301      	adds	r3, #1
   8565c:	f10c 0c01 	add.w	ip, ip, #1
   85660:	2201      	movs	r2, #1
   85662:	2b07      	cmp	r3, #7
   85664:	f8cd c0b4 	str.w	ip, [sp, #180]	; 0xb4
   85668:	932c      	str	r3, [sp, #176]	; 0xb0
   8566a:	e886 0006 	stmia.w	r6, {r1, r2}
   8566e:	f300 82ed 	bgt.w	85c4c <_svfprintf_r+0xf2c>
   85672:	3608      	adds	r6, #8
   85674:	9b25      	ldr	r3, [sp, #148]	; 0x94
   85676:	9c11      	ldr	r4, [sp, #68]	; 0x44
   85678:	42a3      	cmp	r3, r4
   8567a:	db03      	blt.n	85684 <_svfprintf_r+0x964>
   8567c:	9d09      	ldr	r5, [sp, #36]	; 0x24
   8567e:	07ec      	lsls	r4, r5, #31
   85680:	f57f adc0 	bpl.w	85204 <_svfprintf_r+0x4e4>
   85684:	9b2c      	ldr	r3, [sp, #176]	; 0xb0
   85686:	9c18      	ldr	r4, [sp, #96]	; 0x60
   85688:	3301      	adds	r3, #1
   8568a:	9d15      	ldr	r5, [sp, #84]	; 0x54
   8568c:	44a4      	add	ip, r4
   8568e:	2b07      	cmp	r3, #7
   85690:	f8cd c0b4 	str.w	ip, [sp, #180]	; 0xb4
   85694:	6035      	str	r5, [r6, #0]
   85696:	6074      	str	r4, [r6, #4]
   85698:	932c      	str	r3, [sp, #176]	; 0xb0
   8569a:	f300 833e 	bgt.w	85d1a <_svfprintf_r+0xffa>
   8569e:	3608      	adds	r6, #8
   856a0:	9d11      	ldr	r5, [sp, #68]	; 0x44
   856a2:	1e6c      	subs	r4, r5, #1
   856a4:	2c00      	cmp	r4, #0
   856a6:	f77f adad 	ble.w	85204 <_svfprintf_r+0x4e4>
   856aa:	2c10      	cmp	r4, #16
   856ac:	9b2c      	ldr	r3, [sp, #176]	; 0xb0
   856ae:	4d96      	ldr	r5, [pc, #600]	; (85908 <_svfprintf_r+0xbe8>)
   856b0:	f340 8197 	ble.w	859e2 <_svfprintf_r+0xcc2>
   856b4:	2710      	movs	r7, #16
   856b6:	4662      	mov	r2, ip
   856b8:	f8dd 8034 	ldr.w	r8, [sp, #52]	; 0x34
   856bc:	f8dd a030 	ldr.w	sl, [sp, #48]	; 0x30
   856c0:	e004      	b.n	856cc <_svfprintf_r+0x9ac>
   856c2:	3608      	adds	r6, #8
   856c4:	3c10      	subs	r4, #16
   856c6:	2c10      	cmp	r4, #16
   856c8:	f340 818a 	ble.w	859e0 <_svfprintf_r+0xcc0>
   856cc:	3301      	adds	r3, #1
   856ce:	3210      	adds	r2, #16
   856d0:	2b07      	cmp	r3, #7
   856d2:	922d      	str	r2, [sp, #180]	; 0xb4
   856d4:	932c      	str	r3, [sp, #176]	; 0xb0
   856d6:	e886 00a0 	stmia.w	r6, {r5, r7}
   856da:	ddf2      	ble.n	856c2 <_svfprintf_r+0x9a2>
   856dc:	4640      	mov	r0, r8
   856de:	4651      	mov	r1, sl
   856e0:	aa2b      	add	r2, sp, #172	; 0xac
   856e2:	f004 f9ed 	bl	89ac0 <__ssprint_r>
   856e6:	2800      	cmp	r0, #0
   856e8:	f47f ac32 	bne.w	84f50 <_svfprintf_r+0x230>
   856ec:	9a2d      	ldr	r2, [sp, #180]	; 0xb4
   856ee:	9b2c      	ldr	r3, [sp, #176]	; 0xb0
   856f0:	ae38      	add	r6, sp, #224	; 0xe0
   856f2:	e7e7      	b.n	856c4 <_svfprintf_r+0x9a4>
   856f4:	9d0f      	ldr	r5, [sp, #60]	; 0x3c
   856f6:	980b      	ldr	r0, [sp, #44]	; 0x2c
   856f8:	ebc0 0a05 	rsb	sl, r0, r5
   856fc:	f1ba 0f00 	cmp.w	sl, #0
   85700:	f77f ad2e 	ble.w	85160 <_svfprintf_r+0x440>
   85704:	f1ba 0f10 	cmp.w	sl, #16
   85708:	9b2c      	ldr	r3, [sp, #176]	; 0xb0
   8570a:	4d7f      	ldr	r5, [pc, #508]	; (85908 <_svfprintf_r+0xbe8>)
   8570c:	dd2b      	ble.n	85766 <_svfprintf_r+0xa46>
   8570e:	9412      	str	r4, [sp, #72]	; 0x48
   85710:	4632      	mov	r2, r6
   85712:	f04f 0b10 	mov.w	fp, #16
   85716:	462e      	mov	r6, r5
   85718:	4661      	mov	r1, ip
   8571a:	9c0d      	ldr	r4, [sp, #52]	; 0x34
   8571c:	9d0c      	ldr	r5, [sp, #48]	; 0x30
   8571e:	e006      	b.n	8572e <_svfprintf_r+0xa0e>
   85720:	f1aa 0a10 	sub.w	sl, sl, #16
   85724:	f1ba 0f10 	cmp.w	sl, #16
   85728:	f102 0208 	add.w	r2, r2, #8
   8572c:	dd17      	ble.n	8575e <_svfprintf_r+0xa3e>
   8572e:	3301      	adds	r3, #1
   85730:	3110      	adds	r1, #16
   85732:	2b07      	cmp	r3, #7
   85734:	912d      	str	r1, [sp, #180]	; 0xb4
   85736:	932c      	str	r3, [sp, #176]	; 0xb0
   85738:	e882 0840 	stmia.w	r2, {r6, fp}
   8573c:	ddf0      	ble.n	85720 <_svfprintf_r+0xa00>
   8573e:	4620      	mov	r0, r4
   85740:	4629      	mov	r1, r5
   85742:	aa2b      	add	r2, sp, #172	; 0xac
   85744:	f004 f9bc 	bl	89ac0 <__ssprint_r>
   85748:	2800      	cmp	r0, #0
   8574a:	f47f ac01 	bne.w	84f50 <_svfprintf_r+0x230>
   8574e:	f1aa 0a10 	sub.w	sl, sl, #16
   85752:	f1ba 0f10 	cmp.w	sl, #16
   85756:	992d      	ldr	r1, [sp, #180]	; 0xb4
   85758:	9b2c      	ldr	r3, [sp, #176]	; 0xb0
   8575a:	aa38      	add	r2, sp, #224	; 0xe0
   8575c:	dce7      	bgt.n	8572e <_svfprintf_r+0xa0e>
   8575e:	9c12      	ldr	r4, [sp, #72]	; 0x48
   85760:	4635      	mov	r5, r6
   85762:	468c      	mov	ip, r1
   85764:	4616      	mov	r6, r2
   85766:	3301      	adds	r3, #1
   85768:	44d4      	add	ip, sl
   8576a:	2b07      	cmp	r3, #7
   8576c:	f8cd c0b4 	str.w	ip, [sp, #180]	; 0xb4
   85770:	932c      	str	r3, [sp, #176]	; 0xb0
   85772:	e886 0420 	stmia.w	r6, {r5, sl}
   85776:	f300 820f 	bgt.w	85b98 <_svfprintf_r+0xe78>
   8577a:	3608      	adds	r6, #8
   8577c:	e4f0      	b.n	85160 <_svfprintf_r+0x440>
   8577e:	2d00      	cmp	r5, #0
   85780:	bf08      	it	eq
   85782:	2c0a      	cmpeq	r4, #10
   85784:	f080 8138 	bcs.w	859f8 <_svfprintf_r+0xcd8>
   85788:	3430      	adds	r4, #48	; 0x30
   8578a:	af48      	add	r7, sp, #288	; 0x120
   8578c:	f807 4d41 	strb.w	r4, [r7, #-65]!
   85790:	9d08      	ldr	r5, [sp, #32]
   85792:	1bec      	subs	r4, r5, r7
   85794:	e452      	b.n	8503c <_svfprintf_r+0x31c>
   85796:	9c11      	ldr	r4, [sp, #68]	; 0x44
   85798:	2c01      	cmp	r4, #1
   8579a:	9c2c      	ldr	r4, [sp, #176]	; 0xb0
   8579c:	f340 81d2 	ble.w	85b44 <_svfprintf_r+0xe24>
   857a0:	3401      	adds	r4, #1
   857a2:	f10c 0301 	add.w	r3, ip, #1
   857a6:	2201      	movs	r2, #1
   857a8:	2c07      	cmp	r4, #7
   857aa:	932d      	str	r3, [sp, #180]	; 0xb4
   857ac:	6037      	str	r7, [r6, #0]
   857ae:	942c      	str	r4, [sp, #176]	; 0xb0
   857b0:	6072      	str	r2, [r6, #4]
   857b2:	f300 81d8 	bgt.w	85b66 <_svfprintf_r+0xe46>
   857b6:	3608      	adds	r6, #8
   857b8:	9d15      	ldr	r5, [sp, #84]	; 0x54
   857ba:	f8dd 8060 	ldr.w	r8, [sp, #96]	; 0x60
   857be:	3401      	adds	r4, #1
   857c0:	6035      	str	r5, [r6, #0]
   857c2:	9d18      	ldr	r5, [sp, #96]	; 0x60
   857c4:	4498      	add	r8, r3
   857c6:	2c07      	cmp	r4, #7
   857c8:	f8cd 80b4 	str.w	r8, [sp, #180]	; 0xb4
   857cc:	942c      	str	r4, [sp, #176]	; 0xb0
   857ce:	6075      	str	r5, [r6, #4]
   857d0:	f300 81d5 	bgt.w	85b7e <_svfprintf_r+0xe5e>
   857d4:	3608      	adds	r6, #8
   857d6:	e9dd 0116 	ldrd	r0, r1, [sp, #88]	; 0x58
   857da:	2200      	movs	r2, #0
   857dc:	2300      	movs	r3, #0
   857de:	f7ff f833 	bl	84848 <__aeabi_dcmpeq>
   857e2:	9d11      	ldr	r5, [sp, #68]	; 0x44
   857e4:	2800      	cmp	r0, #0
   857e6:	f040 80b9 	bne.w	8595c <_svfprintf_r+0xc3c>
   857ea:	1e6b      	subs	r3, r5, #1
   857ec:	3401      	adds	r4, #1
   857ee:	3701      	adds	r7, #1
   857f0:	4498      	add	r8, r3
   857f2:	2c07      	cmp	r4, #7
   857f4:	942c      	str	r4, [sp, #176]	; 0xb0
   857f6:	f8cd 80b4 	str.w	r8, [sp, #180]	; 0xb4
   857fa:	6037      	str	r7, [r6, #0]
   857fc:	6073      	str	r3, [r6, #4]
   857fe:	f300 80e2 	bgt.w	859c6 <_svfprintf_r+0xca6>
   85802:	3608      	adds	r6, #8
   85804:	f8dd c064 	ldr.w	ip, [sp, #100]	; 0x64
   85808:	3401      	adds	r4, #1
   8580a:	9d19      	ldr	r5, [sp, #100]	; 0x64
   8580c:	44c4      	add	ip, r8
   8580e:	ab27      	add	r3, sp, #156	; 0x9c
   85810:	2c07      	cmp	r4, #7
   85812:	f8cd c0b4 	str.w	ip, [sp, #180]	; 0xb4
   85816:	942c      	str	r4, [sp, #176]	; 0xb0
   85818:	e886 0028 	stmia.w	r6, {r3, r5}
   8581c:	f77f acf1 	ble.w	85202 <_svfprintf_r+0x4e2>
   85820:	980d      	ldr	r0, [sp, #52]	; 0x34
   85822:	990c      	ldr	r1, [sp, #48]	; 0x30
   85824:	aa2b      	add	r2, sp, #172	; 0xac
   85826:	f004 f94b 	bl	89ac0 <__ssprint_r>
   8582a:	2800      	cmp	r0, #0
   8582c:	f47f ab90 	bne.w	84f50 <_svfprintf_r+0x230>
   85830:	f8dd c0b4 	ldr.w	ip, [sp, #180]	; 0xb4
   85834:	ae38      	add	r6, sp, #224	; 0xe0
   85836:	e4e5      	b.n	85204 <_svfprintf_r+0x4e4>
   85838:	980d      	ldr	r0, [sp, #52]	; 0x34
   8583a:	990c      	ldr	r1, [sp, #48]	; 0x30
   8583c:	aa2b      	add	r2, sp, #172	; 0xac
   8583e:	f004 f93f 	bl	89ac0 <__ssprint_r>
   85842:	2800      	cmp	r0, #0
   85844:	f43f ad37 	beq.w	852b6 <_svfprintf_r+0x596>
   85848:	f7ff bb82 	b.w	84f50 <_svfprintf_r+0x230>
   8584c:	980d      	ldr	r0, [sp, #52]	; 0x34
   8584e:	990c      	ldr	r1, [sp, #48]	; 0x30
   85850:	aa2b      	add	r2, sp, #172	; 0xac
   85852:	f004 f935 	bl	89ac0 <__ssprint_r>
   85856:	2800      	cmp	r0, #0
   85858:	f47f ab7a 	bne.w	84f50 <_svfprintf_r+0x230>
   8585c:	f8dd c0b4 	ldr.w	ip, [sp, #180]	; 0xb4
   85860:	ae38      	add	r6, sp, #224	; 0xe0
   85862:	e4bf      	b.n	851e4 <_svfprintf_r+0x4c4>
   85864:	980d      	ldr	r0, [sp, #52]	; 0x34
   85866:	990c      	ldr	r1, [sp, #48]	; 0x30
   85868:	aa2b      	add	r2, sp, #172	; 0xac
   8586a:	f004 f929 	bl	89ac0 <__ssprint_r>
   8586e:	2800      	cmp	r0, #0
   85870:	f47f ab6e 	bne.w	84f50 <_svfprintf_r+0x230>
   85874:	f8dd c0b4 	ldr.w	ip, [sp, #180]	; 0xb4
   85878:	ae38      	add	r6, sp, #224	; 0xe0
   8587a:	e46d      	b.n	85158 <_svfprintf_r+0x438>
   8587c:	980d      	ldr	r0, [sp, #52]	; 0x34
   8587e:	990c      	ldr	r1, [sp, #48]	; 0x30
   85880:	aa2b      	add	r2, sp, #172	; 0xac
   85882:	f004 f91d 	bl	89ac0 <__ssprint_r>
   85886:	2800      	cmp	r0, #0
   85888:	f47f ab62 	bne.w	84f50 <_svfprintf_r+0x230>
   8588c:	f8dd c0b4 	ldr.w	ip, [sp, #180]	; 0xb4
   85890:	ae38      	add	r6, sp, #224	; 0xe0
   85892:	e450      	b.n	85136 <_svfprintf_r+0x416>
   85894:	9c0a      	ldr	r4, [sp, #40]	; 0x28
   85896:	af38      	add	r7, sp, #224	; 0xe0
   85898:	f7ff bbd0 	b.w	8503c <_svfprintf_r+0x31c>
   8589c:	2302      	movs	r3, #2
   8589e:	f7ff bba9 	b.w	84ff4 <_svfprintf_r+0x2d4>
   858a2:	9b25      	ldr	r3, [sp, #148]	; 0x94
   858a4:	2b00      	cmp	r3, #0
   858a6:	f340 81dd 	ble.w	85c64 <_svfprintf_r+0xf44>
   858aa:	9c11      	ldr	r4, [sp, #68]	; 0x44
   858ac:	9d14      	ldr	r5, [sp, #80]	; 0x50
   858ae:	f8dd a044 	ldr.w	sl, [sp, #68]	; 0x44
   858b2:	42ac      	cmp	r4, r5
   858b4:	bfa8      	it	ge
   858b6:	462c      	movge	r4, r5
   858b8:	2c00      	cmp	r4, #0
   858ba:	44ba      	add	sl, r7
   858bc:	dd0b      	ble.n	858d6 <_svfprintf_r+0xbb6>
   858be:	9b2c      	ldr	r3, [sp, #176]	; 0xb0
   858c0:	44a4      	add	ip, r4
   858c2:	3301      	adds	r3, #1
   858c4:	2b07      	cmp	r3, #7
   858c6:	f8cd c0b4 	str.w	ip, [sp, #180]	; 0xb4
   858ca:	6037      	str	r7, [r6, #0]
   858cc:	6074      	str	r4, [r6, #4]
   858ce:	932c      	str	r3, [sp, #176]	; 0xb0
   858d0:	f300 831e 	bgt.w	85f10 <_svfprintf_r+0x11f0>
   858d4:	3608      	adds	r6, #8
   858d6:	9d14      	ldr	r5, [sp, #80]	; 0x50
   858d8:	ea24 74e4 	bic.w	r4, r4, r4, asr #31
   858dc:	1b2c      	subs	r4, r5, r4
   858de:	2c00      	cmp	r4, #0
   858e0:	f340 80d7 	ble.w	85a92 <_svfprintf_r+0xd72>
   858e4:	2c10      	cmp	r4, #16
   858e6:	9b2c      	ldr	r3, [sp, #176]	; 0xb0
   858e8:	4d07      	ldr	r5, [pc, #28]	; (85908 <_svfprintf_r+0xbe8>)
   858ea:	f340 81a3 	ble.w	85c34 <_svfprintf_r+0xf14>
   858ee:	970a      	str	r7, [sp, #40]	; 0x28
   858f0:	f04f 0810 	mov.w	r8, #16
   858f4:	462f      	mov	r7, r5
   858f6:	4662      	mov	r2, ip
   858f8:	4625      	mov	r5, r4
   858fa:	f8dd b034 	ldr.w	fp, [sp, #52]	; 0x34
   858fe:	9c0c      	ldr	r4, [sp, #48]	; 0x30
   85900:	e009      	b.n	85916 <_svfprintf_r+0xbf6>
   85902:	bf00      	nop
   85904:	0008a570 	.word	0x0008a570
   85908:	0008a988 	.word	0x0008a988
   8590c:	3608      	adds	r6, #8
   8590e:	3d10      	subs	r5, #16
   85910:	2d10      	cmp	r5, #16
   85912:	f340 818b 	ble.w	85c2c <_svfprintf_r+0xf0c>
   85916:	3301      	adds	r3, #1
   85918:	3210      	adds	r2, #16
   8591a:	2b07      	cmp	r3, #7
   8591c:	922d      	str	r2, [sp, #180]	; 0xb4
   8591e:	932c      	str	r3, [sp, #176]	; 0xb0
   85920:	e886 0180 	stmia.w	r6, {r7, r8}
   85924:	ddf2      	ble.n	8590c <_svfprintf_r+0xbec>
   85926:	4658      	mov	r0, fp
   85928:	4621      	mov	r1, r4
   8592a:	aa2b      	add	r2, sp, #172	; 0xac
   8592c:	f004 f8c8 	bl	89ac0 <__ssprint_r>
   85930:	2800      	cmp	r0, #0
   85932:	f47f ab0d 	bne.w	84f50 <_svfprintf_r+0x230>
   85936:	9a2d      	ldr	r2, [sp, #180]	; 0xb4
   85938:	9b2c      	ldr	r3, [sp, #176]	; 0xb0
   8593a:	ae38      	add	r6, sp, #224	; 0xe0
   8593c:	e7e7      	b.n	8590e <_svfprintf_r+0xbee>
   8593e:	980d      	ldr	r0, [sp, #52]	; 0x34
   85940:	990c      	ldr	r1, [sp, #48]	; 0x30
   85942:	aa2b      	add	r2, sp, #172	; 0xac
   85944:	f004 f8bc 	bl	89ac0 <__ssprint_r>
   85948:	2800      	cmp	r0, #0
   8594a:	f47f ab01 	bne.w	84f50 <_svfprintf_r+0x230>
   8594e:	f89d a08f 	ldrb.w	sl, [sp, #143]	; 0x8f
   85952:	f8dd c0b4 	ldr.w	ip, [sp, #180]	; 0xb4
   85956:	ae38      	add	r6, sp, #224	; 0xe0
   85958:	f7ff bbda 	b.w	85110 <_svfprintf_r+0x3f0>
   8595c:	1e6f      	subs	r7, r5, #1
   8595e:	2f00      	cmp	r7, #0
   85960:	f77f af50 	ble.w	85804 <_svfprintf_r+0xae4>
   85964:	2f10      	cmp	r7, #16
   85966:	4dae      	ldr	r5, [pc, #696]	; (85c20 <_svfprintf_r+0xf00>)
   85968:	dd23      	ble.n	859b2 <_svfprintf_r+0xc92>
   8596a:	4643      	mov	r3, r8
   8596c:	f04f 0a10 	mov.w	sl, #16
   85970:	f8dd 8034 	ldr.w	r8, [sp, #52]	; 0x34
   85974:	f8dd b030 	ldr.w	fp, [sp, #48]	; 0x30
   85978:	e004      	b.n	85984 <_svfprintf_r+0xc64>
   8597a:	3f10      	subs	r7, #16
   8597c:	2f10      	cmp	r7, #16
   8597e:	f106 0608 	add.w	r6, r6, #8
   85982:	dd15      	ble.n	859b0 <_svfprintf_r+0xc90>
   85984:	3401      	adds	r4, #1
   85986:	3310      	adds	r3, #16
   85988:	2c07      	cmp	r4, #7
   8598a:	932d      	str	r3, [sp, #180]	; 0xb4
   8598c:	942c      	str	r4, [sp, #176]	; 0xb0
   8598e:	e886 0420 	stmia.w	r6, {r5, sl}
   85992:	ddf2      	ble.n	8597a <_svfprintf_r+0xc5a>
   85994:	4640      	mov	r0, r8
   85996:	4659      	mov	r1, fp
   85998:	aa2b      	add	r2, sp, #172	; 0xac
   8599a:	f004 f891 	bl	89ac0 <__ssprint_r>
   8599e:	2800      	cmp	r0, #0
   859a0:	f47f aad6 	bne.w	84f50 <_svfprintf_r+0x230>
   859a4:	3f10      	subs	r7, #16
   859a6:	2f10      	cmp	r7, #16
   859a8:	9b2d      	ldr	r3, [sp, #180]	; 0xb4
   859aa:	9c2c      	ldr	r4, [sp, #176]	; 0xb0
   859ac:	ae38      	add	r6, sp, #224	; 0xe0
   859ae:	dce9      	bgt.n	85984 <_svfprintf_r+0xc64>
   859b0:	4698      	mov	r8, r3
   859b2:	3401      	adds	r4, #1
   859b4:	44b8      	add	r8, r7
   859b6:	2c07      	cmp	r4, #7
   859b8:	f8cd 80b4 	str.w	r8, [sp, #180]	; 0xb4
   859bc:	942c      	str	r4, [sp, #176]	; 0xb0
   859be:	e886 00a0 	stmia.w	r6, {r5, r7}
   859c2:	f77f af1e 	ble.w	85802 <_svfprintf_r+0xae2>
   859c6:	980d      	ldr	r0, [sp, #52]	; 0x34
   859c8:	990c      	ldr	r1, [sp, #48]	; 0x30
   859ca:	aa2b      	add	r2, sp, #172	; 0xac
   859cc:	f004 f878 	bl	89ac0 <__ssprint_r>
   859d0:	2800      	cmp	r0, #0
   859d2:	f47f aabd 	bne.w	84f50 <_svfprintf_r+0x230>
   859d6:	f8dd 80b4 	ldr.w	r8, [sp, #180]	; 0xb4
   859da:	9c2c      	ldr	r4, [sp, #176]	; 0xb0
   859dc:	ae38      	add	r6, sp, #224	; 0xe0
   859de:	e711      	b.n	85804 <_svfprintf_r+0xae4>
   859e0:	4694      	mov	ip, r2
   859e2:	3301      	adds	r3, #1
   859e4:	44a4      	add	ip, r4
   859e6:	2b07      	cmp	r3, #7
   859e8:	f8cd c0b4 	str.w	ip, [sp, #180]	; 0xb4
   859ec:	932c      	str	r3, [sp, #176]	; 0xb0
   859ee:	6035      	str	r5, [r6, #0]
   859f0:	6074      	str	r4, [r6, #4]
   859f2:	f77f ac06 	ble.w	85202 <_svfprintf_r+0x4e2>
   859f6:	e713      	b.n	85820 <_svfprintf_r+0xb00>
   859f8:	f10d 0bdf 	add.w	fp, sp, #223	; 0xdf
   859fc:	4620      	mov	r0, r4
   859fe:	4629      	mov	r1, r5
   85a00:	220a      	movs	r2, #10
   85a02:	2300      	movs	r3, #0
   85a04:	f004 faa6 	bl	89f54 <__aeabi_uldivmod>
   85a08:	3230      	adds	r2, #48	; 0x30
   85a0a:	f88b 2000 	strb.w	r2, [fp]
   85a0e:	4620      	mov	r0, r4
   85a10:	4629      	mov	r1, r5
   85a12:	220a      	movs	r2, #10
   85a14:	2300      	movs	r3, #0
   85a16:	f004 fa9d 	bl	89f54 <__aeabi_uldivmod>
   85a1a:	4604      	mov	r4, r0
   85a1c:	460d      	mov	r5, r1
   85a1e:	ea54 0c05 	orrs.w	ip, r4, r5
   85a22:	465f      	mov	r7, fp
   85a24:	f10b 3bff 	add.w	fp, fp, #4294967295
   85a28:	d1e8      	bne.n	859fc <_svfprintf_r+0xcdc>
   85a2a:	9d08      	ldr	r5, [sp, #32]
   85a2c:	1bec      	subs	r4, r5, r7
   85a2e:	f7ff bb05 	b.w	8503c <_svfprintf_r+0x31c>
   85a32:	9d10      	ldr	r5, [sp, #64]	; 0x40
   85a34:	2301      	movs	r3, #1
   85a36:	682c      	ldr	r4, [r5, #0]
   85a38:	3504      	adds	r5, #4
   85a3a:	9510      	str	r5, [sp, #64]	; 0x40
   85a3c:	2500      	movs	r5, #0
   85a3e:	f7ff bad9 	b.w	84ff4 <_svfprintf_r+0x2d4>
   85a42:	9d10      	ldr	r5, [sp, #64]	; 0x40
   85a44:	682c      	ldr	r4, [r5, #0]
   85a46:	3504      	adds	r5, #4
   85a48:	9510      	str	r5, [sp, #64]	; 0x40
   85a4a:	2500      	movs	r5, #0
   85a4c:	f7ff bad2 	b.w	84ff4 <_svfprintf_r+0x2d4>
   85a50:	9d10      	ldr	r5, [sp, #64]	; 0x40
   85a52:	682c      	ldr	r4, [r5, #0]
   85a54:	3504      	adds	r5, #4
   85a56:	9510      	str	r5, [sp, #64]	; 0x40
   85a58:	17e5      	asrs	r5, r4, #31
   85a5a:	4622      	mov	r2, r4
   85a5c:	462b      	mov	r3, r5
   85a5e:	2a00      	cmp	r2, #0
   85a60:	f173 0c00 	sbcs.w	ip, r3, #0
   85a64:	f6bf ac6c 	bge.w	85340 <_svfprintf_r+0x620>
   85a68:	f04f 0a2d 	mov.w	sl, #45	; 0x2d
   85a6c:	4264      	negs	r4, r4
   85a6e:	eb65 0545 	sbc.w	r5, r5, r5, lsl #1
   85a72:	f88d a08f 	strb.w	sl, [sp, #143]	; 0x8f
   85a76:	2301      	movs	r3, #1
   85a78:	f7ff bac0 	b.w	84ffc <_svfprintf_r+0x2dc>
   85a7c:	980d      	ldr	r0, [sp, #52]	; 0x34
   85a7e:	990c      	ldr	r1, [sp, #48]	; 0x30
   85a80:	aa2b      	add	r2, sp, #172	; 0xac
   85a82:	f004 f81d 	bl	89ac0 <__ssprint_r>
   85a86:	2800      	cmp	r0, #0
   85a88:	f47f aa62 	bne.w	84f50 <_svfprintf_r+0x230>
   85a8c:	f8dd c0b4 	ldr.w	ip, [sp, #180]	; 0xb4
   85a90:	ae38      	add	r6, sp, #224	; 0xe0
   85a92:	9d14      	ldr	r5, [sp, #80]	; 0x50
   85a94:	9c25      	ldr	r4, [sp, #148]	; 0x94
   85a96:	442f      	add	r7, r5
   85a98:	9d11      	ldr	r5, [sp, #68]	; 0x44
   85a9a:	42ac      	cmp	r4, r5
   85a9c:	db42      	blt.n	85b24 <_svfprintf_r+0xe04>
   85a9e:	9d09      	ldr	r5, [sp, #36]	; 0x24
   85aa0:	07e9      	lsls	r1, r5, #31
   85aa2:	d43f      	bmi.n	85b24 <_svfprintf_r+0xe04>
   85aa4:	9811      	ldr	r0, [sp, #68]	; 0x44
   85aa6:	ebc7 050a 	rsb	r5, r7, sl
   85aaa:	1b04      	subs	r4, r0, r4
   85aac:	42ac      	cmp	r4, r5
   85aae:	bfb8      	it	lt
   85ab0:	4625      	movlt	r5, r4
   85ab2:	2d00      	cmp	r5, #0
   85ab4:	dd0b      	ble.n	85ace <_svfprintf_r+0xdae>
   85ab6:	9b2c      	ldr	r3, [sp, #176]	; 0xb0
   85ab8:	44ac      	add	ip, r5
   85aba:	3301      	adds	r3, #1
   85abc:	2b07      	cmp	r3, #7
   85abe:	f8cd c0b4 	str.w	ip, [sp, #180]	; 0xb4
   85ac2:	6037      	str	r7, [r6, #0]
   85ac4:	6075      	str	r5, [r6, #4]
   85ac6:	932c      	str	r3, [sp, #176]	; 0xb0
   85ac8:	f300 824c 	bgt.w	85f64 <_svfprintf_r+0x1244>
   85acc:	3608      	adds	r6, #8
   85ace:	ea25 75e5 	bic.w	r5, r5, r5, asr #31
   85ad2:	1b64      	subs	r4, r4, r5
   85ad4:	2c00      	cmp	r4, #0
   85ad6:	f77f ab95 	ble.w	85204 <_svfprintf_r+0x4e4>
   85ada:	2c10      	cmp	r4, #16
   85adc:	9b2c      	ldr	r3, [sp, #176]	; 0xb0
   85ade:	4d50      	ldr	r5, [pc, #320]	; (85c20 <_svfprintf_r+0xf00>)
   85ae0:	f77f af7f 	ble.w	859e2 <_svfprintf_r+0xcc2>
   85ae4:	2710      	movs	r7, #16
   85ae6:	4662      	mov	r2, ip
   85ae8:	f8dd 8034 	ldr.w	r8, [sp, #52]	; 0x34
   85aec:	f8dd a030 	ldr.w	sl, [sp, #48]	; 0x30
   85af0:	e004      	b.n	85afc <_svfprintf_r+0xddc>
   85af2:	3608      	adds	r6, #8
   85af4:	3c10      	subs	r4, #16
   85af6:	2c10      	cmp	r4, #16
   85af8:	f77f af72 	ble.w	859e0 <_svfprintf_r+0xcc0>
   85afc:	3301      	adds	r3, #1
   85afe:	3210      	adds	r2, #16
   85b00:	2b07      	cmp	r3, #7
   85b02:	922d      	str	r2, [sp, #180]	; 0xb4
   85b04:	932c      	str	r3, [sp, #176]	; 0xb0
   85b06:	e886 00a0 	stmia.w	r6, {r5, r7}
   85b0a:	ddf2      	ble.n	85af2 <_svfprintf_r+0xdd2>
   85b0c:	4640      	mov	r0, r8
   85b0e:	4651      	mov	r1, sl
   85b10:	aa2b      	add	r2, sp, #172	; 0xac
   85b12:	f003 ffd5 	bl	89ac0 <__ssprint_r>
   85b16:	2800      	cmp	r0, #0
   85b18:	f47f aa1a 	bne.w	84f50 <_svfprintf_r+0x230>
   85b1c:	9a2d      	ldr	r2, [sp, #180]	; 0xb4
   85b1e:	9b2c      	ldr	r3, [sp, #176]	; 0xb0
   85b20:	ae38      	add	r6, sp, #224	; 0xe0
   85b22:	e7e7      	b.n	85af4 <_svfprintf_r+0xdd4>
   85b24:	9d18      	ldr	r5, [sp, #96]	; 0x60
   85b26:	9b2c      	ldr	r3, [sp, #176]	; 0xb0
   85b28:	44ac      	add	ip, r5
   85b2a:	9d15      	ldr	r5, [sp, #84]	; 0x54
   85b2c:	3301      	adds	r3, #1
   85b2e:	6035      	str	r5, [r6, #0]
   85b30:	9d18      	ldr	r5, [sp, #96]	; 0x60
   85b32:	2b07      	cmp	r3, #7
   85b34:	f8cd c0b4 	str.w	ip, [sp, #180]	; 0xb4
   85b38:	6075      	str	r5, [r6, #4]
   85b3a:	932c      	str	r3, [sp, #176]	; 0xb0
   85b3c:	f300 81f4 	bgt.w	85f28 <_svfprintf_r+0x1208>
   85b40:	3608      	adds	r6, #8
   85b42:	e7af      	b.n	85aa4 <_svfprintf_r+0xd84>
   85b44:	9d09      	ldr	r5, [sp, #36]	; 0x24
   85b46:	07ea      	lsls	r2, r5, #31
   85b48:	f53f ae2a 	bmi.w	857a0 <_svfprintf_r+0xa80>
   85b4c:	3401      	adds	r4, #1
   85b4e:	f10c 0801 	add.w	r8, ip, #1
   85b52:	2301      	movs	r3, #1
   85b54:	2c07      	cmp	r4, #7
   85b56:	f8cd 80b4 	str.w	r8, [sp, #180]	; 0xb4
   85b5a:	942c      	str	r4, [sp, #176]	; 0xb0
   85b5c:	6037      	str	r7, [r6, #0]
   85b5e:	6073      	str	r3, [r6, #4]
   85b60:	f77f ae4f 	ble.w	85802 <_svfprintf_r+0xae2>
   85b64:	e72f      	b.n	859c6 <_svfprintf_r+0xca6>
   85b66:	980d      	ldr	r0, [sp, #52]	; 0x34
   85b68:	990c      	ldr	r1, [sp, #48]	; 0x30
   85b6a:	aa2b      	add	r2, sp, #172	; 0xac
   85b6c:	f003 ffa8 	bl	89ac0 <__ssprint_r>
   85b70:	2800      	cmp	r0, #0
   85b72:	f47f a9ed 	bne.w	84f50 <_svfprintf_r+0x230>
   85b76:	9b2d      	ldr	r3, [sp, #180]	; 0xb4
   85b78:	9c2c      	ldr	r4, [sp, #176]	; 0xb0
   85b7a:	ae38      	add	r6, sp, #224	; 0xe0
   85b7c:	e61c      	b.n	857b8 <_svfprintf_r+0xa98>
   85b7e:	980d      	ldr	r0, [sp, #52]	; 0x34
   85b80:	990c      	ldr	r1, [sp, #48]	; 0x30
   85b82:	aa2b      	add	r2, sp, #172	; 0xac
   85b84:	f003 ff9c 	bl	89ac0 <__ssprint_r>
   85b88:	2800      	cmp	r0, #0
   85b8a:	f47f a9e1 	bne.w	84f50 <_svfprintf_r+0x230>
   85b8e:	f8dd 80b4 	ldr.w	r8, [sp, #180]	; 0xb4
   85b92:	9c2c      	ldr	r4, [sp, #176]	; 0xb0
   85b94:	ae38      	add	r6, sp, #224	; 0xe0
   85b96:	e61e      	b.n	857d6 <_svfprintf_r+0xab6>
   85b98:	980d      	ldr	r0, [sp, #52]	; 0x34
   85b9a:	990c      	ldr	r1, [sp, #48]	; 0x30
   85b9c:	aa2b      	add	r2, sp, #172	; 0xac
   85b9e:	f003 ff8f 	bl	89ac0 <__ssprint_r>
   85ba2:	2800      	cmp	r0, #0
   85ba4:	f47f a9d4 	bne.w	84f50 <_svfprintf_r+0x230>
   85ba8:	f8dd c0b4 	ldr.w	ip, [sp, #180]	; 0xb4
   85bac:	ae38      	add	r6, sp, #224	; 0xe0
   85bae:	f7ff bad7 	b.w	85160 <_svfprintf_r+0x440>
   85bb2:	f7fe f9f9 	bl	83fa8 <__fpclassifyd>
   85bb6:	2800      	cmp	r0, #0
   85bb8:	f040 80bb 	bne.w	85d32 <_svfprintf_r+0x1012>
   85bbc:	9c09      	ldr	r4, [sp, #36]	; 0x24
   85bbe:	4f19      	ldr	r7, [pc, #100]	; (85c24 <_svfprintf_r+0xf04>)
   85bc0:	4b19      	ldr	r3, [pc, #100]	; (85c28 <_svfprintf_r+0xf08>)
   85bc2:	f04f 0c03 	mov.w	ip, #3
   85bc6:	f024 0480 	bic.w	r4, r4, #128	; 0x80
   85bca:	9409      	str	r4, [sp, #36]	; 0x24
   85bcc:	900a      	str	r0, [sp, #40]	; 0x28
   85bce:	f8cd c02c 	str.w	ip, [sp, #44]	; 0x2c
   85bd2:	9014      	str	r0, [sp, #80]	; 0x50
   85bd4:	f1b8 0f47 	cmp.w	r8, #71	; 0x47
   85bd8:	bfd8      	it	le
   85bda:	461f      	movle	r7, r3
   85bdc:	4664      	mov	r4, ip
   85bde:	f89d a08f 	ldrb.w	sl, [sp, #143]	; 0x8f
   85be2:	f7ff ba34 	b.w	8504e <_svfprintf_r+0x32e>
   85be6:	9c09      	ldr	r4, [sp, #36]	; 0x24
   85be8:	0664      	lsls	r4, r4, #25
   85bea:	f140 8150 	bpl.w	85e8e <_svfprintf_r+0x116e>
   85bee:	f8dd c040 	ldr.w	ip, [sp, #64]	; 0x40
   85bf2:	2500      	movs	r5, #0
   85bf4:	f8bc 4000 	ldrh.w	r4, [ip]
   85bf8:	f10c 0c04 	add.w	ip, ip, #4
   85bfc:	f8cd c040 	str.w	ip, [sp, #64]	; 0x40
   85c00:	f7ff b9e4 	b.w	84fcc <_svfprintf_r+0x2ac>
   85c04:	f8dd c024 	ldr.w	ip, [sp, #36]	; 0x24
   85c08:	f01c 0f10 	tst.w	ip, #16
   85c0c:	f000 8146 	beq.w	85e9c <_svfprintf_r+0x117c>
   85c10:	9c10      	ldr	r4, [sp, #64]	; 0x40
   85c12:	9d0e      	ldr	r5, [sp, #56]	; 0x38
   85c14:	6823      	ldr	r3, [r4, #0]
   85c16:	3404      	adds	r4, #4
   85c18:	9410      	str	r4, [sp, #64]	; 0x40
   85c1a:	601d      	str	r5, [r3, #0]
   85c1c:	f7ff b8a6 	b.w	84d6c <_svfprintf_r+0x4c>
   85c20:	0008a988 	.word	0x0008a988
   85c24:	0008a9a4 	.word	0x0008a9a4
   85c28:	0008a9a0 	.word	0x0008a9a0
   85c2c:	462c      	mov	r4, r5
   85c2e:	463d      	mov	r5, r7
   85c30:	9f0a      	ldr	r7, [sp, #40]	; 0x28
   85c32:	4694      	mov	ip, r2
   85c34:	3301      	adds	r3, #1
   85c36:	44a4      	add	ip, r4
   85c38:	2b07      	cmp	r3, #7
   85c3a:	f8cd c0b4 	str.w	ip, [sp, #180]	; 0xb4
   85c3e:	932c      	str	r3, [sp, #176]	; 0xb0
   85c40:	6035      	str	r5, [r6, #0]
   85c42:	6074      	str	r4, [r6, #4]
   85c44:	f73f af1a 	bgt.w	85a7c <_svfprintf_r+0xd5c>
   85c48:	3608      	adds	r6, #8
   85c4a:	e722      	b.n	85a92 <_svfprintf_r+0xd72>
   85c4c:	980d      	ldr	r0, [sp, #52]	; 0x34
   85c4e:	990c      	ldr	r1, [sp, #48]	; 0x30
   85c50:	aa2b      	add	r2, sp, #172	; 0xac
   85c52:	f003 ff35 	bl	89ac0 <__ssprint_r>
   85c56:	2800      	cmp	r0, #0
   85c58:	f47f a97a 	bne.w	84f50 <_svfprintf_r+0x230>
   85c5c:	f8dd c0b4 	ldr.w	ip, [sp, #180]	; 0xb4
   85c60:	ae38      	add	r6, sp, #224	; 0xe0
   85c62:	e507      	b.n	85674 <_svfprintf_r+0x954>
   85c64:	9a2c      	ldr	r2, [sp, #176]	; 0xb0
   85c66:	49b7      	ldr	r1, [pc, #732]	; (85f44 <_svfprintf_r+0x1224>)
   85c68:	3201      	adds	r2, #1
   85c6a:	f10c 0c01 	add.w	ip, ip, #1
   85c6e:	2001      	movs	r0, #1
   85c70:	2a07      	cmp	r2, #7
   85c72:	f8cd c0b4 	str.w	ip, [sp, #180]	; 0xb4
   85c76:	922c      	str	r2, [sp, #176]	; 0xb0
   85c78:	6031      	str	r1, [r6, #0]
   85c7a:	6070      	str	r0, [r6, #4]
   85c7c:	f300 80f7 	bgt.w	85e6e <_svfprintf_r+0x114e>
   85c80:	3608      	adds	r6, #8
   85c82:	461c      	mov	r4, r3
   85c84:	b92c      	cbnz	r4, 85c92 <_svfprintf_r+0xf72>
   85c86:	9d11      	ldr	r5, [sp, #68]	; 0x44
   85c88:	b91d      	cbnz	r5, 85c92 <_svfprintf_r+0xf72>
   85c8a:	9d09      	ldr	r5, [sp, #36]	; 0x24
   85c8c:	07e8      	lsls	r0, r5, #31
   85c8e:	f57f aab9 	bpl.w	85204 <_svfprintf_r+0x4e4>
   85c92:	9b2c      	ldr	r3, [sp, #176]	; 0xb0
   85c94:	9d15      	ldr	r5, [sp, #84]	; 0x54
   85c96:	9918      	ldr	r1, [sp, #96]	; 0x60
   85c98:	3301      	adds	r3, #1
   85c9a:	6035      	str	r5, [r6, #0]
   85c9c:	9d18      	ldr	r5, [sp, #96]	; 0x60
   85c9e:	4461      	add	r1, ip
   85ca0:	2b07      	cmp	r3, #7
   85ca2:	912d      	str	r1, [sp, #180]	; 0xb4
   85ca4:	6075      	str	r5, [r6, #4]
   85ca6:	932c      	str	r3, [sp, #176]	; 0xb0
   85ca8:	f300 81de 	bgt.w	86068 <_svfprintf_r+0x1348>
   85cac:	f106 0208 	add.w	r2, r6, #8
   85cb0:	4264      	negs	r4, r4
   85cb2:	2c00      	cmp	r4, #0
   85cb4:	f340 810b 	ble.w	85ece <_svfprintf_r+0x11ae>
   85cb8:	2c10      	cmp	r4, #16
   85cba:	4da3      	ldr	r5, [pc, #652]	; (85f48 <_svfprintf_r+0x1228>)
   85cbc:	f340 8148 	ble.w	85f50 <_svfprintf_r+0x1230>
   85cc0:	46a3      	mov	fp, r4
   85cc2:	2610      	movs	r6, #16
   85cc4:	460c      	mov	r4, r1
   85cc6:	f8dd 8034 	ldr.w	r8, [sp, #52]	; 0x34
   85cca:	f8dd a030 	ldr.w	sl, [sp, #48]	; 0x30
   85cce:	e006      	b.n	85cde <_svfprintf_r+0xfbe>
   85cd0:	3208      	adds	r2, #8
   85cd2:	f1ab 0b10 	sub.w	fp, fp, #16
   85cd6:	f1bb 0f10 	cmp.w	fp, #16
   85cda:	f340 8137 	ble.w	85f4c <_svfprintf_r+0x122c>
   85cde:	3301      	adds	r3, #1
   85ce0:	3410      	adds	r4, #16
   85ce2:	2b07      	cmp	r3, #7
   85ce4:	942d      	str	r4, [sp, #180]	; 0xb4
   85ce6:	932c      	str	r3, [sp, #176]	; 0xb0
   85ce8:	e882 0060 	stmia.w	r2, {r5, r6}
   85cec:	ddf0      	ble.n	85cd0 <_svfprintf_r+0xfb0>
   85cee:	4640      	mov	r0, r8
   85cf0:	4651      	mov	r1, sl
   85cf2:	aa2b      	add	r2, sp, #172	; 0xac
   85cf4:	f003 fee4 	bl	89ac0 <__ssprint_r>
   85cf8:	2800      	cmp	r0, #0
   85cfa:	f47f a929 	bne.w	84f50 <_svfprintf_r+0x230>
   85cfe:	9c2d      	ldr	r4, [sp, #180]	; 0xb4
   85d00:	9b2c      	ldr	r3, [sp, #176]	; 0xb0
   85d02:	aa38      	add	r2, sp, #224	; 0xe0
   85d04:	e7e5      	b.n	85cd2 <_svfprintf_r+0xfb2>
   85d06:	9c09      	ldr	r4, [sp, #36]	; 0x24
   85d08:	f109 0901 	add.w	r9, r9, #1
   85d0c:	f044 0420 	orr.w	r4, r4, #32
   85d10:	9409      	str	r4, [sp, #36]	; 0x24
   85d12:	f893 8001 	ldrb.w	r8, [r3, #1]
   85d16:	f7ff b85f 	b.w	84dd8 <_svfprintf_r+0xb8>
   85d1a:	980d      	ldr	r0, [sp, #52]	; 0x34
   85d1c:	990c      	ldr	r1, [sp, #48]	; 0x30
   85d1e:	aa2b      	add	r2, sp, #172	; 0xac
   85d20:	f003 fece 	bl	89ac0 <__ssprint_r>
   85d24:	2800      	cmp	r0, #0
   85d26:	f47f a913 	bne.w	84f50 <_svfprintf_r+0x230>
   85d2a:	f8dd c0b4 	ldr.w	ip, [sp, #180]	; 0xb4
   85d2e:	ae38      	add	r6, sp, #224	; 0xe0
   85d30:	e4b6      	b.n	856a0 <_svfprintf_r+0x980>
   85d32:	9d0a      	ldr	r5, [sp, #40]	; 0x28
   85d34:	f028 0a20 	bic.w	sl, r8, #32
   85d38:	3501      	adds	r5, #1
   85d3a:	f000 80a5 	beq.w	85e88 <_svfprintf_r+0x1168>
   85d3e:	f1ba 0f47 	cmp.w	sl, #71	; 0x47
   85d42:	d104      	bne.n	85d4e <_svfprintf_r+0x102e>
   85d44:	9d0a      	ldr	r5, [sp, #40]	; 0x28
   85d46:	2d00      	cmp	r5, #0
   85d48:	bf08      	it	eq
   85d4a:	2501      	moveq	r5, #1
   85d4c:	950a      	str	r5, [sp, #40]	; 0x28
   85d4e:	f8dd c024 	ldr.w	ip, [sp, #36]	; 0x24
   85d52:	e9dd 2316 	ldrd	r2, r3, [sp, #88]	; 0x58
   85d56:	f44c 7c80 	orr.w	ip, ip, #256	; 0x100
   85d5a:	2b00      	cmp	r3, #0
   85d5c:	f8cd c048 	str.w	ip, [sp, #72]	; 0x48
   85d60:	f2c0 819c 	blt.w	8609c <_svfprintf_r+0x137c>
   85d64:	e9dd 4516 	ldrd	r4, r5, [sp, #88]	; 0x58
   85d68:	e9cd 4520 	strd	r4, r5, [sp, #128]	; 0x80
   85d6c:	f04f 0b00 	mov.w	fp, #0
   85d70:	f1b8 0f66 	cmp.w	r8, #102	; 0x66
   85d74:	f000 819b 	beq.w	860ae <_svfprintf_r+0x138e>
   85d78:	f1b8 0f46 	cmp.w	r8, #70	; 0x46
   85d7c:	f000 81a9 	beq.w	860d2 <_svfprintf_r+0x13b2>
   85d80:	f1ba 0f45 	cmp.w	sl, #69	; 0x45
   85d84:	bf0a      	itet	eq
   85d86:	9c0a      	ldreq	r4, [sp, #40]	; 0x28
   85d88:	9d0a      	ldrne	r5, [sp, #40]	; 0x28
   85d8a:	1c65      	addeq	r5, r4, #1
   85d8c:	2002      	movs	r0, #2
   85d8e:	a925      	add	r1, sp, #148	; 0x94
   85d90:	aa26      	add	r2, sp, #152	; 0x98
   85d92:	ab29      	add	r3, sp, #164	; 0xa4
   85d94:	e88d 0021 	stmia.w	sp, {r0, r5}
   85d98:	9203      	str	r2, [sp, #12]
   85d9a:	9304      	str	r3, [sp, #16]
   85d9c:	9102      	str	r1, [sp, #8]
   85d9e:	980d      	ldr	r0, [sp, #52]	; 0x34
   85da0:	e9dd 2320 	ldrd	r2, r3, [sp, #128]	; 0x80
   85da4:	f001 f9dc 	bl	87160 <_dtoa_r>
   85da8:	f1b8 0f67 	cmp.w	r8, #103	; 0x67
   85dac:	4607      	mov	r7, r0
   85dae:	d002      	beq.n	85db6 <_svfprintf_r+0x1096>
   85db0:	f1b8 0f47 	cmp.w	r8, #71	; 0x47
   85db4:	d105      	bne.n	85dc2 <_svfprintf_r+0x10a2>
   85db6:	f8dd c024 	ldr.w	ip, [sp, #36]	; 0x24
   85dba:	f01c 0f01 	tst.w	ip, #1
   85dbe:	f000 819c 	beq.w	860fa <_svfprintf_r+0x13da>
   85dc2:	f1ba 0f46 	cmp.w	sl, #70	; 0x46
   85dc6:	eb07 0405 	add.w	r4, r7, r5
   85dca:	f000 811c 	beq.w	86006 <_svfprintf_r+0x12e6>
   85dce:	e9dd 0120 	ldrd	r0, r1, [sp, #128]	; 0x80
   85dd2:	2200      	movs	r2, #0
   85dd4:	2300      	movs	r3, #0
   85dd6:	f7fe fd37 	bl	84848 <__aeabi_dcmpeq>
   85dda:	2800      	cmp	r0, #0
   85ddc:	f040 8105 	bne.w	85fea <_svfprintf_r+0x12ca>
   85de0:	9b29      	ldr	r3, [sp, #164]	; 0xa4
   85de2:	429c      	cmp	r4, r3
   85de4:	d906      	bls.n	85df4 <_svfprintf_r+0x10d4>
   85de6:	2130      	movs	r1, #48	; 0x30
   85de8:	1c5a      	adds	r2, r3, #1
   85dea:	9229      	str	r2, [sp, #164]	; 0xa4
   85dec:	7019      	strb	r1, [r3, #0]
   85dee:	9b29      	ldr	r3, [sp, #164]	; 0xa4
   85df0:	429c      	cmp	r4, r3
   85df2:	d8f9      	bhi.n	85de8 <_svfprintf_r+0x10c8>
   85df4:	1bdb      	subs	r3, r3, r7
   85df6:	f1ba 0f47 	cmp.w	sl, #71	; 0x47
   85dfa:	9311      	str	r3, [sp, #68]	; 0x44
   85dfc:	f000 80ed 	beq.w	85fda <_svfprintf_r+0x12ba>
   85e00:	f1b8 0f65 	cmp.w	r8, #101	; 0x65
   85e04:	f340 81f2 	ble.w	861ec <_svfprintf_r+0x14cc>
   85e08:	f1b8 0f66 	cmp.w	r8, #102	; 0x66
   85e0c:	f000 8168 	beq.w	860e0 <_svfprintf_r+0x13c0>
   85e10:	9c25      	ldr	r4, [sp, #148]	; 0x94
   85e12:	9414      	str	r4, [sp, #80]	; 0x50
   85e14:	9c11      	ldr	r4, [sp, #68]	; 0x44
   85e16:	9d14      	ldr	r5, [sp, #80]	; 0x50
   85e18:	42ac      	cmp	r4, r5
   85e1a:	f300 8132 	bgt.w	86082 <_svfprintf_r+0x1362>
   85e1e:	f8dd c024 	ldr.w	ip, [sp, #36]	; 0x24
   85e22:	f01c 0f01 	tst.w	ip, #1
   85e26:	f040 81ad 	bne.w	86184 <_svfprintf_r+0x1464>
   85e2a:	ea25 73e5 	bic.w	r3, r5, r5, asr #31
   85e2e:	462c      	mov	r4, r5
   85e30:	f04f 0867 	mov.w	r8, #103	; 0x67
   85e34:	f1bb 0f00 	cmp.w	fp, #0
   85e38:	f040 80b2 	bne.w	85fa0 <_svfprintf_r+0x1280>
   85e3c:	9d12      	ldr	r5, [sp, #72]	; 0x48
   85e3e:	930b      	str	r3, [sp, #44]	; 0x2c
   85e40:	9509      	str	r5, [sp, #36]	; 0x24
   85e42:	f8cd b028 	str.w	fp, [sp, #40]	; 0x28
   85e46:	f89d a08f 	ldrb.w	sl, [sp, #143]	; 0x8f
   85e4a:	f7ff b900 	b.w	8504e <_svfprintf_r+0x32e>
   85e4e:	980d      	ldr	r0, [sp, #52]	; 0x34
   85e50:	2140      	movs	r1, #64	; 0x40
   85e52:	f002 fda7 	bl	889a4 <_malloc_r>
   85e56:	6020      	str	r0, [r4, #0]
   85e58:	6120      	str	r0, [r4, #16]
   85e5a:	2800      	cmp	r0, #0
   85e5c:	f000 81bf 	beq.w	861de <_svfprintf_r+0x14be>
   85e60:	f8dd c030 	ldr.w	ip, [sp, #48]	; 0x30
   85e64:	2340      	movs	r3, #64	; 0x40
   85e66:	f8cc 3014 	str.w	r3, [ip, #20]
   85e6a:	f7fe bf6f 	b.w	84d4c <_svfprintf_r+0x2c>
   85e6e:	980d      	ldr	r0, [sp, #52]	; 0x34
   85e70:	990c      	ldr	r1, [sp, #48]	; 0x30
   85e72:	aa2b      	add	r2, sp, #172	; 0xac
   85e74:	f003 fe24 	bl	89ac0 <__ssprint_r>
   85e78:	2800      	cmp	r0, #0
   85e7a:	f47f a869 	bne.w	84f50 <_svfprintf_r+0x230>
   85e7e:	9c25      	ldr	r4, [sp, #148]	; 0x94
   85e80:	f8dd c0b4 	ldr.w	ip, [sp, #180]	; 0xb4
   85e84:	ae38      	add	r6, sp, #224	; 0xe0
   85e86:	e6fd      	b.n	85c84 <_svfprintf_r+0xf64>
   85e88:	2406      	movs	r4, #6
   85e8a:	940a      	str	r4, [sp, #40]	; 0x28
   85e8c:	e75f      	b.n	85d4e <_svfprintf_r+0x102e>
   85e8e:	9d10      	ldr	r5, [sp, #64]	; 0x40
   85e90:	682c      	ldr	r4, [r5, #0]
   85e92:	3504      	adds	r5, #4
   85e94:	9510      	str	r5, [sp, #64]	; 0x40
   85e96:	2500      	movs	r5, #0
   85e98:	f7ff b898 	b.w	84fcc <_svfprintf_r+0x2ac>
   85e9c:	f8dd c024 	ldr.w	ip, [sp, #36]	; 0x24
   85ea0:	f01c 0f40 	tst.w	ip, #64	; 0x40
   85ea4:	f000 8087 	beq.w	85fb6 <_svfprintf_r+0x1296>
   85ea8:	9c10      	ldr	r4, [sp, #64]	; 0x40
   85eaa:	9d0e      	ldr	r5, [sp, #56]	; 0x38
   85eac:	6823      	ldr	r3, [r4, #0]
   85eae:	3404      	adds	r4, #4
   85eb0:	9410      	str	r4, [sp, #64]	; 0x40
   85eb2:	801d      	strh	r5, [r3, #0]
   85eb4:	f7fe bf5a 	b.w	84d6c <_svfprintf_r+0x4c>
   85eb8:	980d      	ldr	r0, [sp, #52]	; 0x34
   85eba:	990c      	ldr	r1, [sp, #48]	; 0x30
   85ebc:	aa2b      	add	r2, sp, #172	; 0xac
   85ebe:	f003 fdff 	bl	89ac0 <__ssprint_r>
   85ec2:	2800      	cmp	r0, #0
   85ec4:	f47f a844 	bne.w	84f50 <_svfprintf_r+0x230>
   85ec8:	992d      	ldr	r1, [sp, #180]	; 0xb4
   85eca:	9b2c      	ldr	r3, [sp, #176]	; 0xb0
   85ecc:	aa38      	add	r2, sp, #224	; 0xe0
   85ece:	f8dd c044 	ldr.w	ip, [sp, #68]	; 0x44
   85ed2:	3301      	adds	r3, #1
   85ed4:	9c11      	ldr	r4, [sp, #68]	; 0x44
   85ed6:	448c      	add	ip, r1
   85ed8:	2b07      	cmp	r3, #7
   85eda:	f8cd c0b4 	str.w	ip, [sp, #180]	; 0xb4
   85ede:	932c      	str	r3, [sp, #176]	; 0xb0
   85ee0:	6017      	str	r7, [r2, #0]
   85ee2:	6054      	str	r4, [r2, #4]
   85ee4:	f73f ac9c 	bgt.w	85820 <_svfprintf_r+0xb00>
   85ee8:	f102 0608 	add.w	r6, r2, #8
   85eec:	f7ff b98a 	b.w	85204 <_svfprintf_r+0x4e4>
   85ef0:	f8cd a028 	str.w	sl, [sp, #40]	; 0x28
   85ef4:	f7fe feb2 	bl	84c5c <strlen>
   85ef8:	9510      	str	r5, [sp, #64]	; 0x40
   85efa:	9d0a      	ldr	r5, [sp, #40]	; 0x28
   85efc:	ea20 7ce0 	bic.w	ip, r0, r0, asr #31
   85f00:	4604      	mov	r4, r0
   85f02:	f8cd c02c 	str.w	ip, [sp, #44]	; 0x2c
   85f06:	9514      	str	r5, [sp, #80]	; 0x50
   85f08:	f89d a08f 	ldrb.w	sl, [sp, #143]	; 0x8f
   85f0c:	f7ff b89f 	b.w	8504e <_svfprintf_r+0x32e>
   85f10:	980d      	ldr	r0, [sp, #52]	; 0x34
   85f12:	990c      	ldr	r1, [sp, #48]	; 0x30
   85f14:	aa2b      	add	r2, sp, #172	; 0xac
   85f16:	f003 fdd3 	bl	89ac0 <__ssprint_r>
   85f1a:	2800      	cmp	r0, #0
   85f1c:	f47f a818 	bne.w	84f50 <_svfprintf_r+0x230>
   85f20:	f8dd c0b4 	ldr.w	ip, [sp, #180]	; 0xb4
   85f24:	ae38      	add	r6, sp, #224	; 0xe0
   85f26:	e4d6      	b.n	858d6 <_svfprintf_r+0xbb6>
   85f28:	980d      	ldr	r0, [sp, #52]	; 0x34
   85f2a:	990c      	ldr	r1, [sp, #48]	; 0x30
   85f2c:	aa2b      	add	r2, sp, #172	; 0xac
   85f2e:	f003 fdc7 	bl	89ac0 <__ssprint_r>
   85f32:	2800      	cmp	r0, #0
   85f34:	f47f a80c 	bne.w	84f50 <_svfprintf_r+0x230>
   85f38:	9c25      	ldr	r4, [sp, #148]	; 0x94
   85f3a:	f8dd c0b4 	ldr.w	ip, [sp, #180]	; 0xb4
   85f3e:	ae38      	add	r6, sp, #224	; 0xe0
   85f40:	e5b0      	b.n	85aa4 <_svfprintf_r+0xd84>
   85f42:	bf00      	nop
   85f44:	0008a570 	.word	0x0008a570
   85f48:	0008a988 	.word	0x0008a988
   85f4c:	4621      	mov	r1, r4
   85f4e:	465c      	mov	r4, fp
   85f50:	3301      	adds	r3, #1
   85f52:	4421      	add	r1, r4
   85f54:	2b07      	cmp	r3, #7
   85f56:	912d      	str	r1, [sp, #180]	; 0xb4
   85f58:	932c      	str	r3, [sp, #176]	; 0xb0
   85f5a:	6015      	str	r5, [r2, #0]
   85f5c:	6054      	str	r4, [r2, #4]
   85f5e:	dcab      	bgt.n	85eb8 <_svfprintf_r+0x1198>
   85f60:	3208      	adds	r2, #8
   85f62:	e7b4      	b.n	85ece <_svfprintf_r+0x11ae>
   85f64:	980d      	ldr	r0, [sp, #52]	; 0x34
   85f66:	990c      	ldr	r1, [sp, #48]	; 0x30
   85f68:	aa2b      	add	r2, sp, #172	; 0xac
   85f6a:	f003 fda9 	bl	89ac0 <__ssprint_r>
   85f6e:	2800      	cmp	r0, #0
   85f70:	f47e afee 	bne.w	84f50 <_svfprintf_r+0x230>
   85f74:	9c25      	ldr	r4, [sp, #148]	; 0x94
   85f76:	9911      	ldr	r1, [sp, #68]	; 0x44
   85f78:	f8dd c0b4 	ldr.w	ip, [sp, #180]	; 0xb4
   85f7c:	1b0c      	subs	r4, r1, r4
   85f7e:	ae38      	add	r6, sp, #224	; 0xe0
   85f80:	e5a5      	b.n	85ace <_svfprintf_r+0xdae>
   85f82:	9c0a      	ldr	r4, [sp, #40]	; 0x28
   85f84:	46ba      	mov	sl, r7
   85f86:	2c06      	cmp	r4, #6
   85f88:	bf28      	it	cs
   85f8a:	2406      	movcs	r4, #6
   85f8c:	ea24 7ce4 	bic.w	ip, r4, r4, asr #31
   85f90:	970a      	str	r7, [sp, #40]	; 0x28
   85f92:	9714      	str	r7, [sp, #80]	; 0x50
   85f94:	9510      	str	r5, [sp, #64]	; 0x40
   85f96:	f8cd c02c 	str.w	ip, [sp, #44]	; 0x2c
   85f9a:	4f97      	ldr	r7, [pc, #604]	; (861f8 <_svfprintf_r+0x14d8>)
   85f9c:	f7ff b857 	b.w	8504e <_svfprintf_r+0x32e>
   85fa0:	9d12      	ldr	r5, [sp, #72]	; 0x48
   85fa2:	f04f 0a2d 	mov.w	sl, #45	; 0x2d
   85fa6:	9509      	str	r5, [sp, #36]	; 0x24
   85fa8:	2500      	movs	r5, #0
   85faa:	930b      	str	r3, [sp, #44]	; 0x2c
   85fac:	f88d a08f 	strb.w	sl, [sp, #143]	; 0x8f
   85fb0:	950a      	str	r5, [sp, #40]	; 0x28
   85fb2:	f7ff b84f 	b.w	85054 <_svfprintf_r+0x334>
   85fb6:	f8dd c040 	ldr.w	ip, [sp, #64]	; 0x40
   85fba:	9c0e      	ldr	r4, [sp, #56]	; 0x38
   85fbc:	f8dc 3000 	ldr.w	r3, [ip]
   85fc0:	f10c 0c04 	add.w	ip, ip, #4
   85fc4:	f8cd c040 	str.w	ip, [sp, #64]	; 0x40
   85fc8:	601c      	str	r4, [r3, #0]
   85fca:	f7fe becf 	b.w	84d6c <_svfprintf_r+0x4c>
   85fce:	f04f 0a2d 	mov.w	sl, #45	; 0x2d
   85fd2:	f88d a08f 	strb.w	sl, [sp, #143]	; 0x8f
   85fd6:	f7ff ba99 	b.w	8550c <_svfprintf_r+0x7ec>
   85fda:	9b25      	ldr	r3, [sp, #148]	; 0x94
   85fdc:	1cdc      	adds	r4, r3, #3
   85fde:	db19      	blt.n	86014 <_svfprintf_r+0x12f4>
   85fe0:	9c0a      	ldr	r4, [sp, #40]	; 0x28
   85fe2:	429c      	cmp	r4, r3
   85fe4:	db16      	blt.n	86014 <_svfprintf_r+0x12f4>
   85fe6:	9314      	str	r3, [sp, #80]	; 0x50
   85fe8:	e714      	b.n	85e14 <_svfprintf_r+0x10f4>
   85fea:	4623      	mov	r3, r4
   85fec:	e702      	b.n	85df4 <_svfprintf_r+0x10d4>
   85fee:	ea24 7ce4 	bic.w	ip, r4, r4, asr #31
   85ff2:	f8cd c02c 	str.w	ip, [sp, #44]	; 0x2c
   85ff6:	9c0a      	ldr	r4, [sp, #40]	; 0x28
   85ff8:	9510      	str	r5, [sp, #64]	; 0x40
   85ffa:	900a      	str	r0, [sp, #40]	; 0x28
   85ffc:	9014      	str	r0, [sp, #80]	; 0x50
   85ffe:	f89d a08f 	ldrb.w	sl, [sp, #143]	; 0x8f
   86002:	f7ff b824 	b.w	8504e <_svfprintf_r+0x32e>
   86006:	783b      	ldrb	r3, [r7, #0]
   86008:	2b30      	cmp	r3, #48	; 0x30
   8600a:	f000 80ad 	beq.w	86168 <_svfprintf_r+0x1448>
   8600e:	9d25      	ldr	r5, [sp, #148]	; 0x94
   86010:	442c      	add	r4, r5
   86012:	e6dc      	b.n	85dce <_svfprintf_r+0x10ae>
   86014:	f1a8 0802 	sub.w	r8, r8, #2
   86018:	1e59      	subs	r1, r3, #1
   8601a:	2900      	cmp	r1, #0
   8601c:	9125      	str	r1, [sp, #148]	; 0x94
   8601e:	bfba      	itte	lt
   86020:	4249      	neglt	r1, r1
   86022:	232d      	movlt	r3, #45	; 0x2d
   86024:	232b      	movge	r3, #43	; 0x2b
   86026:	2909      	cmp	r1, #9
   86028:	f88d 809c 	strb.w	r8, [sp, #156]	; 0x9c
   8602c:	f88d 309d 	strb.w	r3, [sp, #157]	; 0x9d
   86030:	dc65      	bgt.n	860fe <_svfprintf_r+0x13de>
   86032:	2330      	movs	r3, #48	; 0x30
   86034:	3130      	adds	r1, #48	; 0x30
   86036:	f88d 309e 	strb.w	r3, [sp, #158]	; 0x9e
   8603a:	f88d 109f 	strb.w	r1, [sp, #159]	; 0x9f
   8603e:	ab28      	add	r3, sp, #160	; 0xa0
   86040:	9d11      	ldr	r5, [sp, #68]	; 0x44
   86042:	aa27      	add	r2, sp, #156	; 0x9c
   86044:	9c11      	ldr	r4, [sp, #68]	; 0x44
   86046:	1a9a      	subs	r2, r3, r2
   86048:	2d01      	cmp	r5, #1
   8604a:	9219      	str	r2, [sp, #100]	; 0x64
   8604c:	4414      	add	r4, r2
   8604e:	f340 80b7 	ble.w	861c0 <_svfprintf_r+0x14a0>
   86052:	3401      	adds	r4, #1
   86054:	2500      	movs	r5, #0
   86056:	ea24 73e4 	bic.w	r3, r4, r4, asr #31
   8605a:	9514      	str	r5, [sp, #80]	; 0x50
   8605c:	e6ea      	b.n	85e34 <_svfprintf_r+0x1114>
   8605e:	2400      	movs	r4, #0
   86060:	4681      	mov	r9, r0
   86062:	940a      	str	r4, [sp, #40]	; 0x28
   86064:	f7fe beba 	b.w	84ddc <_svfprintf_r+0xbc>
   86068:	980d      	ldr	r0, [sp, #52]	; 0x34
   8606a:	990c      	ldr	r1, [sp, #48]	; 0x30
   8606c:	aa2b      	add	r2, sp, #172	; 0xac
   8606e:	f003 fd27 	bl	89ac0 <__ssprint_r>
   86072:	2800      	cmp	r0, #0
   86074:	f47e af6c 	bne.w	84f50 <_svfprintf_r+0x230>
   86078:	9c25      	ldr	r4, [sp, #148]	; 0x94
   8607a:	992d      	ldr	r1, [sp, #180]	; 0xb4
   8607c:	9b2c      	ldr	r3, [sp, #176]	; 0xb0
   8607e:	aa38      	add	r2, sp, #224	; 0xe0
   86080:	e616      	b.n	85cb0 <_svfprintf_r+0xf90>
   86082:	9c14      	ldr	r4, [sp, #80]	; 0x50
   86084:	9d11      	ldr	r5, [sp, #68]	; 0x44
   86086:	2c00      	cmp	r4, #0
   86088:	bfd4      	ite	le
   8608a:	f1c4 0402 	rsble	r4, r4, #2
   8608e:	2401      	movgt	r4, #1
   86090:	442c      	add	r4, r5
   86092:	ea24 73e4 	bic.w	r3, r4, r4, asr #31
   86096:	f04f 0867 	mov.w	r8, #103	; 0x67
   8609a:	e6cb      	b.n	85e34 <_svfprintf_r+0x1114>
   8609c:	9917      	ldr	r1, [sp, #92]	; 0x5c
   8609e:	9816      	ldr	r0, [sp, #88]	; 0x58
   860a0:	f101 4100 	add.w	r1, r1, #2147483648	; 0x80000000
   860a4:	9020      	str	r0, [sp, #128]	; 0x80
   860a6:	9121      	str	r1, [sp, #132]	; 0x84
   860a8:	f04f 0b2d 	mov.w	fp, #45	; 0x2d
   860ac:	e660      	b.n	85d70 <_svfprintf_r+0x1050>
   860ae:	9d0a      	ldr	r5, [sp, #40]	; 0x28
   860b0:	2003      	movs	r0, #3
   860b2:	a925      	add	r1, sp, #148	; 0x94
   860b4:	aa26      	add	r2, sp, #152	; 0x98
   860b6:	ab29      	add	r3, sp, #164	; 0xa4
   860b8:	9501      	str	r5, [sp, #4]
   860ba:	9000      	str	r0, [sp, #0]
   860bc:	9203      	str	r2, [sp, #12]
   860be:	9304      	str	r3, [sp, #16]
   860c0:	9102      	str	r1, [sp, #8]
   860c2:	980d      	ldr	r0, [sp, #52]	; 0x34
   860c4:	e9dd 2320 	ldrd	r2, r3, [sp, #128]	; 0x80
   860c8:	f001 f84a 	bl	87160 <_dtoa_r>
   860cc:	9d0a      	ldr	r5, [sp, #40]	; 0x28
   860ce:	4607      	mov	r7, r0
   860d0:	e677      	b.n	85dc2 <_svfprintf_r+0x10a2>
   860d2:	9c0a      	ldr	r4, [sp, #40]	; 0x28
   860d4:	2003      	movs	r0, #3
   860d6:	a925      	add	r1, sp, #148	; 0x94
   860d8:	aa26      	add	r2, sp, #152	; 0x98
   860da:	ab29      	add	r3, sp, #164	; 0xa4
   860dc:	9401      	str	r4, [sp, #4]
   860de:	e7ec      	b.n	860ba <_svfprintf_r+0x139a>
   860e0:	9d25      	ldr	r5, [sp, #148]	; 0x94
   860e2:	9c0a      	ldr	r4, [sp, #40]	; 0x28
   860e4:	2d00      	cmp	r5, #0
   860e6:	9514      	str	r5, [sp, #80]	; 0x50
   860e8:	dd63      	ble.n	861b2 <_svfprintf_r+0x1492>
   860ea:	bbb4      	cbnz	r4, 8615a <_svfprintf_r+0x143a>
   860ec:	9d09      	ldr	r5, [sp, #36]	; 0x24
   860ee:	07e8      	lsls	r0, r5, #31
   860f0:	d433      	bmi.n	8615a <_svfprintf_r+0x143a>
   860f2:	9c14      	ldr	r4, [sp, #80]	; 0x50
   860f4:	ea24 73e4 	bic.w	r3, r4, r4, asr #31
   860f8:	e69c      	b.n	85e34 <_svfprintf_r+0x1114>
   860fa:	9b29      	ldr	r3, [sp, #164]	; 0xa4
   860fc:	e67a      	b.n	85df4 <_svfprintf_r+0x10d4>
   860fe:	f10d 02aa 	add.w	r2, sp, #170	; 0xaa
   86102:	4d3e      	ldr	r5, [pc, #248]	; (861fc <_svfprintf_r+0x14dc>)
   86104:	17cb      	asrs	r3, r1, #31
   86106:	fb85 5001 	smull	r5, r0, r5, r1
   8610a:	ebc3 00a0 	rsb	r0, r3, r0, asr #2
   8610e:	eb00 0380 	add.w	r3, r0, r0, lsl #2
   86112:	eba1 0143 	sub.w	r1, r1, r3, lsl #1
   86116:	2809      	cmp	r0, #9
   86118:	4613      	mov	r3, r2
   8611a:	f101 0230 	add.w	r2, r1, #48	; 0x30
   8611e:	701a      	strb	r2, [r3, #0]
   86120:	4601      	mov	r1, r0
   86122:	f103 32ff 	add.w	r2, r3, #4294967295
   86126:	dcec      	bgt.n	86102 <_svfprintf_r+0x13e2>
   86128:	f100 0130 	add.w	r1, r0, #48	; 0x30
   8612c:	f10d 04ab 	add.w	r4, sp, #171	; 0xab
   86130:	b2c9      	uxtb	r1, r1
   86132:	4294      	cmp	r4, r2
   86134:	f803 1c01 	strb.w	r1, [r3, #-1]
   86138:	d95a      	bls.n	861f0 <_svfprintf_r+0x14d0>
   8613a:	f10d 009d 	add.w	r0, sp, #157	; 0x9d
   8613e:	461a      	mov	r2, r3
   86140:	e001      	b.n	86146 <_svfprintf_r+0x1426>
   86142:	f812 1b01 	ldrb.w	r1, [r2], #1
   86146:	42a2      	cmp	r2, r4
   86148:	f800 1f01 	strb.w	r1, [r0, #1]!
   8614c:	d1f9      	bne.n	86142 <_svfprintf_r+0x1422>
   8614e:	f50d 7c90 	add.w	ip, sp, #288	; 0x120
   86152:	ebc3 034c 	rsb	r3, r3, ip, lsl #1
   86156:	3bf6      	subs	r3, #246	; 0xf6
   86158:	e772      	b.n	86040 <_svfprintf_r+0x1320>
   8615a:	9d0a      	ldr	r5, [sp, #40]	; 0x28
   8615c:	1c6c      	adds	r4, r5, #1
   8615e:	9d14      	ldr	r5, [sp, #80]	; 0x50
   86160:	442c      	add	r4, r5
   86162:	ea24 73e4 	bic.w	r3, r4, r4, asr #31
   86166:	e665      	b.n	85e34 <_svfprintf_r+0x1114>
   86168:	e9dd 0120 	ldrd	r0, r1, [sp, #128]	; 0x80
   8616c:	2200      	movs	r2, #0
   8616e:	2300      	movs	r3, #0
   86170:	f7fe fb6a 	bl	84848 <__aeabi_dcmpeq>
   86174:	2800      	cmp	r0, #0
   86176:	f47f af4a 	bne.w	8600e <_svfprintf_r+0x12ee>
   8617a:	f1c5 0501 	rsb	r5, r5, #1
   8617e:	9525      	str	r5, [sp, #148]	; 0x94
   86180:	442c      	add	r4, r5
   86182:	e624      	b.n	85dce <_svfprintf_r+0x10ae>
   86184:	9d14      	ldr	r5, [sp, #80]	; 0x50
   86186:	f04f 0867 	mov.w	r8, #103	; 0x67
   8618a:	1c6c      	adds	r4, r5, #1
   8618c:	ea24 73e4 	bic.w	r3, r4, r4, asr #31
   86190:	e650      	b.n	85e34 <_svfprintf_r+0x1114>
   86192:	9d10      	ldr	r5, [sp, #64]	; 0x40
   86194:	f8dd c040 	ldr.w	ip, [sp, #64]	; 0x40
   86198:	682d      	ldr	r5, [r5, #0]
   8619a:	f10c 0304 	add.w	r3, ip, #4
   8619e:	2d00      	cmp	r5, #0
   861a0:	f899 8001 	ldrb.w	r8, [r9, #1]
   861a4:	950a      	str	r5, [sp, #40]	; 0x28
   861a6:	9310      	str	r3, [sp, #64]	; 0x40
   861a8:	4681      	mov	r9, r0
   861aa:	f6be ae15 	bge.w	84dd8 <_svfprintf_r+0xb8>
   861ae:	f7fe be10 	b.w	84dd2 <_svfprintf_r+0xb2>
   861b2:	b97c      	cbnz	r4, 861d4 <_svfprintf_r+0x14b4>
   861b4:	9d09      	ldr	r5, [sp, #36]	; 0x24
   861b6:	07e9      	lsls	r1, r5, #31
   861b8:	d40c      	bmi.n	861d4 <_svfprintf_r+0x14b4>
   861ba:	2301      	movs	r3, #1
   861bc:	461c      	mov	r4, r3
   861be:	e639      	b.n	85e34 <_svfprintf_r+0x1114>
   861c0:	f8dd c024 	ldr.w	ip, [sp, #36]	; 0x24
   861c4:	f01c 0301 	ands.w	r3, ip, #1
   861c8:	f47f af43 	bne.w	86052 <_svfprintf_r+0x1332>
   861cc:	9314      	str	r3, [sp, #80]	; 0x50
   861ce:	ea24 73e4 	bic.w	r3, r4, r4, asr #31
   861d2:	e62f      	b.n	85e34 <_svfprintf_r+0x1114>
   861d4:	9d0a      	ldr	r5, [sp, #40]	; 0x28
   861d6:	1cac      	adds	r4, r5, #2
   861d8:	ea24 73e4 	bic.w	r3, r4, r4, asr #31
   861dc:	e62a      	b.n	85e34 <_svfprintf_r+0x1114>
   861de:	9d0d      	ldr	r5, [sp, #52]	; 0x34
   861e0:	230c      	movs	r3, #12
   861e2:	602b      	str	r3, [r5, #0]
   861e4:	f04f 30ff 	mov.w	r0, #4294967295
   861e8:	f7fe beba 	b.w	84f60 <_svfprintf_r+0x240>
   861ec:	9b25      	ldr	r3, [sp, #148]	; 0x94
   861ee:	e713      	b.n	86018 <_svfprintf_r+0x12f8>
   861f0:	f10d 039e 	add.w	r3, sp, #158	; 0x9e
   861f4:	e724      	b.n	86040 <_svfprintf_r+0x1320>
   861f6:	bf00      	nop
   861f8:	0008a9d0 	.word	0x0008a9d0
   861fc:	66666667 	.word	0x66666667

00086200 <__sprint_r.part.0>:
   86200:	6e4b      	ldr	r3, [r1, #100]	; 0x64
   86202:	e92d 47f0 	stmdb	sp!, {r4, r5, r6, r7, r8, r9, sl, lr}
   86206:	049c      	lsls	r4, r3, #18
   86208:	460e      	mov	r6, r1
   8620a:	4680      	mov	r8, r0
   8620c:	4691      	mov	r9, r2
   8620e:	d52a      	bpl.n	86266 <__sprint_r.part.0+0x66>
   86210:	6893      	ldr	r3, [r2, #8]
   86212:	6812      	ldr	r2, [r2, #0]
   86214:	f102 0a08 	add.w	sl, r2, #8
   86218:	b31b      	cbz	r3, 86262 <__sprint_r.part.0+0x62>
   8621a:	e91a 00a0 	ldmdb	sl, {r5, r7}
   8621e:	08bf      	lsrs	r7, r7, #2
   86220:	d017      	beq.n	86252 <__sprint_r.part.0+0x52>
   86222:	3d04      	subs	r5, #4
   86224:	2400      	movs	r4, #0
   86226:	e001      	b.n	8622c <__sprint_r.part.0+0x2c>
   86228:	42a7      	cmp	r7, r4
   8622a:	d010      	beq.n	8624e <__sprint_r.part.0+0x4e>
   8622c:	4640      	mov	r0, r8
   8622e:	f855 1f04 	ldr.w	r1, [r5, #4]!
   86232:	4632      	mov	r2, r6
   86234:	f002 f806 	bl	88244 <_fputwc_r>
   86238:	1c43      	adds	r3, r0, #1
   8623a:	f104 0401 	add.w	r4, r4, #1
   8623e:	d1f3      	bne.n	86228 <__sprint_r.part.0+0x28>
   86240:	2300      	movs	r3, #0
   86242:	f8c9 3008 	str.w	r3, [r9, #8]
   86246:	f8c9 3004 	str.w	r3, [r9, #4]
   8624a:	e8bd 87f0 	ldmia.w	sp!, {r4, r5, r6, r7, r8, r9, sl, pc}
   8624e:	f8d9 3008 	ldr.w	r3, [r9, #8]
   86252:	eba3 0387 	sub.w	r3, r3, r7, lsl #2
   86256:	f8c9 3008 	str.w	r3, [r9, #8]
   8625a:	f10a 0a08 	add.w	sl, sl, #8
   8625e:	2b00      	cmp	r3, #0
   86260:	d1db      	bne.n	8621a <__sprint_r.part.0+0x1a>
   86262:	2000      	movs	r0, #0
   86264:	e7ec      	b.n	86240 <__sprint_r.part.0+0x40>
   86266:	f002 f967 	bl	88538 <__sfvwrite_r>
   8626a:	2300      	movs	r3, #0
   8626c:	f8c9 3008 	str.w	r3, [r9, #8]
   86270:	f8c9 3004 	str.w	r3, [r9, #4]
   86274:	e8bd 87f0 	ldmia.w	sp!, {r4, r5, r6, r7, r8, r9, sl, pc}

00086278 <_vfiprintf_r>:
   86278:	e92d 4ff0 	stmdb	sp!, {r4, r5, r6, r7, r8, r9, sl, fp, lr}
   8627c:	b0b1      	sub	sp, #196	; 0xc4
   8627e:	461c      	mov	r4, r3
   86280:	9102      	str	r1, [sp, #8]
   86282:	4690      	mov	r8, r2
   86284:	9308      	str	r3, [sp, #32]
   86286:	9006      	str	r0, [sp, #24]
   86288:	b118      	cbz	r0, 86292 <_vfiprintf_r+0x1a>
   8628a:	6b83      	ldr	r3, [r0, #56]	; 0x38
   8628c:	2b00      	cmp	r3, #0
   8628e:	f000 80e8 	beq.w	86462 <_vfiprintf_r+0x1ea>
   86292:	9d02      	ldr	r5, [sp, #8]
   86294:	89ab      	ldrh	r3, [r5, #12]
   86296:	b29a      	uxth	r2, r3
   86298:	0490      	lsls	r0, r2, #18
   8629a:	d407      	bmi.n	862ac <_vfiprintf_r+0x34>
   8629c:	6e6a      	ldr	r2, [r5, #100]	; 0x64
   8629e:	f443 5300 	orr.w	r3, r3, #8192	; 0x2000
   862a2:	f422 5100 	bic.w	r1, r2, #8192	; 0x2000
   862a6:	81ab      	strh	r3, [r5, #12]
   862a8:	b29a      	uxth	r2, r3
   862aa:	6669      	str	r1, [r5, #100]	; 0x64
   862ac:	0711      	lsls	r1, r2, #28
   862ae:	f140 80b7 	bpl.w	86420 <_vfiprintf_r+0x1a8>
   862b2:	f8dd b008 	ldr.w	fp, [sp, #8]
   862b6:	f8db 3010 	ldr.w	r3, [fp, #16]
   862ba:	2b00      	cmp	r3, #0
   862bc:	f000 80b0 	beq.w	86420 <_vfiprintf_r+0x1a8>
   862c0:	f002 021a 	and.w	r2, r2, #26
   862c4:	2a0a      	cmp	r2, #10
   862c6:	f000 80b7 	beq.w	86438 <_vfiprintf_r+0x1c0>
   862ca:	2300      	movs	r3, #0
   862cc:	f10d 0980 	add.w	r9, sp, #128	; 0x80
   862d0:	930a      	str	r3, [sp, #40]	; 0x28
   862d2:	9315      	str	r3, [sp, #84]	; 0x54
   862d4:	9314      	str	r3, [sp, #80]	; 0x50
   862d6:	9309      	str	r3, [sp, #36]	; 0x24
   862d8:	f8cd 904c 	str.w	r9, [sp, #76]	; 0x4c
   862dc:	464e      	mov	r6, r9
   862de:	f898 3000 	ldrb.w	r3, [r8]
   862e2:	2b00      	cmp	r3, #0
   862e4:	f000 84c8 	beq.w	86c78 <_vfiprintf_r+0xa00>
   862e8:	2b25      	cmp	r3, #37	; 0x25
   862ea:	f000 84c5 	beq.w	86c78 <_vfiprintf_r+0xa00>
   862ee:	f108 0201 	add.w	r2, r8, #1
   862f2:	e001      	b.n	862f8 <_vfiprintf_r+0x80>
   862f4:	2b25      	cmp	r3, #37	; 0x25
   862f6:	d004      	beq.n	86302 <_vfiprintf_r+0x8a>
   862f8:	7813      	ldrb	r3, [r2, #0]
   862fa:	4614      	mov	r4, r2
   862fc:	3201      	adds	r2, #1
   862fe:	2b00      	cmp	r3, #0
   86300:	d1f8      	bne.n	862f4 <_vfiprintf_r+0x7c>
   86302:	ebc8 0504 	rsb	r5, r8, r4
   86306:	b195      	cbz	r5, 8632e <_vfiprintf_r+0xb6>
   86308:	9b14      	ldr	r3, [sp, #80]	; 0x50
   8630a:	9a15      	ldr	r2, [sp, #84]	; 0x54
   8630c:	3301      	adds	r3, #1
   8630e:	442a      	add	r2, r5
   86310:	2b07      	cmp	r3, #7
   86312:	f8c6 8000 	str.w	r8, [r6]
   86316:	6075      	str	r5, [r6, #4]
   86318:	9215      	str	r2, [sp, #84]	; 0x54
   8631a:	9314      	str	r3, [sp, #80]	; 0x50
   8631c:	dd7b      	ble.n	86416 <_vfiprintf_r+0x19e>
   8631e:	2a00      	cmp	r2, #0
   86320:	f040 84d5 	bne.w	86cce <_vfiprintf_r+0xa56>
   86324:	9809      	ldr	r0, [sp, #36]	; 0x24
   86326:	9214      	str	r2, [sp, #80]	; 0x50
   86328:	4428      	add	r0, r5
   8632a:	464e      	mov	r6, r9
   8632c:	9009      	str	r0, [sp, #36]	; 0x24
   8632e:	7823      	ldrb	r3, [r4, #0]
   86330:	2b00      	cmp	r3, #0
   86332:	f000 83ed 	beq.w	86b10 <_vfiprintf_r+0x898>
   86336:	2100      	movs	r1, #0
   86338:	f04f 0200 	mov.w	r2, #0
   8633c:	f04f 3cff 	mov.w	ip, #4294967295
   86340:	7863      	ldrb	r3, [r4, #1]
   86342:	f88d 2047 	strb.w	r2, [sp, #71]	; 0x47
   86346:	9104      	str	r1, [sp, #16]
   86348:	468a      	mov	sl, r1
   8634a:	f104 0801 	add.w	r8, r4, #1
   8634e:	4608      	mov	r0, r1
   86350:	4665      	mov	r5, ip
   86352:	f108 0801 	add.w	r8, r8, #1
   86356:	f1a3 0220 	sub.w	r2, r3, #32
   8635a:	2a58      	cmp	r2, #88	; 0x58
   8635c:	f200 82d9 	bhi.w	86912 <_vfiprintf_r+0x69a>
   86360:	e8df f012 	tbh	[pc, r2, lsl #1]
   86364:	02d702cb 	.word	0x02d702cb
   86368:	02d202d7 	.word	0x02d202d7
   8636c:	02d702d7 	.word	0x02d702d7
   86370:	02d702d7 	.word	0x02d702d7
   86374:	02d702d7 	.word	0x02d702d7
   86378:	028f0282 	.word	0x028f0282
   8637c:	008402d7 	.word	0x008402d7
   86380:	02d70293 	.word	0x02d70293
   86384:	0196012b 	.word	0x0196012b
   86388:	01960196 	.word	0x01960196
   8638c:	01960196 	.word	0x01960196
   86390:	01960196 	.word	0x01960196
   86394:	01960196 	.word	0x01960196
   86398:	02d702d7 	.word	0x02d702d7
   8639c:	02d702d7 	.word	0x02d702d7
   863a0:	02d702d7 	.word	0x02d702d7
   863a4:	02d702d7 	.word	0x02d702d7
   863a8:	02d702d7 	.word	0x02d702d7
   863ac:	02d70130 	.word	0x02d70130
   863b0:	02d702d7 	.word	0x02d702d7
   863b4:	02d702d7 	.word	0x02d702d7
   863b8:	02d702d7 	.word	0x02d702d7
   863bc:	02d702d7 	.word	0x02d702d7
   863c0:	017b02d7 	.word	0x017b02d7
   863c4:	02d702d7 	.word	0x02d702d7
   863c8:	02d702d7 	.word	0x02d702d7
   863cc:	01a402d7 	.word	0x01a402d7
   863d0:	02d702d7 	.word	0x02d702d7
   863d4:	02d701bf 	.word	0x02d701bf
   863d8:	02d702d7 	.word	0x02d702d7
   863dc:	02d702d7 	.word	0x02d702d7
   863e0:	02d702d7 	.word	0x02d702d7
   863e4:	02d702d7 	.word	0x02d702d7
   863e8:	01e402d7 	.word	0x01e402d7
   863ec:	02d701fa 	.word	0x02d701fa
   863f0:	02d702d7 	.word	0x02d702d7
   863f4:	01fa0216 	.word	0x01fa0216
   863f8:	02d702d7 	.word	0x02d702d7
   863fc:	02d7021b 	.word	0x02d7021b
   86400:	00890228 	.word	0x00890228
   86404:	027d0266 	.word	0x027d0266
   86408:	023a02d7 	.word	0x023a02d7
   8640c:	011902d7 	.word	0x011902d7
   86410:	02d702d7 	.word	0x02d702d7
   86414:	02af      	.short	0x02af
   86416:	3608      	adds	r6, #8
   86418:	9809      	ldr	r0, [sp, #36]	; 0x24
   8641a:	4428      	add	r0, r5
   8641c:	9009      	str	r0, [sp, #36]	; 0x24
   8641e:	e786      	b.n	8632e <_vfiprintf_r+0xb6>
   86420:	9806      	ldr	r0, [sp, #24]
   86422:	9902      	ldr	r1, [sp, #8]
   86424:	f000 fd90 	bl	86f48 <__swsetup_r>
   86428:	b9b0      	cbnz	r0, 86458 <_vfiprintf_r+0x1e0>
   8642a:	9d02      	ldr	r5, [sp, #8]
   8642c:	89aa      	ldrh	r2, [r5, #12]
   8642e:	f002 021a 	and.w	r2, r2, #26
   86432:	2a0a      	cmp	r2, #10
   86434:	f47f af49 	bne.w	862ca <_vfiprintf_r+0x52>
   86438:	f8dd b008 	ldr.w	fp, [sp, #8]
   8643c:	f9bb 300e 	ldrsh.w	r3, [fp, #14]
   86440:	2b00      	cmp	r3, #0
   86442:	f6ff af42 	blt.w	862ca <_vfiprintf_r+0x52>
   86446:	9806      	ldr	r0, [sp, #24]
   86448:	4659      	mov	r1, fp
   8644a:	4642      	mov	r2, r8
   8644c:	4623      	mov	r3, r4
   8644e:	f000 fd3d 	bl	86ecc <__sbprintf>
   86452:	b031      	add	sp, #196	; 0xc4
   86454:	e8bd 8ff0 	ldmia.w	sp!, {r4, r5, r6, r7, r8, r9, sl, fp, pc}
   86458:	f04f 30ff 	mov.w	r0, #4294967295
   8645c:	b031      	add	sp, #196	; 0xc4
   8645e:	e8bd 8ff0 	ldmia.w	sp!, {r4, r5, r6, r7, r8, r9, sl, fp, pc}
   86462:	f001 fe59 	bl	88118 <__sinit>
   86466:	e714      	b.n	86292 <_vfiprintf_r+0x1a>
   86468:	4240      	negs	r0, r0
   8646a:	9308      	str	r3, [sp, #32]
   8646c:	f04a 0a04 	orr.w	sl, sl, #4
   86470:	f898 3000 	ldrb.w	r3, [r8]
   86474:	e76d      	b.n	86352 <_vfiprintf_r+0xda>
   86476:	f01a 0320 	ands.w	r3, sl, #32
   8647a:	9004      	str	r0, [sp, #16]
   8647c:	46ac      	mov	ip, r5
   8647e:	f000 80f4 	beq.w	8666a <_vfiprintf_r+0x3f2>
   86482:	f8dd b020 	ldr.w	fp, [sp, #32]
   86486:	f10b 0307 	add.w	r3, fp, #7
   8648a:	f023 0307 	bic.w	r3, r3, #7
   8648e:	f103 0408 	add.w	r4, r3, #8
   86492:	9408      	str	r4, [sp, #32]
   86494:	e9d3 4500 	ldrd	r4, r5, [r3]
   86498:	2300      	movs	r3, #0
   8649a:	f04f 0000 	mov.w	r0, #0
   8649e:	2100      	movs	r1, #0
   864a0:	f88d 0047 	strb.w	r0, [sp, #71]	; 0x47
   864a4:	f8cd c014 	str.w	ip, [sp, #20]
   864a8:	9107      	str	r1, [sp, #28]
   864aa:	f1bc 0f00 	cmp.w	ip, #0
   864ae:	bfa8      	it	ge
   864b0:	f02a 0a80 	bicge.w	sl, sl, #128	; 0x80
   864b4:	ea54 0205 	orrs.w	r2, r4, r5
   864b8:	f040 80ad 	bne.w	86616 <_vfiprintf_r+0x39e>
   864bc:	f1bc 0f00 	cmp.w	ip, #0
   864c0:	f040 80a9 	bne.w	86616 <_vfiprintf_r+0x39e>
   864c4:	2b00      	cmp	r3, #0
   864c6:	f040 83c0 	bne.w	86c4a <_vfiprintf_r+0x9d2>
   864ca:	f01a 0f01 	tst.w	sl, #1
   864ce:	f000 83bc 	beq.w	86c4a <_vfiprintf_r+0x9d2>
   864d2:	2330      	movs	r3, #48	; 0x30
   864d4:	af30      	add	r7, sp, #192	; 0xc0
   864d6:	f807 3d41 	strb.w	r3, [r7, #-65]!
   864da:	ebc7 0409 	rsb	r4, r7, r9
   864de:	9405      	str	r4, [sp, #20]
   864e0:	f8dd b014 	ldr.w	fp, [sp, #20]
   864e4:	9c07      	ldr	r4, [sp, #28]
   864e6:	45e3      	cmp	fp, ip
   864e8:	bfb8      	it	lt
   864ea:	46e3      	movlt	fp, ip
   864ec:	f8cd b00c 	str.w	fp, [sp, #12]
   864f0:	b11c      	cbz	r4, 864fa <_vfiprintf_r+0x282>
   864f2:	f10b 0b01 	add.w	fp, fp, #1
   864f6:	f8cd b00c 	str.w	fp, [sp, #12]
   864fa:	f01a 0502 	ands.w	r5, sl, #2
   864fe:	9507      	str	r5, [sp, #28]
   86500:	d005      	beq.n	8650e <_vfiprintf_r+0x296>
   86502:	f8dd b00c 	ldr.w	fp, [sp, #12]
   86506:	f10b 0b02 	add.w	fp, fp, #2
   8650a:	f8cd b00c 	str.w	fp, [sp, #12]
   8650e:	f01a 0384 	ands.w	r3, sl, #132	; 0x84
   86512:	930b      	str	r3, [sp, #44]	; 0x2c
   86514:	f040 821b 	bne.w	8694e <_vfiprintf_r+0x6d6>
   86518:	9d04      	ldr	r5, [sp, #16]
   8651a:	f8dd b00c 	ldr.w	fp, [sp, #12]
   8651e:	ebcb 0405 	rsb	r4, fp, r5
   86522:	2c00      	cmp	r4, #0
   86524:	f340 8213 	ble.w	8694e <_vfiprintf_r+0x6d6>
   86528:	2c10      	cmp	r4, #16
   8652a:	f340 8489 	ble.w	86e40 <_vfiprintf_r+0xbc8>
   8652e:	4dbe      	ldr	r5, [pc, #760]	; (86828 <_vfiprintf_r+0x5b0>)
   86530:	9a15      	ldr	r2, [sp, #84]	; 0x54
   86532:	462b      	mov	r3, r5
   86534:	9814      	ldr	r0, [sp, #80]	; 0x50
   86536:	4625      	mov	r5, r4
   86538:	f04f 0b10 	mov.w	fp, #16
   8653c:	4664      	mov	r4, ip
   8653e:	46b4      	mov	ip, r6
   86540:	461e      	mov	r6, r3
   86542:	e006      	b.n	86552 <_vfiprintf_r+0x2da>
   86544:	1c83      	adds	r3, r0, #2
   86546:	f10c 0c08 	add.w	ip, ip, #8
   8654a:	4608      	mov	r0, r1
   8654c:	3d10      	subs	r5, #16
   8654e:	2d10      	cmp	r5, #16
   86550:	dd11      	ble.n	86576 <_vfiprintf_r+0x2fe>
   86552:	1c41      	adds	r1, r0, #1
   86554:	3210      	adds	r2, #16
   86556:	2907      	cmp	r1, #7
   86558:	9215      	str	r2, [sp, #84]	; 0x54
   8655a:	e88c 0840 	stmia.w	ip, {r6, fp}
   8655e:	9114      	str	r1, [sp, #80]	; 0x50
   86560:	ddf0      	ble.n	86544 <_vfiprintf_r+0x2cc>
   86562:	2a00      	cmp	r2, #0
   86564:	f040 81e6 	bne.w	86934 <_vfiprintf_r+0x6bc>
   86568:	3d10      	subs	r5, #16
   8656a:	2d10      	cmp	r5, #16
   8656c:	f04f 0301 	mov.w	r3, #1
   86570:	4610      	mov	r0, r2
   86572:	46cc      	mov	ip, r9
   86574:	dced      	bgt.n	86552 <_vfiprintf_r+0x2da>
   86576:	4631      	mov	r1, r6
   86578:	4666      	mov	r6, ip
   8657a:	46a4      	mov	ip, r4
   8657c:	462c      	mov	r4, r5
   8657e:	460d      	mov	r5, r1
   86580:	4422      	add	r2, r4
   86582:	2b07      	cmp	r3, #7
   86584:	9215      	str	r2, [sp, #84]	; 0x54
   86586:	6035      	str	r5, [r6, #0]
   86588:	6074      	str	r4, [r6, #4]
   8658a:	9314      	str	r3, [sp, #80]	; 0x50
   8658c:	f300 836d 	bgt.w	86c6a <_vfiprintf_r+0x9f2>
   86590:	3608      	adds	r6, #8
   86592:	1c59      	adds	r1, r3, #1
   86594:	e1de      	b.n	86954 <_vfiprintf_r+0x6dc>
   86596:	f01a 0f20 	tst.w	sl, #32
   8659a:	9004      	str	r0, [sp, #16]
   8659c:	46ac      	mov	ip, r5
   8659e:	f000 808d 	beq.w	866bc <_vfiprintf_r+0x444>
   865a2:	9d08      	ldr	r5, [sp, #32]
   865a4:	1deb      	adds	r3, r5, #7
   865a6:	f023 0307 	bic.w	r3, r3, #7
   865aa:	f103 0b08 	add.w	fp, r3, #8
   865ae:	e9d3 4500 	ldrd	r4, r5, [r3]
   865b2:	f8cd b020 	str.w	fp, [sp, #32]
   865b6:	2301      	movs	r3, #1
   865b8:	e76f      	b.n	8649a <_vfiprintf_r+0x222>
   865ba:	f04a 0a80 	orr.w	sl, sl, #128	; 0x80
   865be:	f898 3000 	ldrb.w	r3, [r8]
   865c2:	e6c6      	b.n	86352 <_vfiprintf_r+0xda>
   865c4:	f04a 0a10 	orr.w	sl, sl, #16
   865c8:	f01a 0f20 	tst.w	sl, #32
   865cc:	9004      	str	r0, [sp, #16]
   865ce:	46ac      	mov	ip, r5
   865d0:	f88d 1047 	strb.w	r1, [sp, #71]	; 0x47
   865d4:	f000 80c8 	beq.w	86768 <_vfiprintf_r+0x4f0>
   865d8:	9c08      	ldr	r4, [sp, #32]
   865da:	1de1      	adds	r1, r4, #7
   865dc:	f021 0107 	bic.w	r1, r1, #7
   865e0:	e9d1 2300 	ldrd	r2, r3, [r1]
   865e4:	3108      	adds	r1, #8
   865e6:	9108      	str	r1, [sp, #32]
   865e8:	4614      	mov	r4, r2
   865ea:	461d      	mov	r5, r3
   865ec:	2a00      	cmp	r2, #0
   865ee:	f173 0b00 	sbcs.w	fp, r3, #0
   865f2:	f2c0 83ce 	blt.w	86d92 <_vfiprintf_r+0xb1a>
   865f6:	f1bc 0f00 	cmp.w	ip, #0
   865fa:	f89d 0047 	ldrb.w	r0, [sp, #71]	; 0x47
   865fe:	bfa8      	it	ge
   86600:	f02a 0a80 	bicge.w	sl, sl, #128	; 0x80
   86604:	ea54 0205 	orrs.w	r2, r4, r5
   86608:	9007      	str	r0, [sp, #28]
   8660a:	f8cd c014 	str.w	ip, [sp, #20]
   8660e:	f04f 0301 	mov.w	r3, #1
   86612:	f43f af53 	beq.w	864bc <_vfiprintf_r+0x244>
   86616:	2b01      	cmp	r3, #1
   86618:	f000 8319 	beq.w	86c4e <_vfiprintf_r+0x9d6>
   8661c:	2b02      	cmp	r3, #2
   8661e:	f10d 037f 	add.w	r3, sp, #127	; 0x7f
   86622:	f040 824c 	bne.w	86abe <_vfiprintf_r+0x846>
   86626:	f8dd b028 	ldr.w	fp, [sp, #40]	; 0x28
   8662a:	4619      	mov	r1, r3
   8662c:	f004 000f 	and.w	r0, r4, #15
   86630:	0922      	lsrs	r2, r4, #4
   86632:	f81b 0000 	ldrb.w	r0, [fp, r0]
   86636:	ea42 7205 	orr.w	r2, r2, r5, lsl #28
   8663a:	092b      	lsrs	r3, r5, #4
   8663c:	7008      	strb	r0, [r1, #0]
   8663e:	ea52 0003 	orrs.w	r0, r2, r3
   86642:	460f      	mov	r7, r1
   86644:	4614      	mov	r4, r2
   86646:	461d      	mov	r5, r3
   86648:	f101 31ff 	add.w	r1, r1, #4294967295
   8664c:	d1ee      	bne.n	8662c <_vfiprintf_r+0x3b4>
   8664e:	e9cd 230e 	strd	r2, r3, [sp, #56]	; 0x38
   86652:	ebc7 0309 	rsb	r3, r7, r9
   86656:	9305      	str	r3, [sp, #20]
   86658:	e742      	b.n	864e0 <_vfiprintf_r+0x268>
   8665a:	f04a 0a10 	orr.w	sl, sl, #16
   8665e:	f01a 0320 	ands.w	r3, sl, #32
   86662:	9004      	str	r0, [sp, #16]
   86664:	46ac      	mov	ip, r5
   86666:	f47f af0c 	bne.w	86482 <_vfiprintf_r+0x20a>
   8666a:	f01a 0210 	ands.w	r2, sl, #16
   8666e:	f040 8311 	bne.w	86c94 <_vfiprintf_r+0xa1c>
   86672:	f01a 0340 	ands.w	r3, sl, #64	; 0x40
   86676:	f000 830d 	beq.w	86c94 <_vfiprintf_r+0xa1c>
   8667a:	f8dd b020 	ldr.w	fp, [sp, #32]
   8667e:	4613      	mov	r3, r2
   86680:	f8bb 4000 	ldrh.w	r4, [fp]
   86684:	f10b 0b04 	add.w	fp, fp, #4
   86688:	2500      	movs	r5, #0
   8668a:	f8cd b020 	str.w	fp, [sp, #32]
   8668e:	e704      	b.n	8649a <_vfiprintf_r+0x222>
   86690:	f1a3 0230 	sub.w	r2, r3, #48	; 0x30
   86694:	2000      	movs	r0, #0
   86696:	f818 3b01 	ldrb.w	r3, [r8], #1
   8669a:	eb00 0080 	add.w	r0, r0, r0, lsl #2
   8669e:	eb02 0040 	add.w	r0, r2, r0, lsl #1
   866a2:	f1a3 0230 	sub.w	r2, r3, #48	; 0x30
   866a6:	2a09      	cmp	r2, #9
   866a8:	d9f5      	bls.n	86696 <_vfiprintf_r+0x41e>
   866aa:	e654      	b.n	86356 <_vfiprintf_r+0xde>
   866ac:	f04a 0a10 	orr.w	sl, sl, #16
   866b0:	f01a 0f20 	tst.w	sl, #32
   866b4:	9004      	str	r0, [sp, #16]
   866b6:	46ac      	mov	ip, r5
   866b8:	f47f af73 	bne.w	865a2 <_vfiprintf_r+0x32a>
   866bc:	f01a 0f10 	tst.w	sl, #16
   866c0:	f040 82ef 	bne.w	86ca2 <_vfiprintf_r+0xa2a>
   866c4:	f01a 0f40 	tst.w	sl, #64	; 0x40
   866c8:	f000 82eb 	beq.w	86ca2 <_vfiprintf_r+0xa2a>
   866cc:	f8dd b020 	ldr.w	fp, [sp, #32]
   866d0:	2500      	movs	r5, #0
   866d2:	f8bb 4000 	ldrh.w	r4, [fp]
   866d6:	f10b 0b04 	add.w	fp, fp, #4
   866da:	2301      	movs	r3, #1
   866dc:	f8cd b020 	str.w	fp, [sp, #32]
   866e0:	e6db      	b.n	8649a <_vfiprintf_r+0x222>
   866e2:	46ac      	mov	ip, r5
   866e4:	4d51      	ldr	r5, [pc, #324]	; (8682c <_vfiprintf_r+0x5b4>)
   866e6:	f01a 0f20 	tst.w	sl, #32
   866ea:	9004      	str	r0, [sp, #16]
   866ec:	f88d 1047 	strb.w	r1, [sp, #71]	; 0x47
   866f0:	950a      	str	r5, [sp, #40]	; 0x28
   866f2:	f000 80f0 	beq.w	868d6 <_vfiprintf_r+0x65e>
   866f6:	9d08      	ldr	r5, [sp, #32]
   866f8:	1dea      	adds	r2, r5, #7
   866fa:	f022 0207 	bic.w	r2, r2, #7
   866fe:	f102 0b08 	add.w	fp, r2, #8
   86702:	f8cd b020 	str.w	fp, [sp, #32]
   86706:	e9d2 4500 	ldrd	r4, r5, [r2]
   8670a:	f01a 0f01 	tst.w	sl, #1
   8670e:	f000 82aa 	beq.w	86c66 <_vfiprintf_r+0x9ee>
   86712:	ea54 0b05 	orrs.w	fp, r4, r5
   86716:	f000 82a6 	beq.w	86c66 <_vfiprintf_r+0x9ee>
   8671a:	2230      	movs	r2, #48	; 0x30
   8671c:	f88d 3049 	strb.w	r3, [sp, #73]	; 0x49
   86720:	f04a 0a02 	orr.w	sl, sl, #2
   86724:	f88d 2048 	strb.w	r2, [sp, #72]	; 0x48
   86728:	2302      	movs	r3, #2
   8672a:	e6b6      	b.n	8649a <_vfiprintf_r+0x222>
   8672c:	9b08      	ldr	r3, [sp, #32]
   8672e:	f8dd b020 	ldr.w	fp, [sp, #32]
   86732:	681b      	ldr	r3, [r3, #0]
   86734:	2401      	movs	r4, #1
   86736:	f04f 0500 	mov.w	r5, #0
   8673a:	f10b 0b04 	add.w	fp, fp, #4
   8673e:	9004      	str	r0, [sp, #16]
   86740:	9403      	str	r4, [sp, #12]
   86742:	f88d 5047 	strb.w	r5, [sp, #71]	; 0x47
   86746:	f88d 3058 	strb.w	r3, [sp, #88]	; 0x58
   8674a:	f8cd b020 	str.w	fp, [sp, #32]
   8674e:	9405      	str	r4, [sp, #20]
   86750:	af16      	add	r7, sp, #88	; 0x58
   86752:	f04f 0c00 	mov.w	ip, #0
   86756:	e6d0      	b.n	864fa <_vfiprintf_r+0x282>
   86758:	f01a 0f20 	tst.w	sl, #32
   8675c:	9004      	str	r0, [sp, #16]
   8675e:	46ac      	mov	ip, r5
   86760:	f88d 1047 	strb.w	r1, [sp, #71]	; 0x47
   86764:	f47f af38 	bne.w	865d8 <_vfiprintf_r+0x360>
   86768:	f01a 0f10 	tst.w	sl, #16
   8676c:	f040 82a7 	bne.w	86cbe <_vfiprintf_r+0xa46>
   86770:	f01a 0f40 	tst.w	sl, #64	; 0x40
   86774:	f000 82a3 	beq.w	86cbe <_vfiprintf_r+0xa46>
   86778:	f8dd b020 	ldr.w	fp, [sp, #32]
   8677c:	f9bb 4000 	ldrsh.w	r4, [fp]
   86780:	f10b 0b04 	add.w	fp, fp, #4
   86784:	17e5      	asrs	r5, r4, #31
   86786:	4622      	mov	r2, r4
   86788:	462b      	mov	r3, r5
   8678a:	f8cd b020 	str.w	fp, [sp, #32]
   8678e:	e72d      	b.n	865ec <_vfiprintf_r+0x374>
   86790:	f04a 0a40 	orr.w	sl, sl, #64	; 0x40
   86794:	f898 3000 	ldrb.w	r3, [r8]
   86798:	e5db      	b.n	86352 <_vfiprintf_r+0xda>
   8679a:	f898 3000 	ldrb.w	r3, [r8]
   8679e:	4642      	mov	r2, r8
   867a0:	2b6c      	cmp	r3, #108	; 0x6c
   867a2:	bf03      	ittte	eq
   867a4:	f108 0801 	addeq.w	r8, r8, #1
   867a8:	f04a 0a20 	orreq.w	sl, sl, #32
   867ac:	7853      	ldrbeq	r3, [r2, #1]
   867ae:	f04a 0a10 	orrne.w	sl, sl, #16
   867b2:	e5ce      	b.n	86352 <_vfiprintf_r+0xda>
   867b4:	f01a 0f20 	tst.w	sl, #32
   867b8:	f88d 1047 	strb.w	r1, [sp, #71]	; 0x47
   867bc:	f000 82f7 	beq.w	86dae <_vfiprintf_r+0xb36>
   867c0:	9c08      	ldr	r4, [sp, #32]
   867c2:	6821      	ldr	r1, [r4, #0]
   867c4:	9c09      	ldr	r4, [sp, #36]	; 0x24
   867c6:	17e5      	asrs	r5, r4, #31
   867c8:	462b      	mov	r3, r5
   867ca:	9d08      	ldr	r5, [sp, #32]
   867cc:	4622      	mov	r2, r4
   867ce:	3504      	adds	r5, #4
   867d0:	9508      	str	r5, [sp, #32]
   867d2:	e9c1 2300 	strd	r2, r3, [r1]
   867d6:	e582      	b.n	862de <_vfiprintf_r+0x66>
   867d8:	9c08      	ldr	r4, [sp, #32]
   867da:	46ac      	mov	ip, r5
   867dc:	6827      	ldr	r7, [r4, #0]
   867de:	f04f 0500 	mov.w	r5, #0
   867e2:	9004      	str	r0, [sp, #16]
   867e4:	f88d 5047 	strb.w	r5, [sp, #71]	; 0x47
   867e8:	3404      	adds	r4, #4
   867ea:	2f00      	cmp	r7, #0
   867ec:	f000 8332 	beq.w	86e54 <_vfiprintf_r+0xbdc>
   867f0:	f1bc 0f00 	cmp.w	ip, #0
   867f4:	4638      	mov	r0, r7
   867f6:	f2c0 8307 	blt.w	86e08 <_vfiprintf_r+0xb90>
   867fa:	4662      	mov	r2, ip
   867fc:	2100      	movs	r1, #0
   867fe:	f8cd c004 	str.w	ip, [sp, #4]
   86802:	f002 fb6b 	bl	88edc <memchr>
   86806:	f8dd c004 	ldr.w	ip, [sp, #4]
   8680a:	2800      	cmp	r0, #0
   8680c:	f000 833a 	beq.w	86e84 <_vfiprintf_r+0xc0c>
   86810:	1bc0      	subs	r0, r0, r7
   86812:	f89d 5047 	ldrb.w	r5, [sp, #71]	; 0x47
   86816:	4560      	cmp	r0, ip
   86818:	bfa8      	it	ge
   8681a:	4660      	movge	r0, ip
   8681c:	9005      	str	r0, [sp, #20]
   8681e:	9408      	str	r4, [sp, #32]
   86820:	9507      	str	r5, [sp, #28]
   86822:	f04f 0c00 	mov.w	ip, #0
   86826:	e65b      	b.n	864e0 <_vfiprintf_r+0x268>
   86828:	0008a9f8 	.word	0x0008a9f8
   8682c:	0008a9a8 	.word	0x0008a9a8
   86830:	9b08      	ldr	r3, [sp, #32]
   86832:	f8dd b020 	ldr.w	fp, [sp, #32]
   86836:	9004      	str	r0, [sp, #16]
   86838:	48b2      	ldr	r0, [pc, #712]	; (86b04 <_vfiprintf_r+0x88c>)
   8683a:	681c      	ldr	r4, [r3, #0]
   8683c:	2230      	movs	r2, #48	; 0x30
   8683e:	2378      	movs	r3, #120	; 0x78
   86840:	f10b 0b04 	add.w	fp, fp, #4
   86844:	46ac      	mov	ip, r5
   86846:	f88d 3049 	strb.w	r3, [sp, #73]	; 0x49
   8684a:	f04a 0a02 	orr.w	sl, sl, #2
   8684e:	f8cd b020 	str.w	fp, [sp, #32]
   86852:	2500      	movs	r5, #0
   86854:	f88d 2048 	strb.w	r2, [sp, #72]	; 0x48
   86858:	900a      	str	r0, [sp, #40]	; 0x28
   8685a:	2302      	movs	r3, #2
   8685c:	e61d      	b.n	8649a <_vfiprintf_r+0x222>
   8685e:	f04a 0a20 	orr.w	sl, sl, #32
   86862:	f898 3000 	ldrb.w	r3, [r8]
   86866:	e574      	b.n	86352 <_vfiprintf_r+0xda>
   86868:	f8dd b020 	ldr.w	fp, [sp, #32]
   8686c:	f8db 0000 	ldr.w	r0, [fp]
   86870:	f10b 0304 	add.w	r3, fp, #4
   86874:	2800      	cmp	r0, #0
   86876:	f6ff adf7 	blt.w	86468 <_vfiprintf_r+0x1f0>
   8687a:	9308      	str	r3, [sp, #32]
   8687c:	f898 3000 	ldrb.w	r3, [r8]
   86880:	e567      	b.n	86352 <_vfiprintf_r+0xda>
   86882:	f898 3000 	ldrb.w	r3, [r8]
   86886:	212b      	movs	r1, #43	; 0x2b
   86888:	e563      	b.n	86352 <_vfiprintf_r+0xda>
   8688a:	f898 3000 	ldrb.w	r3, [r8]
   8688e:	f108 0401 	add.w	r4, r8, #1
   86892:	2b2a      	cmp	r3, #42	; 0x2a
   86894:	f000 8305 	beq.w	86ea2 <_vfiprintf_r+0xc2a>
   86898:	f1a3 0230 	sub.w	r2, r3, #48	; 0x30
   8689c:	2a09      	cmp	r2, #9
   8689e:	bf98      	it	ls
   868a0:	2500      	movls	r5, #0
   868a2:	f200 82fa 	bhi.w	86e9a <_vfiprintf_r+0xc22>
   868a6:	f814 3b01 	ldrb.w	r3, [r4], #1
   868aa:	eb05 0585 	add.w	r5, r5, r5, lsl #2
   868ae:	eb02 0545 	add.w	r5, r2, r5, lsl #1
   868b2:	f1a3 0230 	sub.w	r2, r3, #48	; 0x30
   868b6:	2a09      	cmp	r2, #9
   868b8:	d9f5      	bls.n	868a6 <_vfiprintf_r+0x62e>
   868ba:	ea45 75e5 	orr.w	r5, r5, r5, asr #31
   868be:	46a0      	mov	r8, r4
   868c0:	e549      	b.n	86356 <_vfiprintf_r+0xde>
   868c2:	4c90      	ldr	r4, [pc, #576]	; (86b04 <_vfiprintf_r+0x88c>)
   868c4:	f01a 0f20 	tst.w	sl, #32
   868c8:	9004      	str	r0, [sp, #16]
   868ca:	46ac      	mov	ip, r5
   868cc:	940a      	str	r4, [sp, #40]	; 0x28
   868ce:	f88d 1047 	strb.w	r1, [sp, #71]	; 0x47
   868d2:	f47f af10 	bne.w	866f6 <_vfiprintf_r+0x47e>
   868d6:	f01a 0f10 	tst.w	sl, #16
   868da:	f040 81ea 	bne.w	86cb2 <_vfiprintf_r+0xa3a>
   868de:	f01a 0f40 	tst.w	sl, #64	; 0x40
   868e2:	f000 81e6 	beq.w	86cb2 <_vfiprintf_r+0xa3a>
   868e6:	f8dd b020 	ldr.w	fp, [sp, #32]
   868ea:	2500      	movs	r5, #0
   868ec:	f8bb 4000 	ldrh.w	r4, [fp]
   868f0:	f10b 0b04 	add.w	fp, fp, #4
   868f4:	f8cd b020 	str.w	fp, [sp, #32]
   868f8:	e707      	b.n	8670a <_vfiprintf_r+0x492>
   868fa:	f898 3000 	ldrb.w	r3, [r8]
   868fe:	2900      	cmp	r1, #0
   86900:	f47f ad27 	bne.w	86352 <_vfiprintf_r+0xda>
   86904:	2120      	movs	r1, #32
   86906:	e524      	b.n	86352 <_vfiprintf_r+0xda>
   86908:	f04a 0a01 	orr.w	sl, sl, #1
   8690c:	f898 3000 	ldrb.w	r3, [r8]
   86910:	e51f      	b.n	86352 <_vfiprintf_r+0xda>
   86912:	9004      	str	r0, [sp, #16]
   86914:	f88d 1047 	strb.w	r1, [sp, #71]	; 0x47
   86918:	2b00      	cmp	r3, #0
   8691a:	f000 80f9 	beq.w	86b10 <_vfiprintf_r+0x898>
   8691e:	2501      	movs	r5, #1
   86920:	f04f 0b00 	mov.w	fp, #0
   86924:	9503      	str	r5, [sp, #12]
   86926:	f88d 3058 	strb.w	r3, [sp, #88]	; 0x58
   8692a:	f88d b047 	strb.w	fp, [sp, #71]	; 0x47
   8692e:	9505      	str	r5, [sp, #20]
   86930:	af16      	add	r7, sp, #88	; 0x58
   86932:	e70e      	b.n	86752 <_vfiprintf_r+0x4da>
   86934:	9806      	ldr	r0, [sp, #24]
   86936:	9902      	ldr	r1, [sp, #8]
   86938:	aa13      	add	r2, sp, #76	; 0x4c
   8693a:	f7ff fc61 	bl	86200 <__sprint_r.part.0>
   8693e:	2800      	cmp	r0, #0
   86940:	f040 80ed 	bne.w	86b1e <_vfiprintf_r+0x8a6>
   86944:	9814      	ldr	r0, [sp, #80]	; 0x50
   86946:	9a15      	ldr	r2, [sp, #84]	; 0x54
   86948:	1c43      	adds	r3, r0, #1
   8694a:	46cc      	mov	ip, r9
   8694c:	e5fe      	b.n	8654c <_vfiprintf_r+0x2d4>
   8694e:	9b14      	ldr	r3, [sp, #80]	; 0x50
   86950:	9a15      	ldr	r2, [sp, #84]	; 0x54
   86952:	1c59      	adds	r1, r3, #1
   86954:	f89d 0047 	ldrb.w	r0, [sp, #71]	; 0x47
   86958:	b168      	cbz	r0, 86976 <_vfiprintf_r+0x6fe>
   8695a:	3201      	adds	r2, #1
   8695c:	f10d 0047 	add.w	r0, sp, #71	; 0x47
   86960:	2301      	movs	r3, #1
   86962:	2907      	cmp	r1, #7
   86964:	9215      	str	r2, [sp, #84]	; 0x54
   86966:	9114      	str	r1, [sp, #80]	; 0x50
   86968:	e886 0009 	stmia.w	r6, {r0, r3}
   8696c:	f300 8160 	bgt.w	86c30 <_vfiprintf_r+0x9b8>
   86970:	460b      	mov	r3, r1
   86972:	3608      	adds	r6, #8
   86974:	3101      	adds	r1, #1
   86976:	9c07      	ldr	r4, [sp, #28]
   86978:	b164      	cbz	r4, 86994 <_vfiprintf_r+0x71c>
   8697a:	3202      	adds	r2, #2
   8697c:	a812      	add	r0, sp, #72	; 0x48
   8697e:	2302      	movs	r3, #2
   86980:	2907      	cmp	r1, #7
   86982:	9215      	str	r2, [sp, #84]	; 0x54
   86984:	9114      	str	r1, [sp, #80]	; 0x50
   86986:	e886 0009 	stmia.w	r6, {r0, r3}
   8698a:	f300 8157 	bgt.w	86c3c <_vfiprintf_r+0x9c4>
   8698e:	460b      	mov	r3, r1
   86990:	3608      	adds	r6, #8
   86992:	3101      	adds	r1, #1
   86994:	9d0b      	ldr	r5, [sp, #44]	; 0x2c
   86996:	2d80      	cmp	r5, #128	; 0x80
   86998:	f000 8101 	beq.w	86b9e <_vfiprintf_r+0x926>
   8699c:	9d05      	ldr	r5, [sp, #20]
   8699e:	ebc5 040c 	rsb	r4, r5, ip
   869a2:	2c00      	cmp	r4, #0
   869a4:	dd2f      	ble.n	86a06 <_vfiprintf_r+0x78e>
   869a6:	2c10      	cmp	r4, #16
   869a8:	4d57      	ldr	r5, [pc, #348]	; (86b08 <_vfiprintf_r+0x890>)
   869aa:	dd22      	ble.n	869f2 <_vfiprintf_r+0x77a>
   869ac:	4630      	mov	r0, r6
   869ae:	f04f 0b10 	mov.w	fp, #16
   869b2:	462e      	mov	r6, r5
   869b4:	4625      	mov	r5, r4
   869b6:	9c06      	ldr	r4, [sp, #24]
   869b8:	e006      	b.n	869c8 <_vfiprintf_r+0x750>
   869ba:	f103 0c02 	add.w	ip, r3, #2
   869be:	3008      	adds	r0, #8
   869c0:	460b      	mov	r3, r1
   869c2:	3d10      	subs	r5, #16
   869c4:	2d10      	cmp	r5, #16
   869c6:	dd10      	ble.n	869ea <_vfiprintf_r+0x772>
   869c8:	1c59      	adds	r1, r3, #1
   869ca:	3210      	adds	r2, #16
   869cc:	2907      	cmp	r1, #7
   869ce:	9215      	str	r2, [sp, #84]	; 0x54
   869d0:	e880 0840 	stmia.w	r0, {r6, fp}
   869d4:	9114      	str	r1, [sp, #80]	; 0x50
   869d6:	ddf0      	ble.n	869ba <_vfiprintf_r+0x742>
   869d8:	2a00      	cmp	r2, #0
   869da:	d163      	bne.n	86aa4 <_vfiprintf_r+0x82c>
   869dc:	3d10      	subs	r5, #16
   869de:	2d10      	cmp	r5, #16
   869e0:	f04f 0c01 	mov.w	ip, #1
   869e4:	4613      	mov	r3, r2
   869e6:	4648      	mov	r0, r9
   869e8:	dcee      	bgt.n	869c8 <_vfiprintf_r+0x750>
   869ea:	462c      	mov	r4, r5
   869ec:	4661      	mov	r1, ip
   869ee:	4635      	mov	r5, r6
   869f0:	4606      	mov	r6, r0
   869f2:	4422      	add	r2, r4
   869f4:	2907      	cmp	r1, #7
   869f6:	9215      	str	r2, [sp, #84]	; 0x54
   869f8:	6035      	str	r5, [r6, #0]
   869fa:	6074      	str	r4, [r6, #4]
   869fc:	9114      	str	r1, [sp, #80]	; 0x50
   869fe:	f300 80c1 	bgt.w	86b84 <_vfiprintf_r+0x90c>
   86a02:	3608      	adds	r6, #8
   86a04:	3101      	adds	r1, #1
   86a06:	9d05      	ldr	r5, [sp, #20]
   86a08:	2907      	cmp	r1, #7
   86a0a:	442a      	add	r2, r5
   86a0c:	9215      	str	r2, [sp, #84]	; 0x54
   86a0e:	6037      	str	r7, [r6, #0]
   86a10:	6075      	str	r5, [r6, #4]
   86a12:	9114      	str	r1, [sp, #80]	; 0x50
   86a14:	f340 80c1 	ble.w	86b9a <_vfiprintf_r+0x922>
   86a18:	2a00      	cmp	r2, #0
   86a1a:	f040 8130 	bne.w	86c7e <_vfiprintf_r+0xa06>
   86a1e:	9214      	str	r2, [sp, #80]	; 0x50
   86a20:	464e      	mov	r6, r9
   86a22:	f01a 0f04 	tst.w	sl, #4
   86a26:	f000 808b 	beq.w	86b40 <_vfiprintf_r+0x8c8>
   86a2a:	9d04      	ldr	r5, [sp, #16]
   86a2c:	f8dd b00c 	ldr.w	fp, [sp, #12]
   86a30:	ebcb 0405 	rsb	r4, fp, r5
   86a34:	2c00      	cmp	r4, #0
   86a36:	f340 8083 	ble.w	86b40 <_vfiprintf_r+0x8c8>
   86a3a:	2c10      	cmp	r4, #16
   86a3c:	f340 821e 	ble.w	86e7c <_vfiprintf_r+0xc04>
   86a40:	9914      	ldr	r1, [sp, #80]	; 0x50
   86a42:	4d32      	ldr	r5, [pc, #200]	; (86b0c <_vfiprintf_r+0x894>)
   86a44:	2710      	movs	r7, #16
   86a46:	f8dd a018 	ldr.w	sl, [sp, #24]
   86a4a:	f8dd b008 	ldr.w	fp, [sp, #8]
   86a4e:	e005      	b.n	86a5c <_vfiprintf_r+0x7e4>
   86a50:	1c88      	adds	r0, r1, #2
   86a52:	3608      	adds	r6, #8
   86a54:	4619      	mov	r1, r3
   86a56:	3c10      	subs	r4, #16
   86a58:	2c10      	cmp	r4, #16
   86a5a:	dd10      	ble.n	86a7e <_vfiprintf_r+0x806>
   86a5c:	1c4b      	adds	r3, r1, #1
   86a5e:	3210      	adds	r2, #16
   86a60:	2b07      	cmp	r3, #7
   86a62:	9215      	str	r2, [sp, #84]	; 0x54
   86a64:	e886 00a0 	stmia.w	r6, {r5, r7}
   86a68:	9314      	str	r3, [sp, #80]	; 0x50
   86a6a:	ddf1      	ble.n	86a50 <_vfiprintf_r+0x7d8>
   86a6c:	2a00      	cmp	r2, #0
   86a6e:	d17d      	bne.n	86b6c <_vfiprintf_r+0x8f4>
   86a70:	3c10      	subs	r4, #16
   86a72:	2c10      	cmp	r4, #16
   86a74:	f04f 0001 	mov.w	r0, #1
   86a78:	4611      	mov	r1, r2
   86a7a:	464e      	mov	r6, r9
   86a7c:	dcee      	bgt.n	86a5c <_vfiprintf_r+0x7e4>
   86a7e:	4422      	add	r2, r4
   86a80:	2807      	cmp	r0, #7
   86a82:	9215      	str	r2, [sp, #84]	; 0x54
   86a84:	6035      	str	r5, [r6, #0]
   86a86:	6074      	str	r4, [r6, #4]
   86a88:	9014      	str	r0, [sp, #80]	; 0x50
   86a8a:	dd59      	ble.n	86b40 <_vfiprintf_r+0x8c8>
   86a8c:	2a00      	cmp	r2, #0
   86a8e:	d14f      	bne.n	86b30 <_vfiprintf_r+0x8b8>
   86a90:	9c09      	ldr	r4, [sp, #36]	; 0x24
   86a92:	f8dd b00c 	ldr.w	fp, [sp, #12]
   86a96:	9d04      	ldr	r5, [sp, #16]
   86a98:	45ab      	cmp	fp, r5
   86a9a:	bfac      	ite	ge
   86a9c:	445c      	addge	r4, fp
   86a9e:	1964      	addlt	r4, r4, r5
   86aa0:	9409      	str	r4, [sp, #36]	; 0x24
   86aa2:	e05e      	b.n	86b62 <_vfiprintf_r+0x8ea>
   86aa4:	4620      	mov	r0, r4
   86aa6:	9902      	ldr	r1, [sp, #8]
   86aa8:	aa13      	add	r2, sp, #76	; 0x4c
   86aaa:	f7ff fba9 	bl	86200 <__sprint_r.part.0>
   86aae:	2800      	cmp	r0, #0
   86ab0:	d135      	bne.n	86b1e <_vfiprintf_r+0x8a6>
   86ab2:	9b14      	ldr	r3, [sp, #80]	; 0x50
   86ab4:	9a15      	ldr	r2, [sp, #84]	; 0x54
   86ab6:	f103 0c01 	add.w	ip, r3, #1
   86aba:	4648      	mov	r0, r9
   86abc:	e781      	b.n	869c2 <_vfiprintf_r+0x74a>
   86abe:	08e0      	lsrs	r0, r4, #3
   86ac0:	ea40 7045 	orr.w	r0, r0, r5, lsl #29
   86ac4:	f004 0207 	and.w	r2, r4, #7
   86ac8:	08e9      	lsrs	r1, r5, #3
   86aca:	3230      	adds	r2, #48	; 0x30
   86acc:	ea50 0b01 	orrs.w	fp, r0, r1
   86ad0:	461f      	mov	r7, r3
   86ad2:	701a      	strb	r2, [r3, #0]
   86ad4:	4604      	mov	r4, r0
   86ad6:	460d      	mov	r5, r1
   86ad8:	f103 33ff 	add.w	r3, r3, #4294967295
   86adc:	d1ef      	bne.n	86abe <_vfiprintf_r+0x846>
   86ade:	f01a 0f01 	tst.w	sl, #1
   86ae2:	e9cd 010c 	strd	r0, r1, [sp, #48]	; 0x30
   86ae6:	4639      	mov	r1, r7
   86ae8:	f000 80b9 	beq.w	86c5e <_vfiprintf_r+0x9e6>
   86aec:	2a30      	cmp	r2, #48	; 0x30
   86aee:	f43f acf4 	beq.w	864da <_vfiprintf_r+0x262>
   86af2:	461f      	mov	r7, r3
   86af4:	ebc7 0509 	rsb	r5, r7, r9
   86af8:	2330      	movs	r3, #48	; 0x30
   86afa:	9505      	str	r5, [sp, #20]
   86afc:	f801 3c01 	strb.w	r3, [r1, #-1]
   86b00:	e4ee      	b.n	864e0 <_vfiprintf_r+0x268>
   86b02:	bf00      	nop
   86b04:	0008a9bc 	.word	0x0008a9bc
   86b08:	0008a9e8 	.word	0x0008a9e8
   86b0c:	0008a9f8 	.word	0x0008a9f8
   86b10:	9b15      	ldr	r3, [sp, #84]	; 0x54
   86b12:	b123      	cbz	r3, 86b1e <_vfiprintf_r+0x8a6>
   86b14:	9806      	ldr	r0, [sp, #24]
   86b16:	9902      	ldr	r1, [sp, #8]
   86b18:	aa13      	add	r2, sp, #76	; 0x4c
   86b1a:	f7ff fb71 	bl	86200 <__sprint_r.part.0>
   86b1e:	9c02      	ldr	r4, [sp, #8]
   86b20:	89a3      	ldrh	r3, [r4, #12]
   86b22:	065b      	lsls	r3, r3, #25
   86b24:	f53f ac98 	bmi.w	86458 <_vfiprintf_r+0x1e0>
   86b28:	9809      	ldr	r0, [sp, #36]	; 0x24
   86b2a:	b031      	add	sp, #196	; 0xc4
   86b2c:	e8bd 8ff0 	ldmia.w	sp!, {r4, r5, r6, r7, r8, r9, sl, fp, pc}
   86b30:	9806      	ldr	r0, [sp, #24]
   86b32:	9902      	ldr	r1, [sp, #8]
   86b34:	aa13      	add	r2, sp, #76	; 0x4c
   86b36:	f7ff fb63 	bl	86200 <__sprint_r.part.0>
   86b3a:	2800      	cmp	r0, #0
   86b3c:	d1ef      	bne.n	86b1e <_vfiprintf_r+0x8a6>
   86b3e:	9a15      	ldr	r2, [sp, #84]	; 0x54
   86b40:	9c09      	ldr	r4, [sp, #36]	; 0x24
   86b42:	f8dd b00c 	ldr.w	fp, [sp, #12]
   86b46:	9d04      	ldr	r5, [sp, #16]
   86b48:	45ab      	cmp	fp, r5
   86b4a:	bfac      	ite	ge
   86b4c:	445c      	addge	r4, fp
   86b4e:	1964      	addlt	r4, r4, r5
   86b50:	9409      	str	r4, [sp, #36]	; 0x24
   86b52:	b132      	cbz	r2, 86b62 <_vfiprintf_r+0x8ea>
   86b54:	9806      	ldr	r0, [sp, #24]
   86b56:	9902      	ldr	r1, [sp, #8]
   86b58:	aa13      	add	r2, sp, #76	; 0x4c
   86b5a:	f7ff fb51 	bl	86200 <__sprint_r.part.0>
   86b5e:	2800      	cmp	r0, #0
   86b60:	d1dd      	bne.n	86b1e <_vfiprintf_r+0x8a6>
   86b62:	2000      	movs	r0, #0
   86b64:	9014      	str	r0, [sp, #80]	; 0x50
   86b66:	464e      	mov	r6, r9
   86b68:	f7ff bbb9 	b.w	862de <_vfiprintf_r+0x66>
   86b6c:	4650      	mov	r0, sl
   86b6e:	4659      	mov	r1, fp
   86b70:	aa13      	add	r2, sp, #76	; 0x4c
   86b72:	f7ff fb45 	bl	86200 <__sprint_r.part.0>
   86b76:	2800      	cmp	r0, #0
   86b78:	d1d1      	bne.n	86b1e <_vfiprintf_r+0x8a6>
   86b7a:	9914      	ldr	r1, [sp, #80]	; 0x50
   86b7c:	9a15      	ldr	r2, [sp, #84]	; 0x54
   86b7e:	1c48      	adds	r0, r1, #1
   86b80:	464e      	mov	r6, r9
   86b82:	e768      	b.n	86a56 <_vfiprintf_r+0x7de>
   86b84:	2a00      	cmp	r2, #0
   86b86:	f040 80f7 	bne.w	86d78 <_vfiprintf_r+0xb00>
   86b8a:	9c05      	ldr	r4, [sp, #20]
   86b8c:	2301      	movs	r3, #1
   86b8e:	9720      	str	r7, [sp, #128]	; 0x80
   86b90:	9421      	str	r4, [sp, #132]	; 0x84
   86b92:	9415      	str	r4, [sp, #84]	; 0x54
   86b94:	4622      	mov	r2, r4
   86b96:	9314      	str	r3, [sp, #80]	; 0x50
   86b98:	464e      	mov	r6, r9
   86b9a:	3608      	adds	r6, #8
   86b9c:	e741      	b.n	86a22 <_vfiprintf_r+0x7aa>
   86b9e:	9d04      	ldr	r5, [sp, #16]
   86ba0:	f8dd b00c 	ldr.w	fp, [sp, #12]
   86ba4:	ebcb 0405 	rsb	r4, fp, r5
   86ba8:	2c00      	cmp	r4, #0
   86baa:	f77f aef7 	ble.w	8699c <_vfiprintf_r+0x724>
   86bae:	2c10      	cmp	r4, #16
   86bb0:	4da6      	ldr	r5, [pc, #664]	; (86e4c <_vfiprintf_r+0xbd4>)
   86bb2:	f340 8170 	ble.w	86e96 <_vfiprintf_r+0xc1e>
   86bb6:	4629      	mov	r1, r5
   86bb8:	f04f 0b10 	mov.w	fp, #16
   86bbc:	4625      	mov	r5, r4
   86bbe:	4664      	mov	r4, ip
   86bc0:	46b4      	mov	ip, r6
   86bc2:	460e      	mov	r6, r1
   86bc4:	e006      	b.n	86bd4 <_vfiprintf_r+0x95c>
   86bc6:	1c98      	adds	r0, r3, #2
   86bc8:	f10c 0c08 	add.w	ip, ip, #8
   86bcc:	460b      	mov	r3, r1
   86bce:	3d10      	subs	r5, #16
   86bd0:	2d10      	cmp	r5, #16
   86bd2:	dd0f      	ble.n	86bf4 <_vfiprintf_r+0x97c>
   86bd4:	1c59      	adds	r1, r3, #1
   86bd6:	3210      	adds	r2, #16
   86bd8:	2907      	cmp	r1, #7
   86bda:	9215      	str	r2, [sp, #84]	; 0x54
   86bdc:	e88c 0840 	stmia.w	ip, {r6, fp}
   86be0:	9114      	str	r1, [sp, #80]	; 0x50
   86be2:	ddf0      	ble.n	86bc6 <_vfiprintf_r+0x94e>
   86be4:	b9ba      	cbnz	r2, 86c16 <_vfiprintf_r+0x99e>
   86be6:	3d10      	subs	r5, #16
   86be8:	2d10      	cmp	r5, #16
   86bea:	f04f 0001 	mov.w	r0, #1
   86bee:	4613      	mov	r3, r2
   86bf0:	46cc      	mov	ip, r9
   86bf2:	dcef      	bgt.n	86bd4 <_vfiprintf_r+0x95c>
   86bf4:	4633      	mov	r3, r6
   86bf6:	4666      	mov	r6, ip
   86bf8:	46a4      	mov	ip, r4
   86bfa:	462c      	mov	r4, r5
   86bfc:	461d      	mov	r5, r3
   86bfe:	4422      	add	r2, r4
   86c00:	2807      	cmp	r0, #7
   86c02:	9215      	str	r2, [sp, #84]	; 0x54
   86c04:	6035      	str	r5, [r6, #0]
   86c06:	6074      	str	r4, [r6, #4]
   86c08:	9014      	str	r0, [sp, #80]	; 0x50
   86c0a:	f300 80af 	bgt.w	86d6c <_vfiprintf_r+0xaf4>
   86c0e:	3608      	adds	r6, #8
   86c10:	1c41      	adds	r1, r0, #1
   86c12:	4603      	mov	r3, r0
   86c14:	e6c2      	b.n	8699c <_vfiprintf_r+0x724>
   86c16:	9806      	ldr	r0, [sp, #24]
   86c18:	9902      	ldr	r1, [sp, #8]
   86c1a:	aa13      	add	r2, sp, #76	; 0x4c
   86c1c:	f7ff faf0 	bl	86200 <__sprint_r.part.0>
   86c20:	2800      	cmp	r0, #0
   86c22:	f47f af7c 	bne.w	86b1e <_vfiprintf_r+0x8a6>
   86c26:	9b14      	ldr	r3, [sp, #80]	; 0x50
   86c28:	9a15      	ldr	r2, [sp, #84]	; 0x54
   86c2a:	1c58      	adds	r0, r3, #1
   86c2c:	46cc      	mov	ip, r9
   86c2e:	e7ce      	b.n	86bce <_vfiprintf_r+0x956>
   86c30:	2a00      	cmp	r2, #0
   86c32:	d179      	bne.n	86d28 <_vfiprintf_r+0xab0>
   86c34:	4619      	mov	r1, r3
   86c36:	464e      	mov	r6, r9
   86c38:	4613      	mov	r3, r2
   86c3a:	e69c      	b.n	86976 <_vfiprintf_r+0x6fe>
   86c3c:	2a00      	cmp	r2, #0
   86c3e:	f040 8084 	bne.w	86d4a <_vfiprintf_r+0xad2>
   86c42:	2101      	movs	r1, #1
   86c44:	4613      	mov	r3, r2
   86c46:	464e      	mov	r6, r9
   86c48:	e6a4      	b.n	86994 <_vfiprintf_r+0x71c>
   86c4a:	464f      	mov	r7, r9
   86c4c:	e448      	b.n	864e0 <_vfiprintf_r+0x268>
   86c4e:	2d00      	cmp	r5, #0
   86c50:	bf08      	it	eq
   86c52:	2c0a      	cmpeq	r4, #10
   86c54:	d246      	bcs.n	86ce4 <_vfiprintf_r+0xa6c>
   86c56:	3430      	adds	r4, #48	; 0x30
   86c58:	af30      	add	r7, sp, #192	; 0xc0
   86c5a:	f807 4d41 	strb.w	r4, [r7, #-65]!
   86c5e:	ebc7 0309 	rsb	r3, r7, r9
   86c62:	9305      	str	r3, [sp, #20]
   86c64:	e43c      	b.n	864e0 <_vfiprintf_r+0x268>
   86c66:	2302      	movs	r3, #2
   86c68:	e417      	b.n	8649a <_vfiprintf_r+0x222>
   86c6a:	2a00      	cmp	r2, #0
   86c6c:	f040 80af 	bne.w	86dce <_vfiprintf_r+0xb56>
   86c70:	4613      	mov	r3, r2
   86c72:	2101      	movs	r1, #1
   86c74:	464e      	mov	r6, r9
   86c76:	e66d      	b.n	86954 <_vfiprintf_r+0x6dc>
   86c78:	4644      	mov	r4, r8
   86c7a:	f7ff bb58 	b.w	8632e <_vfiprintf_r+0xb6>
   86c7e:	9806      	ldr	r0, [sp, #24]
   86c80:	9902      	ldr	r1, [sp, #8]
   86c82:	aa13      	add	r2, sp, #76	; 0x4c
   86c84:	f7ff fabc 	bl	86200 <__sprint_r.part.0>
   86c88:	2800      	cmp	r0, #0
   86c8a:	f47f af48 	bne.w	86b1e <_vfiprintf_r+0x8a6>
   86c8e:	9a15      	ldr	r2, [sp, #84]	; 0x54
   86c90:	464e      	mov	r6, r9
   86c92:	e6c6      	b.n	86a22 <_vfiprintf_r+0x7aa>
   86c94:	9d08      	ldr	r5, [sp, #32]
   86c96:	682c      	ldr	r4, [r5, #0]
   86c98:	3504      	adds	r5, #4
   86c9a:	9508      	str	r5, [sp, #32]
   86c9c:	2500      	movs	r5, #0
   86c9e:	f7ff bbfc 	b.w	8649a <_vfiprintf_r+0x222>
   86ca2:	9d08      	ldr	r5, [sp, #32]
   86ca4:	2301      	movs	r3, #1
   86ca6:	682c      	ldr	r4, [r5, #0]
   86ca8:	3504      	adds	r5, #4
   86caa:	9508      	str	r5, [sp, #32]
   86cac:	2500      	movs	r5, #0
   86cae:	f7ff bbf4 	b.w	8649a <_vfiprintf_r+0x222>
   86cb2:	9d08      	ldr	r5, [sp, #32]
   86cb4:	682c      	ldr	r4, [r5, #0]
   86cb6:	3504      	adds	r5, #4
   86cb8:	9508      	str	r5, [sp, #32]
   86cba:	2500      	movs	r5, #0
   86cbc:	e525      	b.n	8670a <_vfiprintf_r+0x492>
   86cbe:	9d08      	ldr	r5, [sp, #32]
   86cc0:	682c      	ldr	r4, [r5, #0]
   86cc2:	3504      	adds	r5, #4
   86cc4:	9508      	str	r5, [sp, #32]
   86cc6:	17e5      	asrs	r5, r4, #31
   86cc8:	4622      	mov	r2, r4
   86cca:	462b      	mov	r3, r5
   86ccc:	e48e      	b.n	865ec <_vfiprintf_r+0x374>
   86cce:	9806      	ldr	r0, [sp, #24]
   86cd0:	9902      	ldr	r1, [sp, #8]
   86cd2:	aa13      	add	r2, sp, #76	; 0x4c
   86cd4:	f7ff fa94 	bl	86200 <__sprint_r.part.0>
   86cd8:	2800      	cmp	r0, #0
   86cda:	f47f af20 	bne.w	86b1e <_vfiprintf_r+0x8a6>
   86cde:	464e      	mov	r6, r9
   86ce0:	f7ff bb9a 	b.w	86418 <_vfiprintf_r+0x1a0>
   86ce4:	f10d 0b7f 	add.w	fp, sp, #127	; 0x7f
   86ce8:	9603      	str	r6, [sp, #12]
   86cea:	465e      	mov	r6, fp
   86cec:	46e3      	mov	fp, ip
   86cee:	4620      	mov	r0, r4
   86cf0:	4629      	mov	r1, r5
   86cf2:	220a      	movs	r2, #10
   86cf4:	2300      	movs	r3, #0
   86cf6:	f003 f92d 	bl	89f54 <__aeabi_uldivmod>
   86cfa:	3230      	adds	r2, #48	; 0x30
   86cfc:	7032      	strb	r2, [r6, #0]
   86cfe:	4620      	mov	r0, r4
   86d00:	4629      	mov	r1, r5
   86d02:	220a      	movs	r2, #10
   86d04:	2300      	movs	r3, #0
   86d06:	f003 f925 	bl	89f54 <__aeabi_uldivmod>
   86d0a:	4604      	mov	r4, r0
   86d0c:	460d      	mov	r5, r1
   86d0e:	ea54 0005 	orrs.w	r0, r4, r5
   86d12:	4637      	mov	r7, r6
   86d14:	f106 36ff 	add.w	r6, r6, #4294967295
   86d18:	d1e9      	bne.n	86cee <_vfiprintf_r+0xa76>
   86d1a:	ebc7 0309 	rsb	r3, r7, r9
   86d1e:	46dc      	mov	ip, fp
   86d20:	9e03      	ldr	r6, [sp, #12]
   86d22:	9305      	str	r3, [sp, #20]
   86d24:	f7ff bbdc 	b.w	864e0 <_vfiprintf_r+0x268>
   86d28:	9806      	ldr	r0, [sp, #24]
   86d2a:	9902      	ldr	r1, [sp, #8]
   86d2c:	aa13      	add	r2, sp, #76	; 0x4c
   86d2e:	f8cd c004 	str.w	ip, [sp, #4]
   86d32:	f7ff fa65 	bl	86200 <__sprint_r.part.0>
   86d36:	f8dd c004 	ldr.w	ip, [sp, #4]
   86d3a:	2800      	cmp	r0, #0
   86d3c:	f47f aeef 	bne.w	86b1e <_vfiprintf_r+0x8a6>
   86d40:	9b14      	ldr	r3, [sp, #80]	; 0x50
   86d42:	9a15      	ldr	r2, [sp, #84]	; 0x54
   86d44:	1c59      	adds	r1, r3, #1
   86d46:	464e      	mov	r6, r9
   86d48:	e615      	b.n	86976 <_vfiprintf_r+0x6fe>
   86d4a:	9806      	ldr	r0, [sp, #24]
   86d4c:	9902      	ldr	r1, [sp, #8]
   86d4e:	aa13      	add	r2, sp, #76	; 0x4c
   86d50:	f8cd c004 	str.w	ip, [sp, #4]
   86d54:	f7ff fa54 	bl	86200 <__sprint_r.part.0>
   86d58:	f8dd c004 	ldr.w	ip, [sp, #4]
   86d5c:	2800      	cmp	r0, #0
   86d5e:	f47f aede 	bne.w	86b1e <_vfiprintf_r+0x8a6>
   86d62:	9b14      	ldr	r3, [sp, #80]	; 0x50
   86d64:	9a15      	ldr	r2, [sp, #84]	; 0x54
   86d66:	1c59      	adds	r1, r3, #1
   86d68:	464e      	mov	r6, r9
   86d6a:	e613      	b.n	86994 <_vfiprintf_r+0x71c>
   86d6c:	2a00      	cmp	r2, #0
   86d6e:	d156      	bne.n	86e1e <_vfiprintf_r+0xba6>
   86d70:	2101      	movs	r1, #1
   86d72:	4613      	mov	r3, r2
   86d74:	464e      	mov	r6, r9
   86d76:	e611      	b.n	8699c <_vfiprintf_r+0x724>
   86d78:	9806      	ldr	r0, [sp, #24]
   86d7a:	9902      	ldr	r1, [sp, #8]
   86d7c:	aa13      	add	r2, sp, #76	; 0x4c
   86d7e:	f7ff fa3f 	bl	86200 <__sprint_r.part.0>
   86d82:	2800      	cmp	r0, #0
   86d84:	f47f aecb 	bne.w	86b1e <_vfiprintf_r+0x8a6>
   86d88:	9914      	ldr	r1, [sp, #80]	; 0x50
   86d8a:	9a15      	ldr	r2, [sp, #84]	; 0x54
   86d8c:	3101      	adds	r1, #1
   86d8e:	464e      	mov	r6, r9
   86d90:	e639      	b.n	86a06 <_vfiprintf_r+0x78e>
   86d92:	f04f 0b2d 	mov.w	fp, #45	; 0x2d
   86d96:	4264      	negs	r4, r4
   86d98:	eb65 0545 	sbc.w	r5, r5, r5, lsl #1
   86d9c:	f88d b047 	strb.w	fp, [sp, #71]	; 0x47
   86da0:	f8cd b01c 	str.w	fp, [sp, #28]
   86da4:	f8cd c014 	str.w	ip, [sp, #20]
   86da8:	2301      	movs	r3, #1
   86daa:	f7ff bb7e 	b.w	864aa <_vfiprintf_r+0x232>
   86dae:	f01a 0f10 	tst.w	sl, #16
   86db2:	d11d      	bne.n	86df0 <_vfiprintf_r+0xb78>
   86db4:	f01a 0f40 	tst.w	sl, #64	; 0x40
   86db8:	d058      	beq.n	86e6c <_vfiprintf_r+0xbf4>
   86dba:	9d08      	ldr	r5, [sp, #32]
   86dbc:	f8dd b024 	ldr.w	fp, [sp, #36]	; 0x24
   86dc0:	682b      	ldr	r3, [r5, #0]
   86dc2:	3504      	adds	r5, #4
   86dc4:	9508      	str	r5, [sp, #32]
   86dc6:	f8a3 b000 	strh.w	fp, [r3]
   86dca:	f7ff ba88 	b.w	862de <_vfiprintf_r+0x66>
   86dce:	9806      	ldr	r0, [sp, #24]
   86dd0:	9902      	ldr	r1, [sp, #8]
   86dd2:	aa13      	add	r2, sp, #76	; 0x4c
   86dd4:	f8cd c004 	str.w	ip, [sp, #4]
   86dd8:	f7ff fa12 	bl	86200 <__sprint_r.part.0>
   86ddc:	f8dd c004 	ldr.w	ip, [sp, #4]
   86de0:	2800      	cmp	r0, #0
   86de2:	f47f ae9c 	bne.w	86b1e <_vfiprintf_r+0x8a6>
   86de6:	9b14      	ldr	r3, [sp, #80]	; 0x50
   86de8:	9a15      	ldr	r2, [sp, #84]	; 0x54
   86dea:	1c59      	adds	r1, r3, #1
   86dec:	464e      	mov	r6, r9
   86dee:	e5b1      	b.n	86954 <_vfiprintf_r+0x6dc>
   86df0:	f8dd b020 	ldr.w	fp, [sp, #32]
   86df4:	9c09      	ldr	r4, [sp, #36]	; 0x24
   86df6:	f8db 3000 	ldr.w	r3, [fp]
   86dfa:	f10b 0b04 	add.w	fp, fp, #4
   86dfe:	f8cd b020 	str.w	fp, [sp, #32]
   86e02:	601c      	str	r4, [r3, #0]
   86e04:	f7ff ba6b 	b.w	862de <_vfiprintf_r+0x66>
   86e08:	9408      	str	r4, [sp, #32]
   86e0a:	f7fd ff27 	bl	84c5c <strlen>
   86e0e:	f89d 4047 	ldrb.w	r4, [sp, #71]	; 0x47
   86e12:	9005      	str	r0, [sp, #20]
   86e14:	9407      	str	r4, [sp, #28]
   86e16:	f04f 0c00 	mov.w	ip, #0
   86e1a:	f7ff bb61 	b.w	864e0 <_vfiprintf_r+0x268>
   86e1e:	9806      	ldr	r0, [sp, #24]
   86e20:	9902      	ldr	r1, [sp, #8]
   86e22:	aa13      	add	r2, sp, #76	; 0x4c
   86e24:	f8cd c004 	str.w	ip, [sp, #4]
   86e28:	f7ff f9ea 	bl	86200 <__sprint_r.part.0>
   86e2c:	f8dd c004 	ldr.w	ip, [sp, #4]
   86e30:	2800      	cmp	r0, #0
   86e32:	f47f ae74 	bne.w	86b1e <_vfiprintf_r+0x8a6>
   86e36:	9b14      	ldr	r3, [sp, #80]	; 0x50
   86e38:	9a15      	ldr	r2, [sp, #84]	; 0x54
   86e3a:	1c59      	adds	r1, r3, #1
   86e3c:	464e      	mov	r6, r9
   86e3e:	e5ad      	b.n	8699c <_vfiprintf_r+0x724>
   86e40:	9b14      	ldr	r3, [sp, #80]	; 0x50
   86e42:	9a15      	ldr	r2, [sp, #84]	; 0x54
   86e44:	3301      	adds	r3, #1
   86e46:	4d02      	ldr	r5, [pc, #8]	; (86e50 <_vfiprintf_r+0xbd8>)
   86e48:	f7ff bb9a 	b.w	86580 <_vfiprintf_r+0x308>
   86e4c:	0008a9e8 	.word	0x0008a9e8
   86e50:	0008a9f8 	.word	0x0008a9f8
   86e54:	f1bc 0f06 	cmp.w	ip, #6
   86e58:	bf34      	ite	cc
   86e5a:	4663      	movcc	r3, ip
   86e5c:	2306      	movcs	r3, #6
   86e5e:	9408      	str	r4, [sp, #32]
   86e60:	ea23 74e3 	bic.w	r4, r3, r3, asr #31
   86e64:	9305      	str	r3, [sp, #20]
   86e66:	9403      	str	r4, [sp, #12]
   86e68:	4f16      	ldr	r7, [pc, #88]	; (86ec4 <_vfiprintf_r+0xc4c>)
   86e6a:	e472      	b.n	86752 <_vfiprintf_r+0x4da>
   86e6c:	9c08      	ldr	r4, [sp, #32]
   86e6e:	9d09      	ldr	r5, [sp, #36]	; 0x24
   86e70:	6823      	ldr	r3, [r4, #0]
   86e72:	3404      	adds	r4, #4
   86e74:	9408      	str	r4, [sp, #32]
   86e76:	601d      	str	r5, [r3, #0]
   86e78:	f7ff ba31 	b.w	862de <_vfiprintf_r+0x66>
   86e7c:	9814      	ldr	r0, [sp, #80]	; 0x50
   86e7e:	4d12      	ldr	r5, [pc, #72]	; (86ec8 <_vfiprintf_r+0xc50>)
   86e80:	3001      	adds	r0, #1
   86e82:	e5fc      	b.n	86a7e <_vfiprintf_r+0x806>
   86e84:	f89d 5047 	ldrb.w	r5, [sp, #71]	; 0x47
   86e88:	f8cd c014 	str.w	ip, [sp, #20]
   86e8c:	9507      	str	r5, [sp, #28]
   86e8e:	9408      	str	r4, [sp, #32]
   86e90:	4684      	mov	ip, r0
   86e92:	f7ff bb25 	b.w	864e0 <_vfiprintf_r+0x268>
   86e96:	4608      	mov	r0, r1
   86e98:	e6b1      	b.n	86bfe <_vfiprintf_r+0x986>
   86e9a:	46a0      	mov	r8, r4
   86e9c:	2500      	movs	r5, #0
   86e9e:	f7ff ba5a 	b.w	86356 <_vfiprintf_r+0xde>
   86ea2:	f8dd b020 	ldr.w	fp, [sp, #32]
   86ea6:	f898 3001 	ldrb.w	r3, [r8, #1]
   86eaa:	f8db 5000 	ldr.w	r5, [fp]
   86eae:	f10b 0204 	add.w	r2, fp, #4
   86eb2:	2d00      	cmp	r5, #0
   86eb4:	9208      	str	r2, [sp, #32]
   86eb6:	46a0      	mov	r8, r4
   86eb8:	f6bf aa4b 	bge.w	86352 <_vfiprintf_r+0xda>
   86ebc:	f04f 35ff 	mov.w	r5, #4294967295
   86ec0:	f7ff ba47 	b.w	86352 <_vfiprintf_r+0xda>
   86ec4:	0008a9d0 	.word	0x0008a9d0
   86ec8:	0008a9f8 	.word	0x0008a9f8

00086ecc <__sbprintf>:
   86ecc:	e92d 47f0 	stmdb	sp!, {r4, r5, r6, r7, r8, r9, sl, lr}
   86ed0:	6e4f      	ldr	r7, [r1, #100]	; 0x64
   86ed2:	f5ad 6d8d 	sub.w	sp, sp, #1128	; 0x468
   86ed6:	4688      	mov	r8, r1
   86ed8:	9719      	str	r7, [sp, #100]	; 0x64
   86eda:	f8d8 701c 	ldr.w	r7, [r8, #28]
   86ede:	f8b1 a00c 	ldrh.w	sl, [r1, #12]
   86ee2:	f8b1 900e 	ldrh.w	r9, [r1, #14]
   86ee6:	9707      	str	r7, [sp, #28]
   86ee8:	f8d8 7024 	ldr.w	r7, [r8, #36]	; 0x24
   86eec:	ac1a      	add	r4, sp, #104	; 0x68
   86eee:	f44f 6580 	mov.w	r5, #1024	; 0x400
   86ef2:	f02a 0a02 	bic.w	sl, sl, #2
   86ef6:	2600      	movs	r6, #0
   86ef8:	4669      	mov	r1, sp
   86efa:	9400      	str	r4, [sp, #0]
   86efc:	9404      	str	r4, [sp, #16]
   86efe:	9502      	str	r5, [sp, #8]
   86f00:	9505      	str	r5, [sp, #20]
   86f02:	f8ad a00c 	strh.w	sl, [sp, #12]
   86f06:	f8ad 900e 	strh.w	r9, [sp, #14]
   86f0a:	9709      	str	r7, [sp, #36]	; 0x24
   86f0c:	9606      	str	r6, [sp, #24]
   86f0e:	4605      	mov	r5, r0
   86f10:	f7ff f9b2 	bl	86278 <_vfiprintf_r>
   86f14:	1e04      	subs	r4, r0, #0
   86f16:	db07      	blt.n	86f28 <__sbprintf+0x5c>
   86f18:	4628      	mov	r0, r5
   86f1a:	4669      	mov	r1, sp
   86f1c:	f001 f8e0 	bl	880e0 <_fflush_r>
   86f20:	42b0      	cmp	r0, r6
   86f22:	bf18      	it	ne
   86f24:	f04f 34ff 	movne.w	r4, #4294967295
   86f28:	f8bd 300c 	ldrh.w	r3, [sp, #12]
   86f2c:	065b      	lsls	r3, r3, #25
   86f2e:	d505      	bpl.n	86f3c <__sbprintf+0x70>
   86f30:	f8b8 300c 	ldrh.w	r3, [r8, #12]
   86f34:	f043 0340 	orr.w	r3, r3, #64	; 0x40
   86f38:	f8a8 300c 	strh.w	r3, [r8, #12]
   86f3c:	4620      	mov	r0, r4
   86f3e:	f50d 6d8d 	add.w	sp, sp, #1128	; 0x468
   86f42:	e8bd 87f0 	ldmia.w	sp!, {r4, r5, r6, r7, r8, r9, sl, pc}
   86f46:	bf00      	nop

00086f48 <__swsetup_r>:
   86f48:	4b2f      	ldr	r3, [pc, #188]	; (87008 <__swsetup_r+0xc0>)
   86f4a:	b570      	push	{r4, r5, r6, lr}
   86f4c:	4606      	mov	r6, r0
   86f4e:	6818      	ldr	r0, [r3, #0]
   86f50:	460c      	mov	r4, r1
   86f52:	b110      	cbz	r0, 86f5a <__swsetup_r+0x12>
   86f54:	6b82      	ldr	r2, [r0, #56]	; 0x38
   86f56:	2a00      	cmp	r2, #0
   86f58:	d036      	beq.n	86fc8 <__swsetup_r+0x80>
   86f5a:	89a5      	ldrh	r5, [r4, #12]
   86f5c:	b2ab      	uxth	r3, r5
   86f5e:	0719      	lsls	r1, r3, #28
   86f60:	d50c      	bpl.n	86f7c <__swsetup_r+0x34>
   86f62:	6922      	ldr	r2, [r4, #16]
   86f64:	b1aa      	cbz	r2, 86f92 <__swsetup_r+0x4a>
   86f66:	f013 0101 	ands.w	r1, r3, #1
   86f6a:	d01e      	beq.n	86faa <__swsetup_r+0x62>
   86f6c:	6963      	ldr	r3, [r4, #20]
   86f6e:	2100      	movs	r1, #0
   86f70:	425b      	negs	r3, r3
   86f72:	61a3      	str	r3, [r4, #24]
   86f74:	60a1      	str	r1, [r4, #8]
   86f76:	b1f2      	cbz	r2, 86fb6 <__swsetup_r+0x6e>
   86f78:	2000      	movs	r0, #0
   86f7a:	bd70      	pop	{r4, r5, r6, pc}
   86f7c:	06da      	lsls	r2, r3, #27
   86f7e:	d53a      	bpl.n	86ff6 <__swsetup_r+0xae>
   86f80:	075b      	lsls	r3, r3, #29
   86f82:	d424      	bmi.n	86fce <__swsetup_r+0x86>
   86f84:	6922      	ldr	r2, [r4, #16]
   86f86:	f045 0308 	orr.w	r3, r5, #8
   86f8a:	81a3      	strh	r3, [r4, #12]
   86f8c:	b29b      	uxth	r3, r3
   86f8e:	2a00      	cmp	r2, #0
   86f90:	d1e9      	bne.n	86f66 <__swsetup_r+0x1e>
   86f92:	f403 7120 	and.w	r1, r3, #640	; 0x280
   86f96:	f5b1 7f00 	cmp.w	r1, #512	; 0x200
   86f9a:	d0e4      	beq.n	86f66 <__swsetup_r+0x1e>
   86f9c:	4630      	mov	r0, r6
   86f9e:	4621      	mov	r1, r4
   86fa0:	f001 fc88 	bl	888b4 <__smakebuf_r>
   86fa4:	89a3      	ldrh	r3, [r4, #12]
   86fa6:	6922      	ldr	r2, [r4, #16]
   86fa8:	e7dd      	b.n	86f66 <__swsetup_r+0x1e>
   86faa:	0798      	lsls	r0, r3, #30
   86fac:	bf58      	it	pl
   86fae:	6961      	ldrpl	r1, [r4, #20]
   86fb0:	60a1      	str	r1, [r4, #8]
   86fb2:	2a00      	cmp	r2, #0
   86fb4:	d1e0      	bne.n	86f78 <__swsetup_r+0x30>
   86fb6:	89a3      	ldrh	r3, [r4, #12]
   86fb8:	061a      	lsls	r2, r3, #24
   86fba:	d5dd      	bpl.n	86f78 <__swsetup_r+0x30>
   86fbc:	f043 0340 	orr.w	r3, r3, #64	; 0x40
   86fc0:	81a3      	strh	r3, [r4, #12]
   86fc2:	f04f 30ff 	mov.w	r0, #4294967295
   86fc6:	bd70      	pop	{r4, r5, r6, pc}
   86fc8:	f001 f8a6 	bl	88118 <__sinit>
   86fcc:	e7c5      	b.n	86f5a <__swsetup_r+0x12>
   86fce:	6b21      	ldr	r1, [r4, #48]	; 0x30
   86fd0:	b149      	cbz	r1, 86fe6 <__swsetup_r+0x9e>
   86fd2:	f104 0340 	add.w	r3, r4, #64	; 0x40
   86fd6:	4299      	cmp	r1, r3
   86fd8:	d003      	beq.n	86fe2 <__swsetup_r+0x9a>
   86fda:	4630      	mov	r0, r6
   86fdc:	f001 f9e0 	bl	883a0 <_free_r>
   86fe0:	89a5      	ldrh	r5, [r4, #12]
   86fe2:	2300      	movs	r3, #0
   86fe4:	6323      	str	r3, [r4, #48]	; 0x30
   86fe6:	6922      	ldr	r2, [r4, #16]
   86fe8:	f025 0524 	bic.w	r5, r5, #36	; 0x24
   86fec:	2100      	movs	r1, #0
   86fee:	b2ad      	uxth	r5, r5
   86ff0:	6022      	str	r2, [r4, #0]
   86ff2:	6061      	str	r1, [r4, #4]
   86ff4:	e7c7      	b.n	86f86 <__swsetup_r+0x3e>
   86ff6:	f045 0540 	orr.w	r5, r5, #64	; 0x40
   86ffa:	2309      	movs	r3, #9
   86ffc:	6033      	str	r3, [r6, #0]
   86ffe:	f04f 30ff 	mov.w	r0, #4294967295
   87002:	81a5      	strh	r5, [r4, #12]
   87004:	bd70      	pop	{r4, r5, r6, pc}
   87006:	bf00      	nop
   87008:	200705d8 	.word	0x200705d8

0008700c <register_fini>:
   8700c:	4b02      	ldr	r3, [pc, #8]	; (87018 <register_fini+0xc>)
   8700e:	b113      	cbz	r3, 87016 <register_fini+0xa>
   87010:	4802      	ldr	r0, [pc, #8]	; (8701c <register_fini+0x10>)
   87012:	f000 b805 	b.w	87020 <atexit>
   87016:	4770      	bx	lr
   87018:	00000000 	.word	0x00000000
   8701c:	00088215 	.word	0x00088215

00087020 <atexit>:
   87020:	4601      	mov	r1, r0
   87022:	2000      	movs	r0, #0
   87024:	4602      	mov	r2, r0
   87026:	4603      	mov	r3, r0
   87028:	f002 be68 	b.w	89cfc <__register_exitproc>

0008702c <quorem>:
   8702c:	e92d 4ff0 	stmdb	sp!, {r4, r5, r6, r7, r8, r9, sl, fp, lr}
   87030:	6903      	ldr	r3, [r0, #16]
   87032:	690d      	ldr	r5, [r1, #16]
   87034:	b083      	sub	sp, #12
   87036:	429d      	cmp	r5, r3
   87038:	4683      	mov	fp, r0
   8703a:	f300 808c 	bgt.w	87156 <quorem+0x12a>
   8703e:	3d01      	subs	r5, #1
   87040:	f101 0414 	add.w	r4, r1, #20
   87044:	f100 0a14 	add.w	sl, r0, #20
   87048:	f854 2025 	ldr.w	r2, [r4, r5, lsl #2]
   8704c:	f85a 3025 	ldr.w	r3, [sl, r5, lsl #2]
   87050:	3201      	adds	r2, #1
   87052:	fbb3 f8f2 	udiv	r8, r3, r2
   87056:	00aa      	lsls	r2, r5, #2
   87058:	4691      	mov	r9, r2
   8705a:	9200      	str	r2, [sp, #0]
   8705c:	4452      	add	r2, sl
   8705e:	44a1      	add	r9, r4
   87060:	9201      	str	r2, [sp, #4]
   87062:	f1b8 0f00 	cmp.w	r8, #0
   87066:	d03e      	beq.n	870e6 <quorem+0xba>
   87068:	2600      	movs	r6, #0
   8706a:	4630      	mov	r0, r6
   8706c:	4622      	mov	r2, r4
   8706e:	4653      	mov	r3, sl
   87070:	468c      	mov	ip, r1
   87072:	f852 7b04 	ldr.w	r7, [r2], #4
   87076:	6819      	ldr	r1, [r3, #0]
   87078:	fa1f fe87 	uxth.w	lr, r7
   8707c:	0c3f      	lsrs	r7, r7, #16
   8707e:	fb0e 6e08 	mla	lr, lr, r8, r6
   87082:	fb07 f608 	mul.w	r6, r7, r8
   87086:	eb06 461e 	add.w	r6, r6, lr, lsr #16
   8708a:	fa1f fe8e 	uxth.w	lr, lr
   8708e:	ebce 0e00 	rsb	lr, lr, r0
   87092:	b28f      	uxth	r7, r1
   87094:	b2b0      	uxth	r0, r6
   87096:	4477      	add	r7, lr
   87098:	ebc0 4011 	rsb	r0, r0, r1, lsr #16
   8709c:	eb00 4027 	add.w	r0, r0, r7, asr #16
   870a0:	b2bf      	uxth	r7, r7
   870a2:	ea47 4700 	orr.w	r7, r7, r0, lsl #16
   870a6:	4591      	cmp	r9, r2
   870a8:	f843 7b04 	str.w	r7, [r3], #4
   870ac:	ea4f 4020 	mov.w	r0, r0, asr #16
   870b0:	ea4f 4616 	mov.w	r6, r6, lsr #16
   870b4:	d2dd      	bcs.n	87072 <quorem+0x46>
   870b6:	9a00      	ldr	r2, [sp, #0]
   870b8:	4661      	mov	r1, ip
   870ba:	f85a 3002 	ldr.w	r3, [sl, r2]
   870be:	b993      	cbnz	r3, 870e6 <quorem+0xba>
   870c0:	9a01      	ldr	r2, [sp, #4]
   870c2:	1f13      	subs	r3, r2, #4
   870c4:	459a      	cmp	sl, r3
   870c6:	d20c      	bcs.n	870e2 <quorem+0xb6>
   870c8:	f852 3c04 	ldr.w	r3, [r2, #-4]
   870cc:	b94b      	cbnz	r3, 870e2 <quorem+0xb6>
   870ce:	f1a2 0308 	sub.w	r3, r2, #8
   870d2:	e002      	b.n	870da <quorem+0xae>
   870d4:	681a      	ldr	r2, [r3, #0]
   870d6:	3b04      	subs	r3, #4
   870d8:	b91a      	cbnz	r2, 870e2 <quorem+0xb6>
   870da:	459a      	cmp	sl, r3
   870dc:	f105 35ff 	add.w	r5, r5, #4294967295
   870e0:	d3f8      	bcc.n	870d4 <quorem+0xa8>
   870e2:	f8cb 5010 	str.w	r5, [fp, #16]
   870e6:	4658      	mov	r0, fp
   870e8:	f002 f9c8 	bl	8947c <__mcmp>
   870ec:	2800      	cmp	r0, #0
   870ee:	db2e      	blt.n	8714e <quorem+0x122>
   870f0:	f108 0801 	add.w	r8, r8, #1
   870f4:	4653      	mov	r3, sl
   870f6:	2200      	movs	r2, #0
   870f8:	f854 6b04 	ldr.w	r6, [r4], #4
   870fc:	6818      	ldr	r0, [r3, #0]
   870fe:	b2b1      	uxth	r1, r6
   87100:	1a51      	subs	r1, r2, r1
   87102:	b287      	uxth	r7, r0
   87104:	0c36      	lsrs	r6, r6, #16
   87106:	4439      	add	r1, r7
   87108:	ebc6 4010 	rsb	r0, r6, r0, lsr #16
   8710c:	eb00 4221 	add.w	r2, r0, r1, asr #16
   87110:	b289      	uxth	r1, r1
   87112:	ea41 4102 	orr.w	r1, r1, r2, lsl #16
   87116:	45a1      	cmp	r9, r4
   87118:	f843 1b04 	str.w	r1, [r3], #4
   8711c:	ea4f 4222 	mov.w	r2, r2, asr #16
   87120:	d2ea      	bcs.n	870f8 <quorem+0xcc>
   87122:	f85a 2025 	ldr.w	r2, [sl, r5, lsl #2]
   87126:	eb0a 0385 	add.w	r3, sl, r5, lsl #2
   8712a:	b982      	cbnz	r2, 8714e <quorem+0x122>
   8712c:	1f1a      	subs	r2, r3, #4
   8712e:	4592      	cmp	sl, r2
   87130:	d20b      	bcs.n	8714a <quorem+0x11e>
   87132:	f853 2c04 	ldr.w	r2, [r3, #-4]
   87136:	b942      	cbnz	r2, 8714a <quorem+0x11e>
   87138:	3b08      	subs	r3, #8
   8713a:	e002      	b.n	87142 <quorem+0x116>
   8713c:	681a      	ldr	r2, [r3, #0]
   8713e:	3b04      	subs	r3, #4
   87140:	b91a      	cbnz	r2, 8714a <quorem+0x11e>
   87142:	459a      	cmp	sl, r3
   87144:	f105 35ff 	add.w	r5, r5, #4294967295
   87148:	d3f8      	bcc.n	8713c <quorem+0x110>
   8714a:	f8cb 5010 	str.w	r5, [fp, #16]
   8714e:	4640      	mov	r0, r8
   87150:	b003      	add	sp, #12
   87152:	e8bd 8ff0 	ldmia.w	sp!, {r4, r5, r6, r7, r8, r9, sl, fp, pc}
   87156:	2000      	movs	r0, #0
   87158:	b003      	add	sp, #12
   8715a:	e8bd 8ff0 	ldmia.w	sp!, {r4, r5, r6, r7, r8, r9, sl, fp, pc}
   8715e:	bf00      	nop

00087160 <_dtoa_r>:
   87160:	e92d 4ff0 	stmdb	sp!, {r4, r5, r6, r7, r8, r9, sl, fp, lr}
   87164:	6c01      	ldr	r1, [r0, #64]	; 0x40
   87166:	b09b      	sub	sp, #108	; 0x6c
   87168:	4604      	mov	r4, r0
   8716a:	4692      	mov	sl, r2
   8716c:	469b      	mov	fp, r3
   8716e:	9d27      	ldr	r5, [sp, #156]	; 0x9c
   87170:	b141      	cbz	r1, 87184 <_dtoa_r+0x24>
   87172:	6c43      	ldr	r3, [r0, #68]	; 0x44
   87174:	2201      	movs	r2, #1
   87176:	409a      	lsls	r2, r3
   87178:	604b      	str	r3, [r1, #4]
   8717a:	608a      	str	r2, [r1, #8]
   8717c:	f001 ff88 	bl	89090 <_Bfree>
   87180:	2300      	movs	r3, #0
   87182:	6423      	str	r3, [r4, #64]	; 0x40
   87184:	f1bb 0f00 	cmp.w	fp, #0
   87188:	46d9      	mov	r9, fp
   8718a:	db33      	blt.n	871f4 <_dtoa_r+0x94>
   8718c:	2300      	movs	r3, #0
   8718e:	602b      	str	r3, [r5, #0]
   87190:	4ba5      	ldr	r3, [pc, #660]	; (87428 <_dtoa_r+0x2c8>)
   87192:	461a      	mov	r2, r3
   87194:	ea09 0303 	and.w	r3, r9, r3
   87198:	4293      	cmp	r3, r2
   8719a:	d014      	beq.n	871c6 <_dtoa_r+0x66>
   8719c:	4650      	mov	r0, sl
   8719e:	4659      	mov	r1, fp
   871a0:	2200      	movs	r2, #0
   871a2:	2300      	movs	r3, #0
   871a4:	f7fd fb50 	bl	84848 <__aeabi_dcmpeq>
   871a8:	4680      	mov	r8, r0
   871aa:	b348      	cbz	r0, 87200 <_dtoa_r+0xa0>
   871ac:	9e26      	ldr	r6, [sp, #152]	; 0x98
   871ae:	9d28      	ldr	r5, [sp, #160]	; 0xa0
   871b0:	2301      	movs	r3, #1
   871b2:	6033      	str	r3, [r6, #0]
   871b4:	2d00      	cmp	r5, #0
   871b6:	f000 80ca 	beq.w	8734e <_dtoa_r+0x1ee>
   871ba:	489c      	ldr	r0, [pc, #624]	; (8742c <_dtoa_r+0x2cc>)
   871bc:	6028      	str	r0, [r5, #0]
   871be:	3801      	subs	r0, #1
   871c0:	b01b      	add	sp, #108	; 0x6c
   871c2:	e8bd 8ff0 	ldmia.w	sp!, {r4, r5, r6, r7, r8, r9, sl, fp, pc}
   871c6:	9d26      	ldr	r5, [sp, #152]	; 0x98
   871c8:	f242 730f 	movw	r3, #9999	; 0x270f
   871cc:	602b      	str	r3, [r5, #0]
   871ce:	f1ba 0f00 	cmp.w	sl, #0
   871d2:	f000 80a5 	beq.w	87320 <_dtoa_r+0x1c0>
   871d6:	4896      	ldr	r0, [pc, #600]	; (87430 <_dtoa_r+0x2d0>)
   871d8:	9e28      	ldr	r6, [sp, #160]	; 0xa0
   871da:	2e00      	cmp	r6, #0
   871dc:	d0f0      	beq.n	871c0 <_dtoa_r+0x60>
   871de:	78c3      	ldrb	r3, [r0, #3]
   871e0:	2b00      	cmp	r3, #0
   871e2:	f000 80b6 	beq.w	87352 <_dtoa_r+0x1f2>
   871e6:	f100 0308 	add.w	r3, r0, #8
   871ea:	9d28      	ldr	r5, [sp, #160]	; 0xa0
   871ec:	602b      	str	r3, [r5, #0]
   871ee:	b01b      	add	sp, #108	; 0x6c
   871f0:	e8bd 8ff0 	ldmia.w	sp!, {r4, r5, r6, r7, r8, r9, sl, fp, pc}
   871f4:	2301      	movs	r3, #1
   871f6:	f02b 4900 	bic.w	r9, fp, #2147483648	; 0x80000000
   871fa:	602b      	str	r3, [r5, #0]
   871fc:	46cb      	mov	fp, r9
   871fe:	e7c7      	b.n	87190 <_dtoa_r+0x30>
   87200:	aa19      	add	r2, sp, #100	; 0x64
   87202:	ab18      	add	r3, sp, #96	; 0x60
   87204:	e88d 000c 	stmia.w	sp, {r2, r3}
   87208:	4620      	mov	r0, r4
   8720a:	4652      	mov	r2, sl
   8720c:	465b      	mov	r3, fp
   8720e:	f002 f9c5 	bl	8959c <__d2b>
   87212:	ea5f 5519 	movs.w	r5, r9, lsr #20
   87216:	900a      	str	r0, [sp, #40]	; 0x28
   87218:	f040 808b 	bne.w	87332 <_dtoa_r+0x1d2>
   8721c:	9f18      	ldr	r7, [sp, #96]	; 0x60
   8721e:	9d19      	ldr	r5, [sp, #100]	; 0x64
   87220:	f46f 6382 	mvn.w	r3, #1040	; 0x410
   87224:	443d      	add	r5, r7
   87226:	429d      	cmp	r5, r3
   87228:	f2c0 8295 	blt.w	87756 <_dtoa_r+0x5f6>
   8722c:	331f      	adds	r3, #31
   8722e:	f205 4212 	addw	r2, r5, #1042	; 0x412
   87232:	1b5b      	subs	r3, r3, r5
   87234:	fa09 f303 	lsl.w	r3, r9, r3
   87238:	fa2a f202 	lsr.w	r2, sl, r2
   8723c:	ea43 0002 	orr.w	r0, r3, r2
   87240:	f7fd f824 	bl	8428c <__aeabi_ui2d>
   87244:	2601      	movs	r6, #1
   87246:	3d01      	subs	r5, #1
   87248:	46b8      	mov	r8, r7
   8724a:	f1a1 71f8 	sub.w	r1, r1, #32505856	; 0x1f00000
   8724e:	9616      	str	r6, [sp, #88]	; 0x58
   87250:	2200      	movs	r2, #0
   87252:	4b78      	ldr	r3, [pc, #480]	; (87434 <_dtoa_r+0x2d4>)
   87254:	f7fc fedc 	bl	84010 <__aeabi_dsub>
   87258:	a36d      	add	r3, pc, #436	; (adr r3, 87410 <_dtoa_r+0x2b0>)
   8725a:	e9d3 2300 	ldrd	r2, r3, [r3]
   8725e:	f7fd f88b 	bl	84378 <__aeabi_dmul>
   87262:	a36d      	add	r3, pc, #436	; (adr r3, 87418 <_dtoa_r+0x2b8>)
   87264:	e9d3 2300 	ldrd	r2, r3, [r3]
   87268:	f7fc fed4 	bl	84014 <__adddf3>
   8726c:	4606      	mov	r6, r0
   8726e:	4628      	mov	r0, r5
   87270:	460f      	mov	r7, r1
   87272:	f7fd f81b 	bl	842ac <__aeabi_i2d>
   87276:	a36a      	add	r3, pc, #424	; (adr r3, 87420 <_dtoa_r+0x2c0>)
   87278:	e9d3 2300 	ldrd	r2, r3, [r3]
   8727c:	f7fd f87c 	bl	84378 <__aeabi_dmul>
   87280:	4602      	mov	r2, r0
   87282:	460b      	mov	r3, r1
   87284:	4630      	mov	r0, r6
   87286:	4639      	mov	r1, r7
   87288:	f7fc fec4 	bl	84014 <__adddf3>
   8728c:	4606      	mov	r6, r0
   8728e:	460f      	mov	r7, r1
   87290:	f7fd fb0c 	bl	848ac <__aeabi_d2iz>
   87294:	4639      	mov	r1, r7
   87296:	9007      	str	r0, [sp, #28]
   87298:	2200      	movs	r2, #0
   8729a:	4630      	mov	r0, r6
   8729c:	2300      	movs	r3, #0
   8729e:	f7fd fadd 	bl	8485c <__aeabi_dcmplt>
   872a2:	2800      	cmp	r0, #0
   872a4:	f040 8229 	bne.w	876fa <_dtoa_r+0x59a>
   872a8:	9e07      	ldr	r6, [sp, #28]
   872aa:	2e16      	cmp	r6, #22
   872ac:	f200 8222 	bhi.w	876f4 <_dtoa_r+0x594>
   872b0:	4961      	ldr	r1, [pc, #388]	; (87438 <_dtoa_r+0x2d8>)
   872b2:	4652      	mov	r2, sl
   872b4:	eb01 01c6 	add.w	r1, r1, r6, lsl #3
   872b8:	465b      	mov	r3, fp
   872ba:	e9d1 0100 	ldrd	r0, r1, [r1]
   872be:	f7fd faeb 	bl	84898 <__aeabi_dcmpgt>
   872c2:	2800      	cmp	r0, #0
   872c4:	f000 824c 	beq.w	87760 <_dtoa_r+0x600>
   872c8:	3e01      	subs	r6, #1
   872ca:	9607      	str	r6, [sp, #28]
   872cc:	2600      	movs	r6, #0
   872ce:	960e      	str	r6, [sp, #56]	; 0x38
   872d0:	ebc5 0508 	rsb	r5, r5, r8
   872d4:	3d01      	subs	r5, #1
   872d6:	9506      	str	r5, [sp, #24]
   872d8:	f100 8226 	bmi.w	87728 <_dtoa_r+0x5c8>
   872dc:	2500      	movs	r5, #0
   872de:	9508      	str	r5, [sp, #32]
   872e0:	9e07      	ldr	r6, [sp, #28]
   872e2:	2e00      	cmp	r6, #0
   872e4:	f2c0 8217 	blt.w	87716 <_dtoa_r+0x5b6>
   872e8:	9d06      	ldr	r5, [sp, #24]
   872ea:	960d      	str	r6, [sp, #52]	; 0x34
   872ec:	4435      	add	r5, r6
   872ee:	2600      	movs	r6, #0
   872f0:	9506      	str	r5, [sp, #24]
   872f2:	960c      	str	r6, [sp, #48]	; 0x30
   872f4:	9d24      	ldr	r5, [sp, #144]	; 0x90
   872f6:	2d09      	cmp	r5, #9
   872f8:	d82d      	bhi.n	87356 <_dtoa_r+0x1f6>
   872fa:	2d05      	cmp	r5, #5
   872fc:	bfc4      	itt	gt
   872fe:	3d04      	subgt	r5, #4
   87300:	9524      	strgt	r5, [sp, #144]	; 0x90
   87302:	9e24      	ldr	r6, [sp, #144]	; 0x90
   87304:	bfc8      	it	gt
   87306:	2500      	movgt	r5, #0
   87308:	f1a6 0302 	sub.w	r3, r6, #2
   8730c:	bfd8      	it	le
   8730e:	2501      	movle	r5, #1
   87310:	2b03      	cmp	r3, #3
   87312:	d822      	bhi.n	8735a <_dtoa_r+0x1fa>
   87314:	e8df f013 	tbh	[pc, r3, lsl #1]
   87318:	029e03b7 	.word	0x029e03b7
   8731c:	049a03c0 	.word	0x049a03c0
   87320:	4a46      	ldr	r2, [pc, #280]	; (8743c <_dtoa_r+0x2dc>)
   87322:	4b43      	ldr	r3, [pc, #268]	; (87430 <_dtoa_r+0x2d0>)
   87324:	f3c9 0013 	ubfx	r0, r9, #0, #20
   87328:	2800      	cmp	r0, #0
   8732a:	bf0c      	ite	eq
   8732c:	4610      	moveq	r0, r2
   8732e:	4618      	movne	r0, r3
   87330:	e752      	b.n	871d8 <_dtoa_r+0x78>
   87332:	f3cb 0313 	ubfx	r3, fp, #0, #20
   87336:	f043 517f 	orr.w	r1, r3, #1069547520	; 0x3fc00000
   8733a:	f8cd 8058 	str.w	r8, [sp, #88]	; 0x58
   8733e:	4650      	mov	r0, sl
   87340:	f2a5 35ff 	subw	r5, r5, #1023	; 0x3ff
   87344:	f441 1140 	orr.w	r1, r1, #3145728	; 0x300000
   87348:	f8dd 8060 	ldr.w	r8, [sp, #96]	; 0x60
   8734c:	e780      	b.n	87250 <_dtoa_r+0xf0>
   8734e:	483c      	ldr	r0, [pc, #240]	; (87440 <_dtoa_r+0x2e0>)
   87350:	e736      	b.n	871c0 <_dtoa_r+0x60>
   87352:	1cc3      	adds	r3, r0, #3
   87354:	e749      	b.n	871ea <_dtoa_r+0x8a>
   87356:	2500      	movs	r5, #0
   87358:	9524      	str	r5, [sp, #144]	; 0x90
   8735a:	2500      	movs	r5, #0
   8735c:	6465      	str	r5, [r4, #68]	; 0x44
   8735e:	4629      	mov	r1, r5
   87360:	4620      	mov	r0, r4
   87362:	f001 fe6f 	bl	89044 <_Balloc>
   87366:	f04f 39ff 	mov.w	r9, #4294967295
   8736a:	2601      	movs	r6, #1
   8736c:	9009      	str	r0, [sp, #36]	; 0x24
   8736e:	9525      	str	r5, [sp, #148]	; 0x94
   87370:	6420      	str	r0, [r4, #64]	; 0x40
   87372:	f8cd 903c 	str.w	r9, [sp, #60]	; 0x3c
   87376:	960b      	str	r6, [sp, #44]	; 0x2c
   87378:	9b19      	ldr	r3, [sp, #100]	; 0x64
   8737a:	2b00      	cmp	r3, #0
   8737c:	f2c0 80d2 	blt.w	87524 <_dtoa_r+0x3c4>
   87380:	9e07      	ldr	r6, [sp, #28]
   87382:	2e0e      	cmp	r6, #14
   87384:	f300 80ce 	bgt.w	87524 <_dtoa_r+0x3c4>
   87388:	4b2b      	ldr	r3, [pc, #172]	; (87438 <_dtoa_r+0x2d8>)
   8738a:	eb03 03c6 	add.w	r3, r3, r6, lsl #3
   8738e:	e9d3 0100 	ldrd	r0, r1, [r3]
   87392:	e9cd 0104 	strd	r0, r1, [sp, #16]
   87396:	9925      	ldr	r1, [sp, #148]	; 0x94
   87398:	2900      	cmp	r1, #0
   8739a:	f2c0 8380 	blt.w	87a9e <_dtoa_r+0x93e>
   8739e:	e9dd 2304 	ldrd	r2, r3, [sp, #16]
   873a2:	4659      	mov	r1, fp
   873a4:	4650      	mov	r0, sl
   873a6:	f7fd f911 	bl	845cc <__aeabi_ddiv>
   873aa:	f7fd fa7f 	bl	848ac <__aeabi_d2iz>
   873ae:	4605      	mov	r5, r0
   873b0:	f7fc ff7c 	bl	842ac <__aeabi_i2d>
   873b4:	e9dd 2304 	ldrd	r2, r3, [sp, #16]
   873b8:	f7fc ffde 	bl	84378 <__aeabi_dmul>
   873bc:	4602      	mov	r2, r0
   873be:	460b      	mov	r3, r1
   873c0:	4650      	mov	r0, sl
   873c2:	4659      	mov	r1, fp
   873c4:	f7fc fe24 	bl	84010 <__aeabi_dsub>
   873c8:	9a09      	ldr	r2, [sp, #36]	; 0x24
   873ca:	f105 0330 	add.w	r3, r5, #48	; 0x30
   873ce:	f1b9 0f01 	cmp.w	r9, #1
   873d2:	4606      	mov	r6, r0
   873d4:	460f      	mov	r7, r1
   873d6:	7013      	strb	r3, [r2, #0]
   873d8:	f102 0b01 	add.w	fp, r2, #1
   873dc:	d064      	beq.n	874a8 <_dtoa_r+0x348>
   873de:	2200      	movs	r2, #0
   873e0:	4b18      	ldr	r3, [pc, #96]	; (87444 <_dtoa_r+0x2e4>)
   873e2:	f7fc ffc9 	bl	84378 <__aeabi_dmul>
   873e6:	2200      	movs	r2, #0
   873e8:	2300      	movs	r3, #0
   873ea:	4606      	mov	r6, r0
   873ec:	460f      	mov	r7, r1
   873ee:	f7fd fa2b 	bl	84848 <__aeabi_dcmpeq>
   873f2:	2800      	cmp	r0, #0
   873f4:	f040 8081 	bne.w	874fa <_dtoa_r+0x39a>
   873f8:	f8dd 8024 	ldr.w	r8, [sp, #36]	; 0x24
   873fc:	9d09      	ldr	r5, [sp, #36]	; 0x24
   873fe:	44c8      	add	r8, r9
   87400:	e9dd ab04 	ldrd	sl, fp, [sp, #16]
   87404:	f105 0902 	add.w	r9, r5, #2
   87408:	9403      	str	r4, [sp, #12]
   8740a:	e028      	b.n	8745e <_dtoa_r+0x2fe>
   8740c:	f3af 8000 	nop.w
   87410:	636f4361 	.word	0x636f4361
   87414:	3fd287a7 	.word	0x3fd287a7
   87418:	8b60c8b3 	.word	0x8b60c8b3
   8741c:	3fc68a28 	.word	0x3fc68a28
   87420:	509f79fb 	.word	0x509f79fb
   87424:	3fd34413 	.word	0x3fd34413
   87428:	7ff00000 	.word	0x7ff00000
   8742c:	0008a571 	.word	0x0008a571
   87430:	0008aa14 	.word	0x0008aa14
   87434:	3ff80000 	.word	0x3ff80000
   87438:	0008aa28 	.word	0x0008aa28
   8743c:	0008aa08 	.word	0x0008aa08
   87440:	0008a570 	.word	0x0008a570
   87444:	40240000 	.word	0x40240000
   87448:	f7fc ff96 	bl	84378 <__aeabi_dmul>
   8744c:	2200      	movs	r2, #0
   8744e:	2300      	movs	r3, #0
   87450:	4606      	mov	r6, r0
   87452:	460f      	mov	r7, r1
   87454:	f7fd f9f8 	bl	84848 <__aeabi_dcmpeq>
   87458:	2800      	cmp	r0, #0
   8745a:	f040 83c1 	bne.w	87be0 <_dtoa_r+0xa80>
   8745e:	4652      	mov	r2, sl
   87460:	465b      	mov	r3, fp
   87462:	4630      	mov	r0, r6
   87464:	4639      	mov	r1, r7
   87466:	f7fd f8b1 	bl	845cc <__aeabi_ddiv>
   8746a:	f7fd fa1f 	bl	848ac <__aeabi_d2iz>
   8746e:	4605      	mov	r5, r0
   87470:	f7fc ff1c 	bl	842ac <__aeabi_i2d>
   87474:	4652      	mov	r2, sl
   87476:	465b      	mov	r3, fp
   87478:	f7fc ff7e 	bl	84378 <__aeabi_dmul>
   8747c:	4602      	mov	r2, r0
   8747e:	460b      	mov	r3, r1
   87480:	4630      	mov	r0, r6
   87482:	4639      	mov	r1, r7
   87484:	f7fc fdc4 	bl	84010 <__aeabi_dsub>
   87488:	f105 0e30 	add.w	lr, r5, #48	; 0x30
   8748c:	45c1      	cmp	r9, r8
   8748e:	f809 ec01 	strb.w	lr, [r9, #-1]
   87492:	464c      	mov	r4, r9
   87494:	4606      	mov	r6, r0
   87496:	460f      	mov	r7, r1
   87498:	f04f 0200 	mov.w	r2, #0
   8749c:	4ba7      	ldr	r3, [pc, #668]	; (8773c <_dtoa_r+0x5dc>)
   8749e:	f109 0901 	add.w	r9, r9, #1
   874a2:	d1d1      	bne.n	87448 <_dtoa_r+0x2e8>
   874a4:	46a3      	mov	fp, r4
   874a6:	9c03      	ldr	r4, [sp, #12]
   874a8:	4632      	mov	r2, r6
   874aa:	463b      	mov	r3, r7
   874ac:	4630      	mov	r0, r6
   874ae:	4639      	mov	r1, r7
   874b0:	f7fc fdb0 	bl	84014 <__adddf3>
   874b4:	4606      	mov	r6, r0
   874b6:	460f      	mov	r7, r1
   874b8:	4632      	mov	r2, r6
   874ba:	e9dd 0104 	ldrd	r0, r1, [sp, #16]
   874be:	463b      	mov	r3, r7
   874c0:	f7fd f9cc 	bl	8485c <__aeabi_dcmplt>
   874c4:	b940      	cbnz	r0, 874d8 <_dtoa_r+0x378>
   874c6:	e9dd 0104 	ldrd	r0, r1, [sp, #16]
   874ca:	4632      	mov	r2, r6
   874cc:	463b      	mov	r3, r7
   874ce:	f7fd f9bb 	bl	84848 <__aeabi_dcmpeq>
   874d2:	b190      	cbz	r0, 874fa <_dtoa_r+0x39a>
   874d4:	07eb      	lsls	r3, r5, #31
   874d6:	d510      	bpl.n	874fa <_dtoa_r+0x39a>
   874d8:	f81b 5c01 	ldrb.w	r5, [fp, #-1]
   874dc:	9a09      	ldr	r2, [sp, #36]	; 0x24
   874de:	e005      	b.n	874ec <_dtoa_r+0x38c>
   874e0:	429a      	cmp	r2, r3
   874e2:	f000 8429 	beq.w	87d38 <_dtoa_r+0xbd8>
   874e6:	f813 5c01 	ldrb.w	r5, [r3, #-1]
   874ea:	469b      	mov	fp, r3
   874ec:	2d39      	cmp	r5, #57	; 0x39
   874ee:	f10b 33ff 	add.w	r3, fp, #4294967295
   874f2:	d0f5      	beq.n	874e0 <_dtoa_r+0x380>
   874f4:	1c6a      	adds	r2, r5, #1
   874f6:	b2d2      	uxtb	r2, r2
   874f8:	701a      	strb	r2, [r3, #0]
   874fa:	4620      	mov	r0, r4
   874fc:	990a      	ldr	r1, [sp, #40]	; 0x28
   874fe:	f001 fdc7 	bl	89090 <_Bfree>
   87502:	9e07      	ldr	r6, [sp, #28]
   87504:	9d26      	ldr	r5, [sp, #152]	; 0x98
   87506:	1c73      	adds	r3, r6, #1
   87508:	9e28      	ldr	r6, [sp, #160]	; 0xa0
   8750a:	2200      	movs	r2, #0
   8750c:	f88b 2000 	strb.w	r2, [fp]
   87510:	602b      	str	r3, [r5, #0]
   87512:	2e00      	cmp	r6, #0
   87514:	f000 8325 	beq.w	87b62 <_dtoa_r+0xa02>
   87518:	9809      	ldr	r0, [sp, #36]	; 0x24
   8751a:	f8c6 b000 	str.w	fp, [r6]
   8751e:	b01b      	add	sp, #108	; 0x6c
   87520:	e8bd 8ff0 	ldmia.w	sp!, {r4, r5, r6, r7, r8, r9, sl, fp, pc}
   87524:	9d0b      	ldr	r5, [sp, #44]	; 0x2c
   87526:	2d00      	cmp	r5, #0
   87528:	f000 8103 	beq.w	87732 <_dtoa_r+0x5d2>
   8752c:	9e24      	ldr	r6, [sp, #144]	; 0x90
   8752e:	2e01      	cmp	r6, #1
   87530:	f340 82dc 	ble.w	87aec <_dtoa_r+0x98c>
   87534:	9e0c      	ldr	r6, [sp, #48]	; 0x30
   87536:	f109 37ff 	add.w	r7, r9, #4294967295
   8753a:	42be      	cmp	r6, r7
   8753c:	f2c0 8389 	blt.w	87c52 <_dtoa_r+0xaf2>
   87540:	1bf7      	subs	r7, r6, r7
   87542:	f1b9 0f00 	cmp.w	r9, #0
   87546:	f2c0 8487 	blt.w	87e58 <_dtoa_r+0xcf8>
   8754a:	9d08      	ldr	r5, [sp, #32]
   8754c:	464b      	mov	r3, r9
   8754e:	9e08      	ldr	r6, [sp, #32]
   87550:	4620      	mov	r0, r4
   87552:	441e      	add	r6, r3
   87554:	9608      	str	r6, [sp, #32]
   87556:	9e06      	ldr	r6, [sp, #24]
   87558:	2101      	movs	r1, #1
   8755a:	441e      	add	r6, r3
   8755c:	9606      	str	r6, [sp, #24]
   8755e:	f001 fe39 	bl	891d4 <__i2b>
   87562:	4606      	mov	r6, r0
   87564:	b165      	cbz	r5, 87580 <_dtoa_r+0x420>
   87566:	9806      	ldr	r0, [sp, #24]
   87568:	2800      	cmp	r0, #0
   8756a:	dd09      	ble.n	87580 <_dtoa_r+0x420>
   8756c:	4603      	mov	r3, r0
   8756e:	9908      	ldr	r1, [sp, #32]
   87570:	42ab      	cmp	r3, r5
   87572:	bfa8      	it	ge
   87574:	462b      	movge	r3, r5
   87576:	1ac9      	subs	r1, r1, r3
   87578:	1ac0      	subs	r0, r0, r3
   8757a:	9108      	str	r1, [sp, #32]
   8757c:	1aed      	subs	r5, r5, r3
   8757e:	9006      	str	r0, [sp, #24]
   87580:	9a0c      	ldr	r2, [sp, #48]	; 0x30
   87582:	2a00      	cmp	r2, #0
   87584:	dd1d      	ble.n	875c2 <_dtoa_r+0x462>
   87586:	9b0b      	ldr	r3, [sp, #44]	; 0x2c
   87588:	2b00      	cmp	r3, #0
   8758a:	f000 8358 	beq.w	87c3e <_dtoa_r+0xade>
   8758e:	2f00      	cmp	r7, #0
   87590:	dd11      	ble.n	875b6 <_dtoa_r+0x456>
   87592:	4631      	mov	r1, r6
   87594:	463a      	mov	r2, r7
   87596:	4620      	mov	r0, r4
   87598:	f001 fec4 	bl	89324 <__pow5mult>
   8759c:	4606      	mov	r6, r0
   8759e:	4631      	mov	r1, r6
   875a0:	9a0a      	ldr	r2, [sp, #40]	; 0x28
   875a2:	4620      	mov	r0, r4
   875a4:	f001 fe20 	bl	891e8 <__multiply>
   875a8:	990a      	ldr	r1, [sp, #40]	; 0x28
   875aa:	4680      	mov	r8, r0
   875ac:	4620      	mov	r0, r4
   875ae:	f001 fd6f 	bl	89090 <_Bfree>
   875b2:	f8cd 8028 	str.w	r8, [sp, #40]	; 0x28
   875b6:	f8dd e030 	ldr.w	lr, [sp, #48]	; 0x30
   875ba:	ebbe 0207 	subs.w	r2, lr, r7
   875be:	f040 828f 	bne.w	87ae0 <_dtoa_r+0x980>
   875c2:	4620      	mov	r0, r4
   875c4:	2101      	movs	r1, #1
   875c6:	f001 fe05 	bl	891d4 <__i2b>
   875ca:	4680      	mov	r8, r0
   875cc:	980d      	ldr	r0, [sp, #52]	; 0x34
   875ce:	2800      	cmp	r0, #0
   875d0:	dd05      	ble.n	875de <_dtoa_r+0x47e>
   875d2:	4641      	mov	r1, r8
   875d4:	4620      	mov	r0, r4
   875d6:	9a0d      	ldr	r2, [sp, #52]	; 0x34
   875d8:	f001 fea4 	bl	89324 <__pow5mult>
   875dc:	4680      	mov	r8, r0
   875de:	9924      	ldr	r1, [sp, #144]	; 0x90
   875e0:	2901      	cmp	r1, #1
   875e2:	f340 82c1 	ble.w	87b68 <_dtoa_r+0xa08>
   875e6:	2700      	movs	r7, #0
   875e8:	980d      	ldr	r0, [sp, #52]	; 0x34
   875ea:	2800      	cmp	r0, #0
   875ec:	f040 82af 	bne.w	87b4e <_dtoa_r+0x9ee>
   875f0:	2001      	movs	r0, #1
   875f2:	9b06      	ldr	r3, [sp, #24]
   875f4:	4403      	add	r3, r0
   875f6:	f013 031f 	ands.w	r3, r3, #31
   875fa:	f000 80a1 	beq.w	87740 <_dtoa_r+0x5e0>
   875fe:	f1c3 0220 	rsb	r2, r3, #32
   87602:	2a04      	cmp	r2, #4
   87604:	f340 84b7 	ble.w	87f76 <_dtoa_r+0xe16>
   87608:	9908      	ldr	r1, [sp, #32]
   8760a:	9a06      	ldr	r2, [sp, #24]
   8760c:	f1c3 031c 	rsb	r3, r3, #28
   87610:	4419      	add	r1, r3
   87612:	441a      	add	r2, r3
   87614:	9108      	str	r1, [sp, #32]
   87616:	441d      	add	r5, r3
   87618:	9206      	str	r2, [sp, #24]
   8761a:	9908      	ldr	r1, [sp, #32]
   8761c:	2900      	cmp	r1, #0
   8761e:	dd05      	ble.n	8762c <_dtoa_r+0x4cc>
   87620:	990a      	ldr	r1, [sp, #40]	; 0x28
   87622:	9a08      	ldr	r2, [sp, #32]
   87624:	4620      	mov	r0, r4
   87626:	f001 fecb 	bl	893c0 <__lshift>
   8762a:	900a      	str	r0, [sp, #40]	; 0x28
   8762c:	9a06      	ldr	r2, [sp, #24]
   8762e:	2a00      	cmp	r2, #0
   87630:	dd04      	ble.n	8763c <_dtoa_r+0x4dc>
   87632:	4641      	mov	r1, r8
   87634:	4620      	mov	r0, r4
   87636:	f001 fec3 	bl	893c0 <__lshift>
   8763a:	4680      	mov	r8, r0
   8763c:	9b0e      	ldr	r3, [sp, #56]	; 0x38
   8763e:	2b00      	cmp	r3, #0
   87640:	f040 826a 	bne.w	87b18 <_dtoa_r+0x9b8>
   87644:	f1b9 0f00 	cmp.w	r9, #0
   87648:	f340 82a6 	ble.w	87b98 <_dtoa_r+0xa38>
   8764c:	980b      	ldr	r0, [sp, #44]	; 0x2c
   8764e:	2800      	cmp	r0, #0
   87650:	f040 8088 	bne.w	87764 <_dtoa_r+0x604>
   87654:	9d0b      	ldr	r5, [sp, #44]	; 0x2c
   87656:	9f0a      	ldr	r7, [sp, #40]	; 0x28
   87658:	f8dd b024 	ldr.w	fp, [sp, #36]	; 0x24
   8765c:	e006      	b.n	8766c <_dtoa_r+0x50c>
   8765e:	4639      	mov	r1, r7
   87660:	4620      	mov	r0, r4
   87662:	220a      	movs	r2, #10
   87664:	2300      	movs	r3, #0
   87666:	f001 fd1d 	bl	890a4 <__multadd>
   8766a:	4607      	mov	r7, r0
   8766c:	4638      	mov	r0, r7
   8766e:	4641      	mov	r1, r8
   87670:	f7ff fcdc 	bl	8702c <quorem>
   87674:	3030      	adds	r0, #48	; 0x30
   87676:	f80b 0005 	strb.w	r0, [fp, r5]
   8767a:	3501      	adds	r5, #1
   8767c:	45a9      	cmp	r9, r5
   8767e:	dcee      	bgt.n	8765e <_dtoa_r+0x4fe>
   87680:	f8dd b024 	ldr.w	fp, [sp, #36]	; 0x24
   87684:	4682      	mov	sl, r0
   87686:	970a      	str	r7, [sp, #40]	; 0x28
   87688:	f1b9 0f01 	cmp.w	r9, #1
   8768c:	bfac      	ite	ge
   8768e:	44cb      	addge	fp, r9
   87690:	f10b 0b01 	addlt.w	fp, fp, #1
   87694:	2500      	movs	r5, #0
   87696:	990a      	ldr	r1, [sp, #40]	; 0x28
   87698:	2201      	movs	r2, #1
   8769a:	4620      	mov	r0, r4
   8769c:	f001 fe90 	bl	893c0 <__lshift>
   876a0:	4641      	mov	r1, r8
   876a2:	900a      	str	r0, [sp, #40]	; 0x28
   876a4:	f001 feea 	bl	8947c <__mcmp>
   876a8:	2800      	cmp	r0, #0
   876aa:	f340 8309 	ble.w	87cc0 <_dtoa_r+0xb60>
   876ae:	f81b 2c01 	ldrb.w	r2, [fp, #-1]
   876b2:	9909      	ldr	r1, [sp, #36]	; 0x24
   876b4:	e005      	b.n	876c2 <_dtoa_r+0x562>
   876b6:	4299      	cmp	r1, r3
   876b8:	f000 828b 	beq.w	87bd2 <_dtoa_r+0xa72>
   876bc:	f813 2c01 	ldrb.w	r2, [r3, #-1]
   876c0:	469b      	mov	fp, r3
   876c2:	2a39      	cmp	r2, #57	; 0x39
   876c4:	f10b 33ff 	add.w	r3, fp, #4294967295
   876c8:	d0f5      	beq.n	876b6 <_dtoa_r+0x556>
   876ca:	3201      	adds	r2, #1
   876cc:	701a      	strb	r2, [r3, #0]
   876ce:	4641      	mov	r1, r8
   876d0:	4620      	mov	r0, r4
   876d2:	f001 fcdd 	bl	89090 <_Bfree>
   876d6:	2e00      	cmp	r6, #0
   876d8:	f43f af0f 	beq.w	874fa <_dtoa_r+0x39a>
   876dc:	b12d      	cbz	r5, 876ea <_dtoa_r+0x58a>
   876de:	42b5      	cmp	r5, r6
   876e0:	d003      	beq.n	876ea <_dtoa_r+0x58a>
   876e2:	4629      	mov	r1, r5
   876e4:	4620      	mov	r0, r4
   876e6:	f001 fcd3 	bl	89090 <_Bfree>
   876ea:	4631      	mov	r1, r6
   876ec:	4620      	mov	r0, r4
   876ee:	f001 fccf 	bl	89090 <_Bfree>
   876f2:	e702      	b.n	874fa <_dtoa_r+0x39a>
   876f4:	2601      	movs	r6, #1
   876f6:	960e      	str	r6, [sp, #56]	; 0x38
   876f8:	e5ea      	b.n	872d0 <_dtoa_r+0x170>
   876fa:	9807      	ldr	r0, [sp, #28]
   876fc:	f7fc fdd6 	bl	842ac <__aeabi_i2d>
   87700:	4632      	mov	r2, r6
   87702:	463b      	mov	r3, r7
   87704:	f7fd f8a0 	bl	84848 <__aeabi_dcmpeq>
   87708:	2800      	cmp	r0, #0
   8770a:	f47f adcd 	bne.w	872a8 <_dtoa_r+0x148>
   8770e:	9e07      	ldr	r6, [sp, #28]
   87710:	3e01      	subs	r6, #1
   87712:	9607      	str	r6, [sp, #28]
   87714:	e5c8      	b.n	872a8 <_dtoa_r+0x148>
   87716:	9e07      	ldr	r6, [sp, #28]
   87718:	9d08      	ldr	r5, [sp, #32]
   8771a:	1bad      	subs	r5, r5, r6
   8771c:	9508      	str	r5, [sp, #32]
   8771e:	4275      	negs	r5, r6
   87720:	2600      	movs	r6, #0
   87722:	950c      	str	r5, [sp, #48]	; 0x30
   87724:	960d      	str	r6, [sp, #52]	; 0x34
   87726:	e5e5      	b.n	872f4 <_dtoa_r+0x194>
   87728:	426d      	negs	r5, r5
   8772a:	2600      	movs	r6, #0
   8772c:	9508      	str	r5, [sp, #32]
   8772e:	9606      	str	r6, [sp, #24]
   87730:	e5d6      	b.n	872e0 <_dtoa_r+0x180>
   87732:	9f0c      	ldr	r7, [sp, #48]	; 0x30
   87734:	9d08      	ldr	r5, [sp, #32]
   87736:	9e0b      	ldr	r6, [sp, #44]	; 0x2c
   87738:	e714      	b.n	87564 <_dtoa_r+0x404>
   8773a:	bf00      	nop
   8773c:	40240000 	.word	0x40240000
   87740:	231c      	movs	r3, #28
   87742:	f8dd e020 	ldr.w	lr, [sp, #32]
   87746:	9806      	ldr	r0, [sp, #24]
   87748:	449e      	add	lr, r3
   8774a:	4418      	add	r0, r3
   8774c:	f8cd e020 	str.w	lr, [sp, #32]
   87750:	441d      	add	r5, r3
   87752:	9006      	str	r0, [sp, #24]
   87754:	e761      	b.n	8761a <_dtoa_r+0x4ba>
   87756:	48a7      	ldr	r0, [pc, #668]	; (879f4 <_dtoa_r+0x894>)
   87758:	1b40      	subs	r0, r0, r5
   8775a:	fa0a f000 	lsl.w	r0, sl, r0
   8775e:	e56f      	b.n	87240 <_dtoa_r+0xe0>
   87760:	900e      	str	r0, [sp, #56]	; 0x38
   87762:	e5b5      	b.n	872d0 <_dtoa_r+0x170>
   87764:	2d00      	cmp	r5, #0
   87766:	dd05      	ble.n	87774 <_dtoa_r+0x614>
   87768:	4631      	mov	r1, r6
   8776a:	462a      	mov	r2, r5
   8776c:	4620      	mov	r0, r4
   8776e:	f001 fe27 	bl	893c0 <__lshift>
   87772:	4606      	mov	r6, r0
   87774:	2f00      	cmp	r7, #0
   87776:	f040 82e9 	bne.w	87d4c <_dtoa_r+0xbec>
   8777a:	4637      	mov	r7, r6
   8777c:	9d09      	ldr	r5, [sp, #36]	; 0x24
   8777e:	9809      	ldr	r0, [sp, #36]	; 0x24
   87780:	444d      	add	r5, r9
   87782:	9508      	str	r5, [sp, #32]
   87784:	f00a 0501 	and.w	r5, sl, #1
   87788:	950b      	str	r5, [sp, #44]	; 0x2c
   8778a:	f8dd 9028 	ldr.w	r9, [sp, #40]	; 0x28
   8778e:	1c45      	adds	r5, r0, #1
   87790:	e00a      	b.n	877a8 <_dtoa_r+0x648>
   87792:	f001 fc87 	bl	890a4 <__multadd>
   87796:	4639      	mov	r1, r7
   87798:	4606      	mov	r6, r0
   8779a:	220a      	movs	r2, #10
   8779c:	4620      	mov	r0, r4
   8779e:	2300      	movs	r3, #0
   877a0:	f001 fc80 	bl	890a4 <__multadd>
   877a4:	4607      	mov	r7, r0
   877a6:	3501      	adds	r5, #1
   877a8:	4641      	mov	r1, r8
   877aa:	4648      	mov	r0, r9
   877ac:	f7ff fc3e 	bl	8702c <quorem>
   877b0:	4631      	mov	r1, r6
   877b2:	4683      	mov	fp, r0
   877b4:	4648      	mov	r0, r9
   877b6:	f001 fe61 	bl	8947c <__mcmp>
   877ba:	4641      	mov	r1, r8
   877bc:	9003      	str	r0, [sp, #12]
   877be:	463a      	mov	r2, r7
   877c0:	4620      	mov	r0, r4
   877c2:	f001 fe7f 	bl	894c4 <__mdiff>
   877c6:	68c2      	ldr	r2, [r0, #12]
   877c8:	1e69      	subs	r1, r5, #1
   877ca:	4603      	mov	r3, r0
   877cc:	f10b 0a30 	add.w	sl, fp, #48	; 0x30
   877d0:	9106      	str	r1, [sp, #24]
   877d2:	2a00      	cmp	r2, #0
   877d4:	f040 8193 	bne.w	87afe <_dtoa_r+0x99e>
   877d8:	4619      	mov	r1, r3
   877da:	4648      	mov	r0, r9
   877dc:	9302      	str	r3, [sp, #8]
   877de:	f001 fe4d 	bl	8947c <__mcmp>
   877e2:	9b02      	ldr	r3, [sp, #8]
   877e4:	4602      	mov	r2, r0
   877e6:	4619      	mov	r1, r3
   877e8:	4620      	mov	r0, r4
   877ea:	9202      	str	r2, [sp, #8]
   877ec:	f001 fc50 	bl	89090 <_Bfree>
   877f0:	9a02      	ldr	r2, [sp, #8]
   877f2:	b92a      	cbnz	r2, 87800 <_dtoa_r+0x6a0>
   877f4:	9b24      	ldr	r3, [sp, #144]	; 0x90
   877f6:	b91b      	cbnz	r3, 87800 <_dtoa_r+0x6a0>
   877f8:	980b      	ldr	r0, [sp, #44]	; 0x2c
   877fa:	2800      	cmp	r0, #0
   877fc:	f000 8393 	beq.w	87f26 <_dtoa_r+0xdc6>
   87800:	9b03      	ldr	r3, [sp, #12]
   87802:	2b00      	cmp	r3, #0
   87804:	f2c0 8234 	blt.w	87c70 <_dtoa_r+0xb10>
   87808:	d105      	bne.n	87816 <_dtoa_r+0x6b6>
   8780a:	9824      	ldr	r0, [sp, #144]	; 0x90
   8780c:	b918      	cbnz	r0, 87816 <_dtoa_r+0x6b6>
   8780e:	990b      	ldr	r1, [sp, #44]	; 0x2c
   87810:	2900      	cmp	r1, #0
   87812:	f000 822d 	beq.w	87c70 <_dtoa_r+0xb10>
   87816:	2a00      	cmp	r2, #0
   87818:	f300 82ac 	bgt.w	87d74 <_dtoa_r+0xc14>
   8781c:	f8dd e020 	ldr.w	lr, [sp, #32]
   87820:	f805 ac01 	strb.w	sl, [r5, #-1]
   87824:	4575      	cmp	r5, lr
   87826:	46ab      	mov	fp, r5
   87828:	f000 82b4 	beq.w	87d94 <_dtoa_r+0xc34>
   8782c:	4649      	mov	r1, r9
   8782e:	220a      	movs	r2, #10
   87830:	2300      	movs	r3, #0
   87832:	4620      	mov	r0, r4
   87834:	f001 fc36 	bl	890a4 <__multadd>
   87838:	42be      	cmp	r6, r7
   8783a:	4681      	mov	r9, r0
   8783c:	4631      	mov	r1, r6
   8783e:	4620      	mov	r0, r4
   87840:	f04f 020a 	mov.w	r2, #10
   87844:	f04f 0300 	mov.w	r3, #0
   87848:	d1a3      	bne.n	87792 <_dtoa_r+0x632>
   8784a:	f001 fc2b 	bl	890a4 <__multadd>
   8784e:	4606      	mov	r6, r0
   87850:	4607      	mov	r7, r0
   87852:	e7a8      	b.n	877a6 <_dtoa_r+0x646>
   87854:	2600      	movs	r6, #0
   87856:	960b      	str	r6, [sp, #44]	; 0x2c
   87858:	9e07      	ldr	r6, [sp, #28]
   8785a:	f8dd e094 	ldr.w	lr, [sp, #148]	; 0x94
   8785e:	44b6      	add	lr, r6
   87860:	f10e 0901 	add.w	r9, lr, #1
   87864:	f1b9 0f00 	cmp.w	r9, #0
   87868:	f8cd e03c 	str.w	lr, [sp, #60]	; 0x3c
   8786c:	464e      	mov	r6, r9
   8786e:	f340 8150 	ble.w	87b12 <_dtoa_r+0x9b2>
   87872:	2100      	movs	r1, #0
   87874:	2e17      	cmp	r6, #23
   87876:	6461      	str	r1, [r4, #68]	; 0x44
   87878:	d90a      	bls.n	87890 <_dtoa_r+0x730>
   8787a:	2201      	movs	r2, #1
   8787c:	2304      	movs	r3, #4
   8787e:	005b      	lsls	r3, r3, #1
   87880:	f103 0014 	add.w	r0, r3, #20
   87884:	42b0      	cmp	r0, r6
   87886:	4611      	mov	r1, r2
   87888:	f102 0201 	add.w	r2, r2, #1
   8788c:	d9f7      	bls.n	8787e <_dtoa_r+0x71e>
   8788e:	6461      	str	r1, [r4, #68]	; 0x44
   87890:	4620      	mov	r0, r4
   87892:	f001 fbd7 	bl	89044 <_Balloc>
   87896:	2e0e      	cmp	r6, #14
   87898:	9009      	str	r0, [sp, #36]	; 0x24
   8789a:	6420      	str	r0, [r4, #64]	; 0x40
   8789c:	f63f ad6c 	bhi.w	87378 <_dtoa_r+0x218>
   878a0:	2d00      	cmp	r5, #0
   878a2:	f43f ad69 	beq.w	87378 <_dtoa_r+0x218>
   878a6:	9d07      	ldr	r5, [sp, #28]
   878a8:	e9cd ab12 	strd	sl, fp, [sp, #72]	; 0x48
   878ac:	2d00      	cmp	r5, #0
   878ae:	f340 821c 	ble.w	87cea <_dtoa_r+0xb8a>
   878b2:	4b51      	ldr	r3, [pc, #324]	; (879f8 <_dtoa_r+0x898>)
   878b4:	f005 020f 	and.w	r2, r5, #15
   878b8:	eb03 03c2 	add.w	r3, r3, r2, lsl #3
   878bc:	112d      	asrs	r5, r5, #4
   878be:	e9d3 6700 	ldrd	r6, r7, [r3]
   878c2:	06eb      	lsls	r3, r5, #27
   878c4:	f140 81cd 	bpl.w	87c62 <_dtoa_r+0xb02>
   878c8:	4b4c      	ldr	r3, [pc, #304]	; (879fc <_dtoa_r+0x89c>)
   878ca:	4650      	mov	r0, sl
   878cc:	4659      	mov	r1, fp
   878ce:	e9d3 2308 	ldrd	r2, r3, [r3, #32]
   878d2:	f7fc fe7b 	bl	845cc <__aeabi_ddiv>
   878d6:	e9cd 0110 	strd	r0, r1, [sp, #64]	; 0x40
   878da:	f005 050f 	and.w	r5, r5, #15
   878de:	f04f 0803 	mov.w	r8, #3
   878e2:	b18d      	cbz	r5, 87908 <_dtoa_r+0x7a8>
   878e4:	f8df a114 	ldr.w	sl, [pc, #276]	; 879fc <_dtoa_r+0x89c>
   878e8:	4630      	mov	r0, r6
   878ea:	4639      	mov	r1, r7
   878ec:	07ee      	lsls	r6, r5, #31
   878ee:	d505      	bpl.n	878fc <_dtoa_r+0x79c>
   878f0:	e9da 2300 	ldrd	r2, r3, [sl]
   878f4:	f108 0801 	add.w	r8, r8, #1
   878f8:	f7fc fd3e 	bl	84378 <__aeabi_dmul>
   878fc:	106d      	asrs	r5, r5, #1
   878fe:	f10a 0a08 	add.w	sl, sl, #8
   87902:	d1f3      	bne.n	878ec <_dtoa_r+0x78c>
   87904:	4606      	mov	r6, r0
   87906:	460f      	mov	r7, r1
   87908:	e9dd 0110 	ldrd	r0, r1, [sp, #64]	; 0x40
   8790c:	4632      	mov	r2, r6
   8790e:	463b      	mov	r3, r7
   87910:	f7fc fe5c 	bl	845cc <__aeabi_ddiv>
   87914:	4682      	mov	sl, r0
   87916:	468b      	mov	fp, r1
   87918:	9d0e      	ldr	r5, [sp, #56]	; 0x38
   8791a:	b145      	cbz	r5, 8792e <_dtoa_r+0x7ce>
   8791c:	4650      	mov	r0, sl
   8791e:	4659      	mov	r1, fp
   87920:	2200      	movs	r2, #0
   87922:	4b37      	ldr	r3, [pc, #220]	; (87a00 <_dtoa_r+0x8a0>)
   87924:	f7fc ff9a 	bl	8485c <__aeabi_dcmplt>
   87928:	2800      	cmp	r0, #0
   8792a:	f040 82aa 	bne.w	87e82 <_dtoa_r+0xd22>
   8792e:	4640      	mov	r0, r8
   87930:	f7fc fcbc 	bl	842ac <__aeabi_i2d>
   87934:	4652      	mov	r2, sl
   87936:	465b      	mov	r3, fp
   87938:	f7fc fd1e 	bl	84378 <__aeabi_dmul>
   8793c:	2200      	movs	r2, #0
   8793e:	4b31      	ldr	r3, [pc, #196]	; (87a04 <_dtoa_r+0x8a4>)
   87940:	f7fc fb68 	bl	84014 <__adddf3>
   87944:	4606      	mov	r6, r0
   87946:	f1a1 7750 	sub.w	r7, r1, #54525952	; 0x3400000
   8794a:	f1b9 0f00 	cmp.w	r9, #0
   8794e:	f000 815a 	beq.w	87c06 <_dtoa_r+0xaa6>
   87952:	9d07      	ldr	r5, [sp, #28]
   87954:	46c8      	mov	r8, r9
   87956:	9517      	str	r5, [sp, #92]	; 0x5c
   87958:	9d0b      	ldr	r5, [sp, #44]	; 0x2c
   8795a:	2d00      	cmp	r5, #0
   8795c:	f000 8223 	beq.w	87da6 <_dtoa_r+0xc46>
   87960:	4b25      	ldr	r3, [pc, #148]	; (879f8 <_dtoa_r+0x898>)
   87962:	2000      	movs	r0, #0
   87964:	eb03 03c8 	add.w	r3, r3, r8, lsl #3
   87968:	e953 2302 	ldrd	r2, r3, [r3, #-8]
   8796c:	4926      	ldr	r1, [pc, #152]	; (87a08 <_dtoa_r+0x8a8>)
   8796e:	f7fc fe2d 	bl	845cc <__aeabi_ddiv>
   87972:	4632      	mov	r2, r6
   87974:	463b      	mov	r3, r7
   87976:	f7fc fb4b 	bl	84010 <__aeabi_dsub>
   8797a:	e9cd 0110 	strd	r0, r1, [sp, #64]	; 0x40
   8797e:	4659      	mov	r1, fp
   87980:	4650      	mov	r0, sl
   87982:	f7fc ff93 	bl	848ac <__aeabi_d2iz>
   87986:	4605      	mov	r5, r0
   87988:	f7fc fc90 	bl	842ac <__aeabi_i2d>
   8798c:	4602      	mov	r2, r0
   8798e:	460b      	mov	r3, r1
   87990:	4650      	mov	r0, sl
   87992:	4659      	mov	r1, fp
   87994:	f7fc fb3c 	bl	84010 <__aeabi_dsub>
   87998:	3530      	adds	r5, #48	; 0x30
   8799a:	9e09      	ldr	r6, [sp, #36]	; 0x24
   8799c:	e9cd 0104 	strd	r0, r1, [sp, #16]
   879a0:	e9dd 2304 	ldrd	r2, r3, [sp, #16]
   879a4:	e9dd 0110 	ldrd	r0, r1, [sp, #64]	; 0x40
   879a8:	b2ed      	uxtb	r5, r5
   879aa:	7035      	strb	r5, [r6, #0]
   879ac:	f106 0b01 	add.w	fp, r6, #1
   879b0:	f7fc ff72 	bl	84898 <__aeabi_dcmpgt>
   879b4:	2800      	cmp	r0, #0
   879b6:	f040 82ab 	bne.w	87f10 <_dtoa_r+0xdb0>
   879ba:	e9dd 2304 	ldrd	r2, r3, [sp, #16]
   879be:	2000      	movs	r0, #0
   879c0:	490f      	ldr	r1, [pc, #60]	; (87a00 <_dtoa_r+0x8a0>)
   879c2:	f7fc fb25 	bl	84010 <__aeabi_dsub>
   879c6:	4602      	mov	r2, r0
   879c8:	460b      	mov	r3, r1
   879ca:	e9dd 0110 	ldrd	r0, r1, [sp, #64]	; 0x40
   879ce:	f7fc ff63 	bl	84898 <__aeabi_dcmpgt>
   879d2:	2800      	cmp	r0, #0
   879d4:	f040 82a2 	bne.w	87f1c <_dtoa_r+0xdbc>
   879d8:	f1b8 0f01 	cmp.w	r8, #1
   879dc:	f340 8181 	ble.w	87ce2 <_dtoa_r+0xb82>
   879e0:	44b0      	add	r8, r6
   879e2:	f8cd 9050 	str.w	r9, [sp, #80]	; 0x50
   879e6:	46a2      	mov	sl, r4
   879e8:	46c1      	mov	r9, r8
   879ea:	e9dd 6704 	ldrd	r6, r7, [sp, #16]
   879ee:	e9dd 4510 	ldrd	r4, r5, [sp, #64]	; 0x40
   879f2:	e019      	b.n	87a28 <_dtoa_r+0x8c8>
   879f4:	fffffbee 	.word	0xfffffbee
   879f8:	0008aa28 	.word	0x0008aa28
   879fc:	0008aaf0 	.word	0x0008aaf0
   87a00:	3ff00000 	.word	0x3ff00000
   87a04:	401c0000 	.word	0x401c0000
   87a08:	3fe00000 	.word	0x3fe00000
   87a0c:	2000      	movs	r0, #0
   87a0e:	49a8      	ldr	r1, [pc, #672]	; (87cb0 <_dtoa_r+0xb50>)
   87a10:	f7fc fafe 	bl	84010 <__aeabi_dsub>
   87a14:	4622      	mov	r2, r4
   87a16:	462b      	mov	r3, r5
   87a18:	f7fc ff20 	bl	8485c <__aeabi_dcmplt>
   87a1c:	2800      	cmp	r0, #0
   87a1e:	f040 827b 	bne.w	87f18 <_dtoa_r+0xdb8>
   87a22:	45cb      	cmp	fp, r9
   87a24:	f000 815a 	beq.w	87cdc <_dtoa_r+0xb7c>
   87a28:	4620      	mov	r0, r4
   87a2a:	4629      	mov	r1, r5
   87a2c:	2200      	movs	r2, #0
   87a2e:	4ba1      	ldr	r3, [pc, #644]	; (87cb4 <_dtoa_r+0xb54>)
   87a30:	f7fc fca2 	bl	84378 <__aeabi_dmul>
   87a34:	2200      	movs	r2, #0
   87a36:	4b9f      	ldr	r3, [pc, #636]	; (87cb4 <_dtoa_r+0xb54>)
   87a38:	4604      	mov	r4, r0
   87a3a:	460d      	mov	r5, r1
   87a3c:	4630      	mov	r0, r6
   87a3e:	4639      	mov	r1, r7
   87a40:	f7fc fc9a 	bl	84378 <__aeabi_dmul>
   87a44:	460f      	mov	r7, r1
   87a46:	4606      	mov	r6, r0
   87a48:	f7fc ff30 	bl	848ac <__aeabi_d2iz>
   87a4c:	4680      	mov	r8, r0
   87a4e:	f7fc fc2d 	bl	842ac <__aeabi_i2d>
   87a52:	4602      	mov	r2, r0
   87a54:	460b      	mov	r3, r1
   87a56:	4630      	mov	r0, r6
   87a58:	4639      	mov	r1, r7
   87a5a:	f7fc fad9 	bl	84010 <__aeabi_dsub>
   87a5e:	f108 0830 	add.w	r8, r8, #48	; 0x30
   87a62:	fa5f f888 	uxtb.w	r8, r8
   87a66:	4622      	mov	r2, r4
   87a68:	462b      	mov	r3, r5
   87a6a:	f80b 8b01 	strb.w	r8, [fp], #1
   87a6e:	4606      	mov	r6, r0
   87a70:	460f      	mov	r7, r1
   87a72:	f7fc fef3 	bl	8485c <__aeabi_dcmplt>
   87a76:	4632      	mov	r2, r6
   87a78:	463b      	mov	r3, r7
   87a7a:	2800      	cmp	r0, #0
   87a7c:	d0c6      	beq.n	87a0c <_dtoa_r+0x8ac>
   87a7e:	9e17      	ldr	r6, [sp, #92]	; 0x5c
   87a80:	4654      	mov	r4, sl
   87a82:	9607      	str	r6, [sp, #28]
   87a84:	e539      	b.n	874fa <_dtoa_r+0x39a>
   87a86:	2600      	movs	r6, #0
   87a88:	960b      	str	r6, [sp, #44]	; 0x2c
   87a8a:	9825      	ldr	r0, [sp, #148]	; 0x94
   87a8c:	2800      	cmp	r0, #0
   87a8e:	dd3c      	ble.n	87b0a <_dtoa_r+0x9aa>
   87a90:	4606      	mov	r6, r0
   87a92:	900f      	str	r0, [sp, #60]	; 0x3c
   87a94:	4681      	mov	r9, r0
   87a96:	e6ec      	b.n	87872 <_dtoa_r+0x712>
   87a98:	2601      	movs	r6, #1
   87a9a:	960b      	str	r6, [sp, #44]	; 0x2c
   87a9c:	e7f5      	b.n	87a8a <_dtoa_r+0x92a>
   87a9e:	f1b9 0f00 	cmp.w	r9, #0
   87aa2:	f73f ac7c 	bgt.w	8739e <_dtoa_r+0x23e>
   87aa6:	f040 80c6 	bne.w	87c36 <_dtoa_r+0xad6>
   87aaa:	e9dd 0104 	ldrd	r0, r1, [sp, #16]
   87aae:	2200      	movs	r2, #0
   87ab0:	4b81      	ldr	r3, [pc, #516]	; (87cb8 <_dtoa_r+0xb58>)
   87ab2:	f7fc fc61 	bl	84378 <__aeabi_dmul>
   87ab6:	4652      	mov	r2, sl
   87ab8:	465b      	mov	r3, fp
   87aba:	f7fc fee3 	bl	84884 <__aeabi_dcmpge>
   87abe:	46c8      	mov	r8, r9
   87ac0:	464e      	mov	r6, r9
   87ac2:	2800      	cmp	r0, #0
   87ac4:	d07c      	beq.n	87bc0 <_dtoa_r+0xa60>
   87ac6:	9d25      	ldr	r5, [sp, #148]	; 0x94
   87ac8:	f8dd b024 	ldr.w	fp, [sp, #36]	; 0x24
   87acc:	43ed      	mvns	r5, r5
   87ace:	9507      	str	r5, [sp, #28]
   87ad0:	4641      	mov	r1, r8
   87ad2:	4620      	mov	r0, r4
   87ad4:	f001 fadc 	bl	89090 <_Bfree>
   87ad8:	2e00      	cmp	r6, #0
   87ada:	f47f ae06 	bne.w	876ea <_dtoa_r+0x58a>
   87ade:	e50c      	b.n	874fa <_dtoa_r+0x39a>
   87ae0:	990a      	ldr	r1, [sp, #40]	; 0x28
   87ae2:	4620      	mov	r0, r4
   87ae4:	f001 fc1e 	bl	89324 <__pow5mult>
   87ae8:	900a      	str	r0, [sp, #40]	; 0x28
   87aea:	e56a      	b.n	875c2 <_dtoa_r+0x462>
   87aec:	9d16      	ldr	r5, [sp, #88]	; 0x58
   87aee:	2d00      	cmp	r5, #0
   87af0:	f000 81b8 	beq.w	87e64 <_dtoa_r+0xd04>
   87af4:	f203 4333 	addw	r3, r3, #1075	; 0x433
   87af8:	9f0c      	ldr	r7, [sp, #48]	; 0x30
   87afa:	9d08      	ldr	r5, [sp, #32]
   87afc:	e527      	b.n	8754e <_dtoa_r+0x3ee>
   87afe:	4601      	mov	r1, r0
   87b00:	4620      	mov	r0, r4
   87b02:	f001 fac5 	bl	89090 <_Bfree>
   87b06:	2201      	movs	r2, #1
   87b08:	e67a      	b.n	87800 <_dtoa_r+0x6a0>
   87b0a:	2601      	movs	r6, #1
   87b0c:	9625      	str	r6, [sp, #148]	; 0x94
   87b0e:	960f      	str	r6, [sp, #60]	; 0x3c
   87b10:	46b1      	mov	r9, r6
   87b12:	2100      	movs	r1, #0
   87b14:	6461      	str	r1, [r4, #68]	; 0x44
   87b16:	e6bb      	b.n	87890 <_dtoa_r+0x730>
   87b18:	980a      	ldr	r0, [sp, #40]	; 0x28
   87b1a:	4641      	mov	r1, r8
   87b1c:	f001 fcae 	bl	8947c <__mcmp>
   87b20:	2800      	cmp	r0, #0
   87b22:	f6bf ad8f 	bge.w	87644 <_dtoa_r+0x4e4>
   87b26:	f8dd e01c 	ldr.w	lr, [sp, #28]
   87b2a:	990a      	ldr	r1, [sp, #40]	; 0x28
   87b2c:	f10e 3eff 	add.w	lr, lr, #4294967295
   87b30:	4620      	mov	r0, r4
   87b32:	220a      	movs	r2, #10
   87b34:	2300      	movs	r3, #0
   87b36:	f8cd e01c 	str.w	lr, [sp, #28]
   87b3a:	f001 fab3 	bl	890a4 <__multadd>
   87b3e:	900a      	str	r0, [sp, #40]	; 0x28
   87b40:	980b      	ldr	r0, [sp, #44]	; 0x2c
   87b42:	2800      	cmp	r0, #0
   87b44:	f040 8209 	bne.w	87f5a <_dtoa_r+0xdfa>
   87b48:	f8dd 903c 	ldr.w	r9, [sp, #60]	; 0x3c
   87b4c:	e57a      	b.n	87644 <_dtoa_r+0x4e4>
   87b4e:	f8d8 3010 	ldr.w	r3, [r8, #16]
   87b52:	eb08 0383 	add.w	r3, r8, r3, lsl #2
   87b56:	6918      	ldr	r0, [r3, #16]
   87b58:	f001 faee 	bl	89138 <__hi0bits>
   87b5c:	f1c0 0020 	rsb	r0, r0, #32
   87b60:	e547      	b.n	875f2 <_dtoa_r+0x492>
   87b62:	9809      	ldr	r0, [sp, #36]	; 0x24
   87b64:	f7ff bb2c 	b.w	871c0 <_dtoa_r+0x60>
   87b68:	f1ba 0f00 	cmp.w	sl, #0
   87b6c:	f47f ad3b 	bne.w	875e6 <_dtoa_r+0x486>
   87b70:	f3cb 0313 	ubfx	r3, fp, #0, #20
   87b74:	2b00      	cmp	r3, #0
   87b76:	f040 817c 	bne.w	87e72 <_dtoa_r+0xd12>
   87b7a:	f02b 4700 	bic.w	r7, fp, #2147483648	; 0x80000000
   87b7e:	0d3f      	lsrs	r7, r7, #20
   87b80:	053f      	lsls	r7, r7, #20
   87b82:	2f00      	cmp	r7, #0
   87b84:	f43f ad30 	beq.w	875e8 <_dtoa_r+0x488>
   87b88:	9a08      	ldr	r2, [sp, #32]
   87b8a:	9b06      	ldr	r3, [sp, #24]
   87b8c:	3201      	adds	r2, #1
   87b8e:	3301      	adds	r3, #1
   87b90:	9208      	str	r2, [sp, #32]
   87b92:	9306      	str	r3, [sp, #24]
   87b94:	2701      	movs	r7, #1
   87b96:	e527      	b.n	875e8 <_dtoa_r+0x488>
   87b98:	9924      	ldr	r1, [sp, #144]	; 0x90
   87b9a:	2902      	cmp	r1, #2
   87b9c:	f77f ad56 	ble.w	8764c <_dtoa_r+0x4ec>
   87ba0:	f1b9 0f00 	cmp.w	r9, #0
   87ba4:	d18f      	bne.n	87ac6 <_dtoa_r+0x966>
   87ba6:	4641      	mov	r1, r8
   87ba8:	464b      	mov	r3, r9
   87baa:	2205      	movs	r2, #5
   87bac:	4620      	mov	r0, r4
   87bae:	f001 fa79 	bl	890a4 <__multadd>
   87bb2:	4680      	mov	r8, r0
   87bb4:	4641      	mov	r1, r8
   87bb6:	980a      	ldr	r0, [sp, #40]	; 0x28
   87bb8:	f001 fc60 	bl	8947c <__mcmp>
   87bbc:	2800      	cmp	r0, #0
   87bbe:	dd82      	ble.n	87ac6 <_dtoa_r+0x966>
   87bc0:	9d07      	ldr	r5, [sp, #28]
   87bc2:	2331      	movs	r3, #49	; 0x31
   87bc4:	3501      	adds	r5, #1
   87bc6:	9507      	str	r5, [sp, #28]
   87bc8:	9d09      	ldr	r5, [sp, #36]	; 0x24
   87bca:	702b      	strb	r3, [r5, #0]
   87bcc:	f105 0b01 	add.w	fp, r5, #1
   87bd0:	e77e      	b.n	87ad0 <_dtoa_r+0x970>
   87bd2:	9807      	ldr	r0, [sp, #28]
   87bd4:	9909      	ldr	r1, [sp, #36]	; 0x24
   87bd6:	2331      	movs	r3, #49	; 0x31
   87bd8:	3001      	adds	r0, #1
   87bda:	9007      	str	r0, [sp, #28]
   87bdc:	700b      	strb	r3, [r1, #0]
   87bde:	e576      	b.n	876ce <_dtoa_r+0x56e>
   87be0:	46a3      	mov	fp, r4
   87be2:	9c03      	ldr	r4, [sp, #12]
   87be4:	e489      	b.n	874fa <_dtoa_r+0x39a>
   87be6:	4640      	mov	r0, r8
   87be8:	f7fc fb60 	bl	842ac <__aeabi_i2d>
   87bec:	4602      	mov	r2, r0
   87bee:	460b      	mov	r3, r1
   87bf0:	4650      	mov	r0, sl
   87bf2:	4659      	mov	r1, fp
   87bf4:	f7fc fbc0 	bl	84378 <__aeabi_dmul>
   87bf8:	2200      	movs	r2, #0
   87bfa:	4b30      	ldr	r3, [pc, #192]	; (87cbc <_dtoa_r+0xb5c>)
   87bfc:	f7fc fa0a 	bl	84014 <__adddf3>
   87c00:	4606      	mov	r6, r0
   87c02:	f1a1 7750 	sub.w	r7, r1, #54525952	; 0x3400000
   87c06:	4650      	mov	r0, sl
   87c08:	4659      	mov	r1, fp
   87c0a:	2200      	movs	r2, #0
   87c0c:	4b2a      	ldr	r3, [pc, #168]	; (87cb8 <_dtoa_r+0xb58>)
   87c0e:	f7fc f9ff 	bl	84010 <__aeabi_dsub>
   87c12:	4632      	mov	r2, r6
   87c14:	463b      	mov	r3, r7
   87c16:	4682      	mov	sl, r0
   87c18:	468b      	mov	fp, r1
   87c1a:	f7fc fe3d 	bl	84898 <__aeabi_dcmpgt>
   87c1e:	2800      	cmp	r0, #0
   87c20:	f040 80bd 	bne.w	87d9e <_dtoa_r+0xc3e>
   87c24:	4632      	mov	r2, r6
   87c26:	f107 4300 	add.w	r3, r7, #2147483648	; 0x80000000
   87c2a:	4650      	mov	r0, sl
   87c2c:	4659      	mov	r1, fp
   87c2e:	f7fc fe15 	bl	8485c <__aeabi_dcmplt>
   87c32:	2800      	cmp	r0, #0
   87c34:	d055      	beq.n	87ce2 <_dtoa_r+0xb82>
   87c36:	f04f 0800 	mov.w	r8, #0
   87c3a:	4646      	mov	r6, r8
   87c3c:	e743      	b.n	87ac6 <_dtoa_r+0x966>
   87c3e:	990a      	ldr	r1, [sp, #40]	; 0x28
   87c40:	9a0c      	ldr	r2, [sp, #48]	; 0x30
   87c42:	4620      	mov	r0, r4
   87c44:	f001 fb6e 	bl	89324 <__pow5mult>
   87c48:	900a      	str	r0, [sp, #40]	; 0x28
   87c4a:	e4ba      	b.n	875c2 <_dtoa_r+0x462>
   87c4c:	2601      	movs	r6, #1
   87c4e:	960b      	str	r6, [sp, #44]	; 0x2c
   87c50:	e602      	b.n	87858 <_dtoa_r+0x6f8>
   87c52:	9d0c      	ldr	r5, [sp, #48]	; 0x30
   87c54:	9e0d      	ldr	r6, [sp, #52]	; 0x34
   87c56:	1b7b      	subs	r3, r7, r5
   87c58:	441e      	add	r6, r3
   87c5a:	970c      	str	r7, [sp, #48]	; 0x30
   87c5c:	960d      	str	r6, [sp, #52]	; 0x34
   87c5e:	2700      	movs	r7, #0
   87c60:	e46f      	b.n	87542 <_dtoa_r+0x3e2>
   87c62:	e9dd 0112 	ldrd	r0, r1, [sp, #72]	; 0x48
   87c66:	f04f 0802 	mov.w	r8, #2
   87c6a:	e9cd 0110 	strd	r0, r1, [sp, #64]	; 0x40
   87c6e:	e638      	b.n	878e2 <_dtoa_r+0x782>
   87c70:	2a00      	cmp	r2, #0
   87c72:	f8cd 9028 	str.w	r9, [sp, #40]	; 0x28
   87c76:	46d9      	mov	r9, fp
   87c78:	dd11      	ble.n	87c9e <_dtoa_r+0xb3e>
   87c7a:	990a      	ldr	r1, [sp, #40]	; 0x28
   87c7c:	2201      	movs	r2, #1
   87c7e:	4620      	mov	r0, r4
   87c80:	f001 fb9e 	bl	893c0 <__lshift>
   87c84:	4641      	mov	r1, r8
   87c86:	900a      	str	r0, [sp, #40]	; 0x28
   87c88:	f001 fbf8 	bl	8947c <__mcmp>
   87c8c:	2800      	cmp	r0, #0
   87c8e:	f340 815d 	ble.w	87f4c <_dtoa_r+0xdec>
   87c92:	f1ba 0f39 	cmp.w	sl, #57	; 0x39
   87c96:	f000 811b 	beq.w	87ed0 <_dtoa_r+0xd70>
   87c9a:	f109 0a31 	add.w	sl, r9, #49	; 0x31
   87c9e:	9b06      	ldr	r3, [sp, #24]
   87ca0:	4635      	mov	r5, r6
   87ca2:	f883 a000 	strb.w	sl, [r3]
   87ca6:	f103 0b01 	add.w	fp, r3, #1
   87caa:	463e      	mov	r6, r7
   87cac:	e50f      	b.n	876ce <_dtoa_r+0x56e>
   87cae:	bf00      	nop
   87cb0:	3ff00000 	.word	0x3ff00000
   87cb4:	40240000 	.word	0x40240000
   87cb8:	40140000 	.word	0x40140000
   87cbc:	401c0000 	.word	0x401c0000
   87cc0:	d103      	bne.n	87cca <_dtoa_r+0xb6a>
   87cc2:	f01a 0f01 	tst.w	sl, #1
   87cc6:	f47f acf2 	bne.w	876ae <_dtoa_r+0x54e>
   87cca:	465b      	mov	r3, fp
   87ccc:	f813 2c01 	ldrb.w	r2, [r3, #-1]
   87cd0:	469b      	mov	fp, r3
   87cd2:	2a30      	cmp	r2, #48	; 0x30
   87cd4:	f103 33ff 	add.w	r3, r3, #4294967295
   87cd8:	d0f8      	beq.n	87ccc <_dtoa_r+0xb6c>
   87cda:	e4f8      	b.n	876ce <_dtoa_r+0x56e>
   87cdc:	f8dd 9050 	ldr.w	r9, [sp, #80]	; 0x50
   87ce0:	4654      	mov	r4, sl
   87ce2:	e9dd ab12 	ldrd	sl, fp, [sp, #72]	; 0x48
   87ce6:	f7ff bb47 	b.w	87378 <_dtoa_r+0x218>
   87cea:	9e07      	ldr	r6, [sp, #28]
   87cec:	4275      	negs	r5, r6
   87cee:	2d00      	cmp	r5, #0
   87cf0:	f000 80c2 	beq.w	87e78 <_dtoa_r+0xd18>
   87cf4:	4ba3      	ldr	r3, [pc, #652]	; (87f84 <_dtoa_r+0xe24>)
   87cf6:	f005 020f 	and.w	r2, r5, #15
   87cfa:	eb03 03c2 	add.w	r3, r3, r2, lsl #3
   87cfe:	e9d3 2300 	ldrd	r2, r3, [r3]
   87d02:	e9dd 0112 	ldrd	r0, r1, [sp, #72]	; 0x48
   87d06:	f7fc fb37 	bl	84378 <__aeabi_dmul>
   87d0a:	112d      	asrs	r5, r5, #4
   87d0c:	4682      	mov	sl, r0
   87d0e:	468b      	mov	fp, r1
   87d10:	f000 812e 	beq.w	87f70 <_dtoa_r+0xe10>
   87d14:	4e9c      	ldr	r6, [pc, #624]	; (87f88 <_dtoa_r+0xe28>)
   87d16:	f04f 0802 	mov.w	r8, #2
   87d1a:	07ea      	lsls	r2, r5, #31
   87d1c:	d505      	bpl.n	87d2a <_dtoa_r+0xbca>
   87d1e:	e9d6 2300 	ldrd	r2, r3, [r6]
   87d22:	f108 0801 	add.w	r8, r8, #1
   87d26:	f7fc fb27 	bl	84378 <__aeabi_dmul>
   87d2a:	106d      	asrs	r5, r5, #1
   87d2c:	f106 0608 	add.w	r6, r6, #8
   87d30:	d1f3      	bne.n	87d1a <_dtoa_r+0xbba>
   87d32:	4682      	mov	sl, r0
   87d34:	468b      	mov	fp, r1
   87d36:	e5ef      	b.n	87918 <_dtoa_r+0x7b8>
   87d38:	9e07      	ldr	r6, [sp, #28]
   87d3a:	9d09      	ldr	r5, [sp, #36]	; 0x24
   87d3c:	2230      	movs	r2, #48	; 0x30
   87d3e:	702a      	strb	r2, [r5, #0]
   87d40:	3601      	adds	r6, #1
   87d42:	2231      	movs	r2, #49	; 0x31
   87d44:	9607      	str	r6, [sp, #28]
   87d46:	701a      	strb	r2, [r3, #0]
   87d48:	f7ff bbd7 	b.w	874fa <_dtoa_r+0x39a>
   87d4c:	6871      	ldr	r1, [r6, #4]
   87d4e:	4620      	mov	r0, r4
   87d50:	f001 f978 	bl	89044 <_Balloc>
   87d54:	6933      	ldr	r3, [r6, #16]
   87d56:	4605      	mov	r5, r0
   87d58:	1c9a      	adds	r2, r3, #2
   87d5a:	0092      	lsls	r2, r2, #2
   87d5c:	f106 010c 	add.w	r1, r6, #12
   87d60:	300c      	adds	r0, #12
   87d62:	f7fc fe0d 	bl	84980 <memcpy>
   87d66:	4620      	mov	r0, r4
   87d68:	4629      	mov	r1, r5
   87d6a:	2201      	movs	r2, #1
   87d6c:	f001 fb28 	bl	893c0 <__lshift>
   87d70:	4607      	mov	r7, r0
   87d72:	e503      	b.n	8777c <_dtoa_r+0x61c>
   87d74:	f1ba 0f39 	cmp.w	sl, #57	; 0x39
   87d78:	f8cd 9028 	str.w	r9, [sp, #40]	; 0x28
   87d7c:	f000 80a8 	beq.w	87ed0 <_dtoa_r+0xd70>
   87d80:	9d06      	ldr	r5, [sp, #24]
   87d82:	f10a 0301 	add.w	r3, sl, #1
   87d86:	702b      	strb	r3, [r5, #0]
   87d88:	4635      	mov	r5, r6
   87d8a:	9e06      	ldr	r6, [sp, #24]
   87d8c:	f106 0b01 	add.w	fp, r6, #1
   87d90:	463e      	mov	r6, r7
   87d92:	e49c      	b.n	876ce <_dtoa_r+0x56e>
   87d94:	4635      	mov	r5, r6
   87d96:	f8cd 9028 	str.w	r9, [sp, #40]	; 0x28
   87d9a:	463e      	mov	r6, r7
   87d9c:	e47b      	b.n	87696 <_dtoa_r+0x536>
   87d9e:	f04f 0800 	mov.w	r8, #0
   87da2:	4646      	mov	r6, r8
   87da4:	e70c      	b.n	87bc0 <_dtoa_r+0xa60>
   87da6:	4977      	ldr	r1, [pc, #476]	; (87f84 <_dtoa_r+0xe24>)
   87da8:	f108 35ff 	add.w	r5, r8, #4294967295
   87dac:	eb01 01c5 	add.w	r1, r1, r5, lsl #3
   87db0:	4632      	mov	r2, r6
   87db2:	463b      	mov	r3, r7
   87db4:	e9d1 0100 	ldrd	r0, r1, [r1]
   87db8:	9510      	str	r5, [sp, #64]	; 0x40
   87dba:	f7fc fadd 	bl	84378 <__aeabi_dmul>
   87dbe:	e9cd 0114 	strd	r0, r1, [sp, #80]	; 0x50
   87dc2:	4659      	mov	r1, fp
   87dc4:	4650      	mov	r0, sl
   87dc6:	f7fc fd71 	bl	848ac <__aeabi_d2iz>
   87dca:	4605      	mov	r5, r0
   87dcc:	f7fc fa6e 	bl	842ac <__aeabi_i2d>
   87dd0:	4602      	mov	r2, r0
   87dd2:	460b      	mov	r3, r1
   87dd4:	4650      	mov	r0, sl
   87dd6:	4659      	mov	r1, fp
   87dd8:	f7fc f91a 	bl	84010 <__aeabi_dsub>
   87ddc:	f8dd e024 	ldr.w	lr, [sp, #36]	; 0x24
   87de0:	3530      	adds	r5, #48	; 0x30
   87de2:	f1b8 0f01 	cmp.w	r8, #1
   87de6:	4606      	mov	r6, r0
   87de8:	460f      	mov	r7, r1
   87dea:	f88e 5000 	strb.w	r5, [lr]
   87dee:	f10e 0b01 	add.w	fp, lr, #1
   87df2:	d01e      	beq.n	87e32 <_dtoa_r+0xcd2>
   87df4:	9d09      	ldr	r5, [sp, #36]	; 0x24
   87df6:	1e6b      	subs	r3, r5, #1
   87df8:	eb03 0a08 	add.w	sl, r3, r8
   87dfc:	2200      	movs	r2, #0
   87dfe:	4b63      	ldr	r3, [pc, #396]	; (87f8c <_dtoa_r+0xe2c>)
   87e00:	f7fc faba 	bl	84378 <__aeabi_dmul>
   87e04:	460f      	mov	r7, r1
   87e06:	4606      	mov	r6, r0
   87e08:	f7fc fd50 	bl	848ac <__aeabi_d2iz>
   87e0c:	4680      	mov	r8, r0
   87e0e:	f7fc fa4d 	bl	842ac <__aeabi_i2d>
   87e12:	f108 0830 	add.w	r8, r8, #48	; 0x30
   87e16:	4602      	mov	r2, r0
   87e18:	460b      	mov	r3, r1
   87e1a:	4630      	mov	r0, r6
   87e1c:	4639      	mov	r1, r7
   87e1e:	f7fc f8f7 	bl	84010 <__aeabi_dsub>
   87e22:	f805 8f01 	strb.w	r8, [r5, #1]!
   87e26:	4555      	cmp	r5, sl
   87e28:	d1e8      	bne.n	87dfc <_dtoa_r+0xc9c>
   87e2a:	9d10      	ldr	r5, [sp, #64]	; 0x40
   87e2c:	4606      	mov	r6, r0
   87e2e:	460f      	mov	r7, r1
   87e30:	44ab      	add	fp, r5
   87e32:	2200      	movs	r2, #0
   87e34:	4b56      	ldr	r3, [pc, #344]	; (87f90 <_dtoa_r+0xe30>)
   87e36:	e9dd 0114 	ldrd	r0, r1, [sp, #80]	; 0x50
   87e3a:	f7fc f8eb 	bl	84014 <__adddf3>
   87e3e:	4632      	mov	r2, r6
   87e40:	463b      	mov	r3, r7
   87e42:	f7fc fd0b 	bl	8485c <__aeabi_dcmplt>
   87e46:	2800      	cmp	r0, #0
   87e48:	d04d      	beq.n	87ee6 <_dtoa_r+0xd86>
   87e4a:	9e17      	ldr	r6, [sp, #92]	; 0x5c
   87e4c:	9a09      	ldr	r2, [sp, #36]	; 0x24
   87e4e:	9607      	str	r6, [sp, #28]
   87e50:	f81b 5c01 	ldrb.w	r5, [fp, #-1]
   87e54:	f7ff bb4a 	b.w	874ec <_dtoa_r+0x38c>
   87e58:	9e08      	ldr	r6, [sp, #32]
   87e5a:	2300      	movs	r3, #0
   87e5c:	ebc9 0506 	rsb	r5, r9, r6
   87e60:	f7ff bb75 	b.w	8754e <_dtoa_r+0x3ee>
   87e64:	9b18      	ldr	r3, [sp, #96]	; 0x60
   87e66:	9f0c      	ldr	r7, [sp, #48]	; 0x30
   87e68:	f1c3 0336 	rsb	r3, r3, #54	; 0x36
   87e6c:	9d08      	ldr	r5, [sp, #32]
   87e6e:	f7ff bb6e 	b.w	8754e <_dtoa_r+0x3ee>
   87e72:	4657      	mov	r7, sl
   87e74:	f7ff bbb8 	b.w	875e8 <_dtoa_r+0x488>
   87e78:	e9dd ab12 	ldrd	sl, fp, [sp, #72]	; 0x48
   87e7c:	f04f 0802 	mov.w	r8, #2
   87e80:	e54a      	b.n	87918 <_dtoa_r+0x7b8>
   87e82:	f1b9 0f00 	cmp.w	r9, #0
   87e86:	f43f aeae 	beq.w	87be6 <_dtoa_r+0xa86>
   87e8a:	9e0f      	ldr	r6, [sp, #60]	; 0x3c
   87e8c:	2e00      	cmp	r6, #0
   87e8e:	f77f af28 	ble.w	87ce2 <_dtoa_r+0xb82>
   87e92:	2200      	movs	r2, #0
   87e94:	4b3d      	ldr	r3, [pc, #244]	; (87f8c <_dtoa_r+0xe2c>)
   87e96:	4650      	mov	r0, sl
   87e98:	4659      	mov	r1, fp
   87e9a:	f7fc fa6d 	bl	84378 <__aeabi_dmul>
   87e9e:	4682      	mov	sl, r0
   87ea0:	f108 0001 	add.w	r0, r8, #1
   87ea4:	468b      	mov	fp, r1
   87ea6:	f7fc fa01 	bl	842ac <__aeabi_i2d>
   87eaa:	4602      	mov	r2, r0
   87eac:	460b      	mov	r3, r1
   87eae:	4650      	mov	r0, sl
   87eb0:	4659      	mov	r1, fp
   87eb2:	f7fc fa61 	bl	84378 <__aeabi_dmul>
   87eb6:	2200      	movs	r2, #0
   87eb8:	4b36      	ldr	r3, [pc, #216]	; (87f94 <_dtoa_r+0xe34>)
   87eba:	f7fc f8ab 	bl	84014 <__adddf3>
   87ebe:	9d07      	ldr	r5, [sp, #28]
   87ec0:	4606      	mov	r6, r0
   87ec2:	3d01      	subs	r5, #1
   87ec4:	f1a1 7750 	sub.w	r7, r1, #54525952	; 0x3400000
   87ec8:	9517      	str	r5, [sp, #92]	; 0x5c
   87eca:	f8dd 803c 	ldr.w	r8, [sp, #60]	; 0x3c
   87ece:	e543      	b.n	87958 <_dtoa_r+0x7f8>
   87ed0:	4635      	mov	r5, r6
   87ed2:	9b06      	ldr	r3, [sp, #24]
   87ed4:	9e06      	ldr	r6, [sp, #24]
   87ed6:	2239      	movs	r2, #57	; 0x39
   87ed8:	7032      	strb	r2, [r6, #0]
   87eda:	f103 0b01 	add.w	fp, r3, #1
   87ede:	463e      	mov	r6, r7
   87ee0:	9909      	ldr	r1, [sp, #36]	; 0x24
   87ee2:	f7ff bbee 	b.w	876c2 <_dtoa_r+0x562>
   87ee6:	e9dd 2314 	ldrd	r2, r3, [sp, #80]	; 0x50
   87eea:	2000      	movs	r0, #0
   87eec:	4928      	ldr	r1, [pc, #160]	; (87f90 <_dtoa_r+0xe30>)
   87eee:	f7fc f88f 	bl	84010 <__aeabi_dsub>
   87ef2:	4632      	mov	r2, r6
   87ef4:	463b      	mov	r3, r7
   87ef6:	f7fc fccf 	bl	84898 <__aeabi_dcmpgt>
   87efa:	2800      	cmp	r0, #0
   87efc:	f43f aef1 	beq.w	87ce2 <_dtoa_r+0xb82>
   87f00:	465b      	mov	r3, fp
   87f02:	f813 2c01 	ldrb.w	r2, [r3, #-1]
   87f06:	469b      	mov	fp, r3
   87f08:	2a30      	cmp	r2, #48	; 0x30
   87f0a:	f103 33ff 	add.w	r3, r3, #4294967295
   87f0e:	d0f8      	beq.n	87f02 <_dtoa_r+0xda2>
   87f10:	9d17      	ldr	r5, [sp, #92]	; 0x5c
   87f12:	9507      	str	r5, [sp, #28]
   87f14:	f7ff baf1 	b.w	874fa <_dtoa_r+0x39a>
   87f18:	4645      	mov	r5, r8
   87f1a:	4654      	mov	r4, sl
   87f1c:	9e17      	ldr	r6, [sp, #92]	; 0x5c
   87f1e:	9a09      	ldr	r2, [sp, #36]	; 0x24
   87f20:	9607      	str	r6, [sp, #28]
   87f22:	f7ff bae3 	b.w	874ec <_dtoa_r+0x38c>
   87f26:	f1ba 0f39 	cmp.w	sl, #57	; 0x39
   87f2a:	f8cd 9028 	str.w	r9, [sp, #40]	; 0x28
   87f2e:	d0cf      	beq.n	87ed0 <_dtoa_r+0xd70>
   87f30:	9b03      	ldr	r3, [sp, #12]
   87f32:	4635      	mov	r5, r6
   87f34:	2b00      	cmp	r3, #0
   87f36:	9e06      	ldr	r6, [sp, #24]
   87f38:	bfc8      	it	gt
   87f3a:	f10b 0a31 	addgt.w	sl, fp, #49	; 0x31
   87f3e:	f886 a000 	strb.w	sl, [r6]
   87f42:	f106 0b01 	add.w	fp, r6, #1
   87f46:	463e      	mov	r6, r7
   87f48:	f7ff bbc1 	b.w	876ce <_dtoa_r+0x56e>
   87f4c:	f47f aea7 	bne.w	87c9e <_dtoa_r+0xb3e>
   87f50:	f01a 0f01 	tst.w	sl, #1
   87f54:	f43f aea3 	beq.w	87c9e <_dtoa_r+0xb3e>
   87f58:	e69b      	b.n	87c92 <_dtoa_r+0xb32>
   87f5a:	4631      	mov	r1, r6
   87f5c:	4620      	mov	r0, r4
   87f5e:	220a      	movs	r2, #10
   87f60:	2300      	movs	r3, #0
   87f62:	f8dd 903c 	ldr.w	r9, [sp, #60]	; 0x3c
   87f66:	f001 f89d 	bl	890a4 <__multadd>
   87f6a:	4606      	mov	r6, r0
   87f6c:	f7ff bb6a 	b.w	87644 <_dtoa_r+0x4e4>
   87f70:	f04f 0802 	mov.w	r8, #2
   87f74:	e4d0      	b.n	87918 <_dtoa_r+0x7b8>
   87f76:	f43f ab50 	beq.w	8761a <_dtoa_r+0x4ba>
   87f7a:	f1c3 033c 	rsb	r3, r3, #60	; 0x3c
   87f7e:	f7ff bbe0 	b.w	87742 <_dtoa_r+0x5e2>
   87f82:	bf00      	nop
   87f84:	0008aa28 	.word	0x0008aa28
   87f88:	0008aaf0 	.word	0x0008aaf0
   87f8c:	40240000 	.word	0x40240000
   87f90:	3fe00000 	.word	0x3fe00000
   87f94:	401c0000 	.word	0x401c0000

00087f98 <__sflush_r>:
   87f98:	898b      	ldrh	r3, [r1, #12]
   87f9a:	e92d 41f0 	stmdb	sp!, {r4, r5, r6, r7, r8, lr}
   87f9e:	b29a      	uxth	r2, r3
   87fa0:	460d      	mov	r5, r1
   87fa2:	0711      	lsls	r1, r2, #28
   87fa4:	4680      	mov	r8, r0
   87fa6:	d43c      	bmi.n	88022 <__sflush_r+0x8a>
   87fa8:	686a      	ldr	r2, [r5, #4]
   87faa:	f443 6300 	orr.w	r3, r3, #2048	; 0x800
   87fae:	2a00      	cmp	r2, #0
   87fb0:	81ab      	strh	r3, [r5, #12]
   87fb2:	dd59      	ble.n	88068 <__sflush_r+0xd0>
   87fb4:	6aac      	ldr	r4, [r5, #40]	; 0x28
   87fb6:	2c00      	cmp	r4, #0
   87fb8:	d04b      	beq.n	88052 <__sflush_r+0xba>
   87fba:	b29b      	uxth	r3, r3
   87fbc:	f403 5280 	and.w	r2, r3, #4096	; 0x1000
   87fc0:	2100      	movs	r1, #0
   87fc2:	b292      	uxth	r2, r2
   87fc4:	f8d8 6000 	ldr.w	r6, [r8]
   87fc8:	f8c8 1000 	str.w	r1, [r8]
   87fcc:	2a00      	cmp	r2, #0
   87fce:	d04f      	beq.n	88070 <__sflush_r+0xd8>
   87fd0:	6d2a      	ldr	r2, [r5, #80]	; 0x50
   87fd2:	075f      	lsls	r7, r3, #29
   87fd4:	d505      	bpl.n	87fe2 <__sflush_r+0x4a>
   87fd6:	6869      	ldr	r1, [r5, #4]
   87fd8:	6b2b      	ldr	r3, [r5, #48]	; 0x30
   87fda:	1a52      	subs	r2, r2, r1
   87fdc:	b10b      	cbz	r3, 87fe2 <__sflush_r+0x4a>
   87fde:	6beb      	ldr	r3, [r5, #60]	; 0x3c
   87fe0:	1ad2      	subs	r2, r2, r3
   87fe2:	4640      	mov	r0, r8
   87fe4:	69e9      	ldr	r1, [r5, #28]
   87fe6:	2300      	movs	r3, #0
   87fe8:	47a0      	blx	r4
   87fea:	1c44      	adds	r4, r0, #1
   87fec:	d04a      	beq.n	88084 <__sflush_r+0xec>
   87fee:	89ab      	ldrh	r3, [r5, #12]
   87ff0:	692a      	ldr	r2, [r5, #16]
   87ff2:	f423 6300 	bic.w	r3, r3, #2048	; 0x800
   87ff6:	b29b      	uxth	r3, r3
   87ff8:	2100      	movs	r1, #0
   87ffa:	602a      	str	r2, [r5, #0]
   87ffc:	04da      	lsls	r2, r3, #19
   87ffe:	81ab      	strh	r3, [r5, #12]
   88000:	6069      	str	r1, [r5, #4]
   88002:	d44c      	bmi.n	8809e <__sflush_r+0x106>
   88004:	6b29      	ldr	r1, [r5, #48]	; 0x30
   88006:	f8c8 6000 	str.w	r6, [r8]
   8800a:	b311      	cbz	r1, 88052 <__sflush_r+0xba>
   8800c:	f105 0340 	add.w	r3, r5, #64	; 0x40
   88010:	4299      	cmp	r1, r3
   88012:	d002      	beq.n	8801a <__sflush_r+0x82>
   88014:	4640      	mov	r0, r8
   88016:	f000 f9c3 	bl	883a0 <_free_r>
   8801a:	2000      	movs	r0, #0
   8801c:	6328      	str	r0, [r5, #48]	; 0x30
   8801e:	e8bd 81f0 	ldmia.w	sp!, {r4, r5, r6, r7, r8, pc}
   88022:	692e      	ldr	r6, [r5, #16]
   88024:	b1ae      	cbz	r6, 88052 <__sflush_r+0xba>
   88026:	0791      	lsls	r1, r2, #30
   88028:	682c      	ldr	r4, [r5, #0]
   8802a:	bf0c      	ite	eq
   8802c:	696b      	ldreq	r3, [r5, #20]
   8802e:	2300      	movne	r3, #0
   88030:	602e      	str	r6, [r5, #0]
   88032:	1ba4      	subs	r4, r4, r6
   88034:	60ab      	str	r3, [r5, #8]
   88036:	e00a      	b.n	8804e <__sflush_r+0xb6>
   88038:	4632      	mov	r2, r6
   8803a:	4623      	mov	r3, r4
   8803c:	6a6f      	ldr	r7, [r5, #36]	; 0x24
   8803e:	4640      	mov	r0, r8
   88040:	69e9      	ldr	r1, [r5, #28]
   88042:	47b8      	blx	r7
   88044:	2800      	cmp	r0, #0
   88046:	ebc0 0404 	rsb	r4, r0, r4
   8804a:	4406      	add	r6, r0
   8804c:	dd04      	ble.n	88058 <__sflush_r+0xc0>
   8804e:	2c00      	cmp	r4, #0
   88050:	dcf2      	bgt.n	88038 <__sflush_r+0xa0>
   88052:	2000      	movs	r0, #0
   88054:	e8bd 81f0 	ldmia.w	sp!, {r4, r5, r6, r7, r8, pc}
   88058:	89ab      	ldrh	r3, [r5, #12]
   8805a:	f04f 30ff 	mov.w	r0, #4294967295
   8805e:	f043 0340 	orr.w	r3, r3, #64	; 0x40
   88062:	81ab      	strh	r3, [r5, #12]
   88064:	e8bd 81f0 	ldmia.w	sp!, {r4, r5, r6, r7, r8, pc}
   88068:	6bea      	ldr	r2, [r5, #60]	; 0x3c
   8806a:	2a00      	cmp	r2, #0
   8806c:	dca2      	bgt.n	87fb4 <__sflush_r+0x1c>
   8806e:	e7f0      	b.n	88052 <__sflush_r+0xba>
   88070:	2301      	movs	r3, #1
   88072:	4640      	mov	r0, r8
   88074:	69e9      	ldr	r1, [r5, #28]
   88076:	47a0      	blx	r4
   88078:	1c43      	adds	r3, r0, #1
   8807a:	4602      	mov	r2, r0
   8807c:	d01e      	beq.n	880bc <__sflush_r+0x124>
   8807e:	89ab      	ldrh	r3, [r5, #12]
   88080:	6aac      	ldr	r4, [r5, #40]	; 0x28
   88082:	e7a6      	b.n	87fd2 <__sflush_r+0x3a>
   88084:	f8d8 3000 	ldr.w	r3, [r8]
   88088:	b95b      	cbnz	r3, 880a2 <__sflush_r+0x10a>
   8808a:	89aa      	ldrh	r2, [r5, #12]
   8808c:	6929      	ldr	r1, [r5, #16]
   8808e:	f422 6200 	bic.w	r2, r2, #2048	; 0x800
   88092:	b292      	uxth	r2, r2
   88094:	606b      	str	r3, [r5, #4]
   88096:	04d3      	lsls	r3, r2, #19
   88098:	81aa      	strh	r2, [r5, #12]
   8809a:	6029      	str	r1, [r5, #0]
   8809c:	d5b2      	bpl.n	88004 <__sflush_r+0x6c>
   8809e:	6528      	str	r0, [r5, #80]	; 0x50
   880a0:	e7b0      	b.n	88004 <__sflush_r+0x6c>
   880a2:	2b1d      	cmp	r3, #29
   880a4:	d001      	beq.n	880aa <__sflush_r+0x112>
   880a6:	2b16      	cmp	r3, #22
   880a8:	d113      	bne.n	880d2 <__sflush_r+0x13a>
   880aa:	89a9      	ldrh	r1, [r5, #12]
   880ac:	692b      	ldr	r3, [r5, #16]
   880ae:	f421 6100 	bic.w	r1, r1, #2048	; 0x800
   880b2:	2200      	movs	r2, #0
   880b4:	81a9      	strh	r1, [r5, #12]
   880b6:	602b      	str	r3, [r5, #0]
   880b8:	606a      	str	r2, [r5, #4]
   880ba:	e7a3      	b.n	88004 <__sflush_r+0x6c>
   880bc:	f8d8 3000 	ldr.w	r3, [r8]
   880c0:	2b00      	cmp	r3, #0
   880c2:	d0dc      	beq.n	8807e <__sflush_r+0xe6>
   880c4:	2b1d      	cmp	r3, #29
   880c6:	d001      	beq.n	880cc <__sflush_r+0x134>
   880c8:	2b16      	cmp	r3, #22
   880ca:	d1c5      	bne.n	88058 <__sflush_r+0xc0>
   880cc:	f8c8 6000 	str.w	r6, [r8]
   880d0:	e7bf      	b.n	88052 <__sflush_r+0xba>
   880d2:	89ab      	ldrh	r3, [r5, #12]
   880d4:	f043 0340 	orr.w	r3, r3, #64	; 0x40
   880d8:	81ab      	strh	r3, [r5, #12]
   880da:	e8bd 81f0 	ldmia.w	sp!, {r4, r5, r6, r7, r8, pc}
   880de:	bf00      	nop

000880e0 <_fflush_r>:
   880e0:	b510      	push	{r4, lr}
   880e2:	4604      	mov	r4, r0
   880e4:	b082      	sub	sp, #8
   880e6:	b108      	cbz	r0, 880ec <_fflush_r+0xc>
   880e8:	6b83      	ldr	r3, [r0, #56]	; 0x38
   880ea:	b153      	cbz	r3, 88102 <_fflush_r+0x22>
   880ec:	f9b1 000c 	ldrsh.w	r0, [r1, #12]
   880f0:	b908      	cbnz	r0, 880f6 <_fflush_r+0x16>
   880f2:	b002      	add	sp, #8
   880f4:	bd10      	pop	{r4, pc}
   880f6:	4620      	mov	r0, r4
   880f8:	b002      	add	sp, #8
   880fa:	e8bd 4010 	ldmia.w	sp!, {r4, lr}
   880fe:	f7ff bf4b 	b.w	87f98 <__sflush_r>
   88102:	9101      	str	r1, [sp, #4]
   88104:	f000 f808 	bl	88118 <__sinit>
   88108:	9901      	ldr	r1, [sp, #4]
   8810a:	e7ef      	b.n	880ec <_fflush_r+0xc>

0008810c <_cleanup_r>:
   8810c:	4901      	ldr	r1, [pc, #4]	; (88114 <_cleanup_r+0x8>)
   8810e:	f000 bb9f 	b.w	88850 <_fwalk>
   88112:	bf00      	nop
   88114:	00089ea9 	.word	0x00089ea9

00088118 <__sinit>:
   88118:	e92d 4ff0 	stmdb	sp!, {r4, r5, r6, r7, r8, r9, sl, fp, lr}
   8811c:	6b84      	ldr	r4, [r0, #56]	; 0x38
   8811e:	b083      	sub	sp, #12
   88120:	4607      	mov	r7, r0
   88122:	2c00      	cmp	r4, #0
   88124:	d165      	bne.n	881f2 <__sinit+0xda>
   88126:	687d      	ldr	r5, [r7, #4]
   88128:	4833      	ldr	r0, [pc, #204]	; (881f8 <__sinit+0xe0>)
   8812a:	2304      	movs	r3, #4
   8812c:	2103      	movs	r1, #3
   8812e:	f507 723b 	add.w	r2, r7, #748	; 0x2ec
   88132:	63f8      	str	r0, [r7, #60]	; 0x3c
   88134:	f8c7 12e4 	str.w	r1, [r7, #740]	; 0x2e4
   88138:	f8c7 22e8 	str.w	r2, [r7, #744]	; 0x2e8
   8813c:	f8c7 42e0 	str.w	r4, [r7, #736]	; 0x2e0
   88140:	f105 005c 	add.w	r0, r5, #92	; 0x5c
   88144:	81ab      	strh	r3, [r5, #12]
   88146:	602c      	str	r4, [r5, #0]
   88148:	606c      	str	r4, [r5, #4]
   8814a:	60ac      	str	r4, [r5, #8]
   8814c:	666c      	str	r4, [r5, #100]	; 0x64
   8814e:	81ec      	strh	r4, [r5, #14]
   88150:	612c      	str	r4, [r5, #16]
   88152:	616c      	str	r4, [r5, #20]
   88154:	61ac      	str	r4, [r5, #24]
   88156:	4621      	mov	r1, r4
   88158:	2208      	movs	r2, #8
   8815a:	f7fc fc87 	bl	84a6c <memset>
   8815e:	f8df b09c 	ldr.w	fp, [pc, #156]	; 881fc <__sinit+0xe4>
   88162:	68be      	ldr	r6, [r7, #8]
   88164:	f8df a098 	ldr.w	sl, [pc, #152]	; 88200 <__sinit+0xe8>
   88168:	f8df 9098 	ldr.w	r9, [pc, #152]	; 88204 <__sinit+0xec>
   8816c:	f8df 8098 	ldr.w	r8, [pc, #152]	; 88208 <__sinit+0xf0>
   88170:	2301      	movs	r3, #1
   88172:	2209      	movs	r2, #9
   88174:	61ed      	str	r5, [r5, #28]
   88176:	f8c5 b020 	str.w	fp, [r5, #32]
   8817a:	f8c5 a024 	str.w	sl, [r5, #36]	; 0x24
   8817e:	f8c5 9028 	str.w	r9, [r5, #40]	; 0x28
   88182:	f8c5 802c 	str.w	r8, [r5, #44]	; 0x2c
   88186:	4621      	mov	r1, r4
   88188:	81f3      	strh	r3, [r6, #14]
   8818a:	81b2      	strh	r2, [r6, #12]
   8818c:	6034      	str	r4, [r6, #0]
   8818e:	6074      	str	r4, [r6, #4]
   88190:	60b4      	str	r4, [r6, #8]
   88192:	6674      	str	r4, [r6, #100]	; 0x64
   88194:	6134      	str	r4, [r6, #16]
   88196:	6174      	str	r4, [r6, #20]
   88198:	61b4      	str	r4, [r6, #24]
   8819a:	2208      	movs	r2, #8
   8819c:	f106 005c 	add.w	r0, r6, #92	; 0x5c
   881a0:	9301      	str	r3, [sp, #4]
   881a2:	f7fc fc63 	bl	84a6c <memset>
   881a6:	68fd      	ldr	r5, [r7, #12]
   881a8:	2012      	movs	r0, #18
   881aa:	2202      	movs	r2, #2
   881ac:	61f6      	str	r6, [r6, #28]
   881ae:	f8c6 b020 	str.w	fp, [r6, #32]
   881b2:	f8c6 a024 	str.w	sl, [r6, #36]	; 0x24
   881b6:	f8c6 9028 	str.w	r9, [r6, #40]	; 0x28
   881ba:	f8c6 802c 	str.w	r8, [r6, #44]	; 0x2c
   881be:	4621      	mov	r1, r4
   881c0:	81a8      	strh	r0, [r5, #12]
   881c2:	81ea      	strh	r2, [r5, #14]
   881c4:	602c      	str	r4, [r5, #0]
   881c6:	606c      	str	r4, [r5, #4]
   881c8:	60ac      	str	r4, [r5, #8]
   881ca:	666c      	str	r4, [r5, #100]	; 0x64
   881cc:	612c      	str	r4, [r5, #16]
   881ce:	616c      	str	r4, [r5, #20]
   881d0:	61ac      	str	r4, [r5, #24]
   881d2:	f105 005c 	add.w	r0, r5, #92	; 0x5c
   881d6:	2208      	movs	r2, #8
   881d8:	f7fc fc48 	bl	84a6c <memset>
   881dc:	9b01      	ldr	r3, [sp, #4]
   881de:	61ed      	str	r5, [r5, #28]
   881e0:	f8c5 b020 	str.w	fp, [r5, #32]
   881e4:	f8c5 a024 	str.w	sl, [r5, #36]	; 0x24
   881e8:	f8c5 9028 	str.w	r9, [r5, #40]	; 0x28
   881ec:	f8c5 802c 	str.w	r8, [r5, #44]	; 0x2c
   881f0:	63bb      	str	r3, [r7, #56]	; 0x38
   881f2:	b003      	add	sp, #12
   881f4:	e8bd 8ff0 	ldmia.w	sp!, {r4, r5, r6, r7, r8, r9, sl, fp, pc}
   881f8:	0008810d 	.word	0x0008810d
   881fc:	00089a3d 	.word	0x00089a3d
   88200:	00089a61 	.word	0x00089a61
   88204:	00089a99 	.word	0x00089a99
   88208:	00089ab9 	.word	0x00089ab9

0008820c <__sfp_lock_acquire>:
   8820c:	4770      	bx	lr
   8820e:	bf00      	nop

00088210 <__sfp_lock_release>:
   88210:	4770      	bx	lr
   88212:	bf00      	nop

00088214 <__libc_fini_array>:
   88214:	b538      	push	{r3, r4, r5, lr}
   88216:	4d09      	ldr	r5, [pc, #36]	; (8823c <__libc_fini_array+0x28>)
   88218:	4c09      	ldr	r4, [pc, #36]	; (88240 <__libc_fini_array+0x2c>)
   8821a:	1b64      	subs	r4, r4, r5
   8821c:	10a4      	asrs	r4, r4, #2
   8821e:	bf18      	it	ne
   88220:	eb05 0584 	addne.w	r5, r5, r4, lsl #2
   88224:	d005      	beq.n	88232 <__libc_fini_array+0x1e>
   88226:	3c01      	subs	r4, #1
   88228:	f855 3d04 	ldr.w	r3, [r5, #-4]!
   8822c:	4798      	blx	r3
   8822e:	2c00      	cmp	r4, #0
   88230:	d1f9      	bne.n	88226 <__libc_fini_array+0x12>
   88232:	e8bd 4038 	ldmia.w	sp!, {r3, r4, r5, lr}
   88236:	f002 bc7f 	b.w	8ab38 <_fini>
   8823a:	bf00      	nop
   8823c:	0008ab44 	.word	0x0008ab44
   88240:	0008ab48 	.word	0x0008ab48

00088244 <_fputwc_r>:
   88244:	e92d 41f0 	stmdb	sp!, {r4, r5, r6, r7, r8, lr}
   88248:	8993      	ldrh	r3, [r2, #12]
   8824a:	460f      	mov	r7, r1
   8824c:	0499      	lsls	r1, r3, #18
   8824e:	b082      	sub	sp, #8
   88250:	4614      	mov	r4, r2
   88252:	4680      	mov	r8, r0
   88254:	d406      	bmi.n	88264 <_fputwc_r+0x20>
   88256:	6e52      	ldr	r2, [r2, #100]	; 0x64
   88258:	f443 5300 	orr.w	r3, r3, #8192	; 0x2000
   8825c:	f442 5200 	orr.w	r2, r2, #8192	; 0x2000
   88260:	81a3      	strh	r3, [r4, #12]
   88262:	6662      	str	r2, [r4, #100]	; 0x64
   88264:	f000 fb1c 	bl	888a0 <__locale_mb_cur_max>
   88268:	2801      	cmp	r0, #1
   8826a:	d03e      	beq.n	882ea <_fputwc_r+0xa6>
   8826c:	463a      	mov	r2, r7
   8826e:	4640      	mov	r0, r8
   88270:	a901      	add	r1, sp, #4
   88272:	f104 035c 	add.w	r3, r4, #92	; 0x5c
   88276:	f001 fcf7 	bl	89c68 <_wcrtomb_r>
   8827a:	1c42      	adds	r2, r0, #1
   8827c:	4606      	mov	r6, r0
   8827e:	d02d      	beq.n	882dc <_fputwc_r+0x98>
   88280:	2800      	cmp	r0, #0
   88282:	d03a      	beq.n	882fa <_fputwc_r+0xb6>
   88284:	f89d 1004 	ldrb.w	r1, [sp, #4]
   88288:	2500      	movs	r5, #0
   8828a:	e009      	b.n	882a0 <_fputwc_r+0x5c>
   8828c:	6823      	ldr	r3, [r4, #0]
   8828e:	7019      	strb	r1, [r3, #0]
   88290:	6823      	ldr	r3, [r4, #0]
   88292:	3301      	adds	r3, #1
   88294:	6023      	str	r3, [r4, #0]
   88296:	3501      	adds	r5, #1
   88298:	42b5      	cmp	r5, r6
   8829a:	d22e      	bcs.n	882fa <_fputwc_r+0xb6>
   8829c:	ab01      	add	r3, sp, #4
   8829e:	5ce9      	ldrb	r1, [r5, r3]
   882a0:	68a3      	ldr	r3, [r4, #8]
   882a2:	3b01      	subs	r3, #1
   882a4:	2b00      	cmp	r3, #0
   882a6:	60a3      	str	r3, [r4, #8]
   882a8:	daf0      	bge.n	8828c <_fputwc_r+0x48>
   882aa:	69a2      	ldr	r2, [r4, #24]
   882ac:	4293      	cmp	r3, r2
   882ae:	db06      	blt.n	882be <_fputwc_r+0x7a>
   882b0:	6823      	ldr	r3, [r4, #0]
   882b2:	7019      	strb	r1, [r3, #0]
   882b4:	6823      	ldr	r3, [r4, #0]
   882b6:	7819      	ldrb	r1, [r3, #0]
   882b8:	3301      	adds	r3, #1
   882ba:	290a      	cmp	r1, #10
   882bc:	d1ea      	bne.n	88294 <_fputwc_r+0x50>
   882be:	4640      	mov	r0, r8
   882c0:	4622      	mov	r2, r4
   882c2:	f001 fc7d 	bl	89bc0 <__swbuf_r>
   882c6:	f1b0 33ff 	subs.w	r3, r0, #4294967295
   882ca:	4258      	negs	r0, r3
   882cc:	4158      	adcs	r0, r3
   882ce:	2800      	cmp	r0, #0
   882d0:	d0e1      	beq.n	88296 <_fputwc_r+0x52>
   882d2:	f04f 30ff 	mov.w	r0, #4294967295
   882d6:	b002      	add	sp, #8
   882d8:	e8bd 81f0 	ldmia.w	sp!, {r4, r5, r6, r7, r8, pc}
   882dc:	89a3      	ldrh	r3, [r4, #12]
   882de:	f043 0340 	orr.w	r3, r3, #64	; 0x40
   882e2:	81a3      	strh	r3, [r4, #12]
   882e4:	b002      	add	sp, #8
   882e6:	e8bd 81f0 	ldmia.w	sp!, {r4, r5, r6, r7, r8, pc}
   882ea:	1e7b      	subs	r3, r7, #1
   882ec:	2bfe      	cmp	r3, #254	; 0xfe
   882ee:	d8bd      	bhi.n	8826c <_fputwc_r+0x28>
   882f0:	b2f9      	uxtb	r1, r7
   882f2:	4606      	mov	r6, r0
   882f4:	f88d 1004 	strb.w	r1, [sp, #4]
   882f8:	e7c6      	b.n	88288 <_fputwc_r+0x44>
   882fa:	4638      	mov	r0, r7
   882fc:	b002      	add	sp, #8
   882fe:	e8bd 81f0 	ldmia.w	sp!, {r4, r5, r6, r7, r8, pc}
   88302:	bf00      	nop

00088304 <_malloc_trim_r>:
   88304:	b5f8      	push	{r3, r4, r5, r6, r7, lr}
   88306:	4d23      	ldr	r5, [pc, #140]	; (88394 <_malloc_trim_r+0x90>)
   88308:	460f      	mov	r7, r1
   8830a:	4604      	mov	r4, r0
   8830c:	f000 fe96 	bl	8903c <__malloc_lock>
   88310:	68ab      	ldr	r3, [r5, #8]
   88312:	685e      	ldr	r6, [r3, #4]
   88314:	f026 0603 	bic.w	r6, r6, #3
   88318:	1bf1      	subs	r1, r6, r7
   8831a:	f601 71ef 	addw	r1, r1, #4079	; 0xfef
   8831e:	f421 617f 	bic.w	r1, r1, #4080	; 0xff0
   88322:	f021 010f 	bic.w	r1, r1, #15
   88326:	f5a1 5780 	sub.w	r7, r1, #4096	; 0x1000
   8832a:	f5b7 5f80 	cmp.w	r7, #4096	; 0x1000
   8832e:	db07      	blt.n	88340 <_malloc_trim_r+0x3c>
   88330:	4620      	mov	r0, r4
   88332:	2100      	movs	r1, #0
   88334:	f001 fb70 	bl	89a18 <_sbrk_r>
   88338:	68ab      	ldr	r3, [r5, #8]
   8833a:	4433      	add	r3, r6
   8833c:	4298      	cmp	r0, r3
   8833e:	d004      	beq.n	8834a <_malloc_trim_r+0x46>
   88340:	4620      	mov	r0, r4
   88342:	f000 fe7d 	bl	89040 <__malloc_unlock>
   88346:	2000      	movs	r0, #0
   88348:	bdf8      	pop	{r3, r4, r5, r6, r7, pc}
   8834a:	4620      	mov	r0, r4
   8834c:	4279      	negs	r1, r7
   8834e:	f001 fb63 	bl	89a18 <_sbrk_r>
   88352:	3001      	adds	r0, #1
   88354:	d00d      	beq.n	88372 <_malloc_trim_r+0x6e>
   88356:	4b10      	ldr	r3, [pc, #64]	; (88398 <_malloc_trim_r+0x94>)
   88358:	68aa      	ldr	r2, [r5, #8]
   8835a:	6819      	ldr	r1, [r3, #0]
   8835c:	1bf6      	subs	r6, r6, r7
   8835e:	f046 0601 	orr.w	r6, r6, #1
   88362:	4620      	mov	r0, r4
   88364:	1bc9      	subs	r1, r1, r7
   88366:	6056      	str	r6, [r2, #4]
   88368:	6019      	str	r1, [r3, #0]
   8836a:	f000 fe69 	bl	89040 <__malloc_unlock>
   8836e:	2001      	movs	r0, #1
   88370:	bdf8      	pop	{r3, r4, r5, r6, r7, pc}
   88372:	4620      	mov	r0, r4
   88374:	2100      	movs	r1, #0
   88376:	f001 fb4f 	bl	89a18 <_sbrk_r>
   8837a:	68ab      	ldr	r3, [r5, #8]
   8837c:	1ac2      	subs	r2, r0, r3
   8837e:	2a0f      	cmp	r2, #15
   88380:	ddde      	ble.n	88340 <_malloc_trim_r+0x3c>
   88382:	4d06      	ldr	r5, [pc, #24]	; (8839c <_malloc_trim_r+0x98>)
   88384:	4904      	ldr	r1, [pc, #16]	; (88398 <_malloc_trim_r+0x94>)
   88386:	682d      	ldr	r5, [r5, #0]
   88388:	f042 0201 	orr.w	r2, r2, #1
   8838c:	1b40      	subs	r0, r0, r5
   8838e:	605a      	str	r2, [r3, #4]
   88390:	6008      	str	r0, [r1, #0]
   88392:	e7d5      	b.n	88340 <_malloc_trim_r+0x3c>
   88394:	20070638 	.word	0x20070638
   88398:	20078d78 	.word	0x20078d78
   8839c:	20070a44 	.word	0x20070a44

000883a0 <_free_r>:
   883a0:	e92d 41f0 	stmdb	sp!, {r4, r5, r6, r7, r8, lr}
   883a4:	460d      	mov	r5, r1
   883a6:	4606      	mov	r6, r0
   883a8:	2900      	cmp	r1, #0
   883aa:	d055      	beq.n	88458 <_free_r+0xb8>
   883ac:	f000 fe46 	bl	8903c <__malloc_lock>
   883b0:	f855 1c04 	ldr.w	r1, [r5, #-4]
   883b4:	f8df c170 	ldr.w	ip, [pc, #368]	; 88528 <_free_r+0x188>
   883b8:	f1a5 0408 	sub.w	r4, r5, #8
   883bc:	f021 0301 	bic.w	r3, r1, #1
   883c0:	18e2      	adds	r2, r4, r3
   883c2:	f8dc 0008 	ldr.w	r0, [ip, #8]
   883c6:	6857      	ldr	r7, [r2, #4]
   883c8:	4290      	cmp	r0, r2
   883ca:	f027 0703 	bic.w	r7, r7, #3
   883ce:	d068      	beq.n	884a2 <_free_r+0x102>
   883d0:	f011 0101 	ands.w	r1, r1, #1
   883d4:	6057      	str	r7, [r2, #4]
   883d6:	d032      	beq.n	8843e <_free_r+0x9e>
   883d8:	2100      	movs	r1, #0
   883da:	19d0      	adds	r0, r2, r7
   883dc:	6840      	ldr	r0, [r0, #4]
   883de:	07c0      	lsls	r0, r0, #31
   883e0:	d406      	bmi.n	883f0 <_free_r+0x50>
   883e2:	443b      	add	r3, r7
   883e4:	6890      	ldr	r0, [r2, #8]
   883e6:	2900      	cmp	r1, #0
   883e8:	d04d      	beq.n	88486 <_free_r+0xe6>
   883ea:	68d2      	ldr	r2, [r2, #12]
   883ec:	60c2      	str	r2, [r0, #12]
   883ee:	6090      	str	r0, [r2, #8]
   883f0:	f043 0201 	orr.w	r2, r3, #1
   883f4:	6062      	str	r2, [r4, #4]
   883f6:	50e3      	str	r3, [r4, r3]
   883f8:	b9e1      	cbnz	r1, 88434 <_free_r+0x94>
   883fa:	f5b3 7f00 	cmp.w	r3, #512	; 0x200
   883fe:	d32d      	bcc.n	8845c <_free_r+0xbc>
   88400:	0a5a      	lsrs	r2, r3, #9
   88402:	2a04      	cmp	r2, #4
   88404:	d869      	bhi.n	884da <_free_r+0x13a>
   88406:	0998      	lsrs	r0, r3, #6
   88408:	3038      	adds	r0, #56	; 0x38
   8840a:	0041      	lsls	r1, r0, #1
   8840c:	eb0c 0c81 	add.w	ip, ip, r1, lsl #2
   88410:	f8dc 2008 	ldr.w	r2, [ip, #8]
   88414:	4944      	ldr	r1, [pc, #272]	; (88528 <_free_r+0x188>)
   88416:	4562      	cmp	r2, ip
   88418:	d065      	beq.n	884e6 <_free_r+0x146>
   8841a:	6851      	ldr	r1, [r2, #4]
   8841c:	f021 0103 	bic.w	r1, r1, #3
   88420:	428b      	cmp	r3, r1
   88422:	d202      	bcs.n	8842a <_free_r+0x8a>
   88424:	6892      	ldr	r2, [r2, #8]
   88426:	4594      	cmp	ip, r2
   88428:	d1f7      	bne.n	8841a <_free_r+0x7a>
   8842a:	68d3      	ldr	r3, [r2, #12]
   8842c:	60e3      	str	r3, [r4, #12]
   8842e:	60a2      	str	r2, [r4, #8]
   88430:	609c      	str	r4, [r3, #8]
   88432:	60d4      	str	r4, [r2, #12]
   88434:	4630      	mov	r0, r6
   88436:	e8bd 41f0 	ldmia.w	sp!, {r4, r5, r6, r7, r8, lr}
   8843a:	f000 be01 	b.w	89040 <__malloc_unlock>
   8843e:	f855 5c08 	ldr.w	r5, [r5, #-8]
   88442:	f10c 0808 	add.w	r8, ip, #8
   88446:	1b64      	subs	r4, r4, r5
   88448:	68a0      	ldr	r0, [r4, #8]
   8844a:	442b      	add	r3, r5
   8844c:	4540      	cmp	r0, r8
   8844e:	d042      	beq.n	884d6 <_free_r+0x136>
   88450:	68e5      	ldr	r5, [r4, #12]
   88452:	60c5      	str	r5, [r0, #12]
   88454:	60a8      	str	r0, [r5, #8]
   88456:	e7c0      	b.n	883da <_free_r+0x3a>
   88458:	e8bd 81f0 	ldmia.w	sp!, {r4, r5, r6, r7, r8, pc}
   8845c:	08db      	lsrs	r3, r3, #3
   8845e:	109a      	asrs	r2, r3, #2
   88460:	2001      	movs	r0, #1
   88462:	4090      	lsls	r0, r2
   88464:	f8dc 1004 	ldr.w	r1, [ip, #4]
   88468:	eb0c 03c3 	add.w	r3, ip, r3, lsl #3
   8846c:	689a      	ldr	r2, [r3, #8]
   8846e:	4301      	orrs	r1, r0
   88470:	60a2      	str	r2, [r4, #8]
   88472:	60e3      	str	r3, [r4, #12]
   88474:	f8cc 1004 	str.w	r1, [ip, #4]
   88478:	4630      	mov	r0, r6
   8847a:	609c      	str	r4, [r3, #8]
   8847c:	60d4      	str	r4, [r2, #12]
   8847e:	e8bd 41f0 	ldmia.w	sp!, {r4, r5, r6, r7, r8, lr}
   88482:	f000 bddd 	b.w	89040 <__malloc_unlock>
   88486:	4d29      	ldr	r5, [pc, #164]	; (8852c <_free_r+0x18c>)
   88488:	42a8      	cmp	r0, r5
   8848a:	d1ae      	bne.n	883ea <_free_r+0x4a>
   8848c:	f043 0201 	orr.w	r2, r3, #1
   88490:	f8cc 4014 	str.w	r4, [ip, #20]
   88494:	f8cc 4010 	str.w	r4, [ip, #16]
   88498:	60e0      	str	r0, [r4, #12]
   8849a:	60a0      	str	r0, [r4, #8]
   8849c:	6062      	str	r2, [r4, #4]
   8849e:	50e3      	str	r3, [r4, r3]
   884a0:	e7c8      	b.n	88434 <_free_r+0x94>
   884a2:	441f      	add	r7, r3
   884a4:	07cb      	lsls	r3, r1, #31
   884a6:	d407      	bmi.n	884b8 <_free_r+0x118>
   884a8:	f855 1c08 	ldr.w	r1, [r5, #-8]
   884ac:	1a64      	subs	r4, r4, r1
   884ae:	68e3      	ldr	r3, [r4, #12]
   884b0:	68a2      	ldr	r2, [r4, #8]
   884b2:	440f      	add	r7, r1
   884b4:	60d3      	str	r3, [r2, #12]
   884b6:	609a      	str	r2, [r3, #8]
   884b8:	4b1d      	ldr	r3, [pc, #116]	; (88530 <_free_r+0x190>)
   884ba:	f047 0201 	orr.w	r2, r7, #1
   884be:	681b      	ldr	r3, [r3, #0]
   884c0:	6062      	str	r2, [r4, #4]
   884c2:	429f      	cmp	r7, r3
   884c4:	f8cc 4008 	str.w	r4, [ip, #8]
   884c8:	d3b4      	bcc.n	88434 <_free_r+0x94>
   884ca:	4b1a      	ldr	r3, [pc, #104]	; (88534 <_free_r+0x194>)
   884cc:	4630      	mov	r0, r6
   884ce:	6819      	ldr	r1, [r3, #0]
   884d0:	f7ff ff18 	bl	88304 <_malloc_trim_r>
   884d4:	e7ae      	b.n	88434 <_free_r+0x94>
   884d6:	2101      	movs	r1, #1
   884d8:	e77f      	b.n	883da <_free_r+0x3a>
   884da:	2a14      	cmp	r2, #20
   884dc:	d80b      	bhi.n	884f6 <_free_r+0x156>
   884de:	f102 005b 	add.w	r0, r2, #91	; 0x5b
   884e2:	0041      	lsls	r1, r0, #1
   884e4:	e792      	b.n	8840c <_free_r+0x6c>
   884e6:	1080      	asrs	r0, r0, #2
   884e8:	2501      	movs	r5, #1
   884ea:	4085      	lsls	r5, r0
   884ec:	6848      	ldr	r0, [r1, #4]
   884ee:	4613      	mov	r3, r2
   884f0:	4328      	orrs	r0, r5
   884f2:	6048      	str	r0, [r1, #4]
   884f4:	e79a      	b.n	8842c <_free_r+0x8c>
   884f6:	2a54      	cmp	r2, #84	; 0x54
   884f8:	d803      	bhi.n	88502 <_free_r+0x162>
   884fa:	0b18      	lsrs	r0, r3, #12
   884fc:	306e      	adds	r0, #110	; 0x6e
   884fe:	0041      	lsls	r1, r0, #1
   88500:	e784      	b.n	8840c <_free_r+0x6c>
   88502:	f5b2 7faa 	cmp.w	r2, #340	; 0x154
   88506:	d803      	bhi.n	88510 <_free_r+0x170>
   88508:	0bd8      	lsrs	r0, r3, #15
   8850a:	3077      	adds	r0, #119	; 0x77
   8850c:	0041      	lsls	r1, r0, #1
   8850e:	e77d      	b.n	8840c <_free_r+0x6c>
   88510:	f240 5154 	movw	r1, #1364	; 0x554
   88514:	428a      	cmp	r2, r1
   88516:	d803      	bhi.n	88520 <_free_r+0x180>
   88518:	0c98      	lsrs	r0, r3, #18
   8851a:	307c      	adds	r0, #124	; 0x7c
   8851c:	0041      	lsls	r1, r0, #1
   8851e:	e775      	b.n	8840c <_free_r+0x6c>
   88520:	21fc      	movs	r1, #252	; 0xfc
   88522:	207e      	movs	r0, #126	; 0x7e
   88524:	e772      	b.n	8840c <_free_r+0x6c>
   88526:	bf00      	nop
   88528:	20070638 	.word	0x20070638
   8852c:	20070640 	.word	0x20070640
   88530:	20070a40 	.word	0x20070a40
   88534:	20078d74 	.word	0x20078d74

00088538 <__sfvwrite_r>:
   88538:	e92d 4ff0 	stmdb	sp!, {r4, r5, r6, r7, r8, r9, sl, fp, lr}
   8853c:	6893      	ldr	r3, [r2, #8]
   8853e:	b083      	sub	sp, #12
   88540:	4616      	mov	r6, r2
   88542:	4681      	mov	r9, r0
   88544:	460c      	mov	r4, r1
   88546:	b32b      	cbz	r3, 88594 <__sfvwrite_r+0x5c>
   88548:	898b      	ldrh	r3, [r1, #12]
   8854a:	0719      	lsls	r1, r3, #28
   8854c:	d526      	bpl.n	8859c <__sfvwrite_r+0x64>
   8854e:	6922      	ldr	r2, [r4, #16]
   88550:	b322      	cbz	r2, 8859c <__sfvwrite_r+0x64>
   88552:	f003 0202 	and.w	r2, r3, #2
   88556:	b292      	uxth	r2, r2
   88558:	6835      	ldr	r5, [r6, #0]
   8855a:	2a00      	cmp	r2, #0
   8855c:	d02c      	beq.n	885b8 <__sfvwrite_r+0x80>
   8855e:	f04f 0a00 	mov.w	sl, #0
   88562:	f8df b2e8 	ldr.w	fp, [pc, #744]	; 8884c <__sfvwrite_r+0x314>
   88566:	46d0      	mov	r8, sl
   88568:	45d8      	cmp	r8, fp
   8856a:	bf34      	ite	cc
   8856c:	4643      	movcc	r3, r8
   8856e:	465b      	movcs	r3, fp
   88570:	4652      	mov	r2, sl
   88572:	4648      	mov	r0, r9
   88574:	f1b8 0f00 	cmp.w	r8, #0
   88578:	d04f      	beq.n	8861a <__sfvwrite_r+0xe2>
   8857a:	69e1      	ldr	r1, [r4, #28]
   8857c:	6a67      	ldr	r7, [r4, #36]	; 0x24
   8857e:	47b8      	blx	r7
   88580:	2800      	cmp	r0, #0
   88582:	dd56      	ble.n	88632 <__sfvwrite_r+0xfa>
   88584:	68b3      	ldr	r3, [r6, #8]
   88586:	4482      	add	sl, r0
   88588:	1a1b      	subs	r3, r3, r0
   8858a:	ebc0 0808 	rsb	r8, r0, r8
   8858e:	60b3      	str	r3, [r6, #8]
   88590:	2b00      	cmp	r3, #0
   88592:	d1e9      	bne.n	88568 <__sfvwrite_r+0x30>
   88594:	2000      	movs	r0, #0
   88596:	b003      	add	sp, #12
   88598:	e8bd 8ff0 	ldmia.w	sp!, {r4, r5, r6, r7, r8, r9, sl, fp, pc}
   8859c:	4648      	mov	r0, r9
   8859e:	4621      	mov	r1, r4
   885a0:	f7fe fcd2 	bl	86f48 <__swsetup_r>
   885a4:	2800      	cmp	r0, #0
   885a6:	f040 8148 	bne.w	8883a <__sfvwrite_r+0x302>
   885aa:	89a3      	ldrh	r3, [r4, #12]
   885ac:	6835      	ldr	r5, [r6, #0]
   885ae:	f003 0202 	and.w	r2, r3, #2
   885b2:	b292      	uxth	r2, r2
   885b4:	2a00      	cmp	r2, #0
   885b6:	d1d2      	bne.n	8855e <__sfvwrite_r+0x26>
   885b8:	f013 0a01 	ands.w	sl, r3, #1
   885bc:	d142      	bne.n	88644 <__sfvwrite_r+0x10c>
   885be:	46d0      	mov	r8, sl
   885c0:	f1b8 0f00 	cmp.w	r8, #0
   885c4:	d023      	beq.n	8860e <__sfvwrite_r+0xd6>
   885c6:	059a      	lsls	r2, r3, #22
   885c8:	68a7      	ldr	r7, [r4, #8]
   885ca:	d576      	bpl.n	886ba <__sfvwrite_r+0x182>
   885cc:	45b8      	cmp	r8, r7
   885ce:	f0c0 80a4 	bcc.w	8871a <__sfvwrite_r+0x1e2>
   885d2:	f413 6f90 	tst.w	r3, #1152	; 0x480
   885d6:	f040 80b2 	bne.w	8873e <__sfvwrite_r+0x206>
   885da:	6820      	ldr	r0, [r4, #0]
   885dc:	46bb      	mov	fp, r7
   885de:	4651      	mov	r1, sl
   885e0:	465a      	mov	r2, fp
   885e2:	f000 fcc5 	bl	88f70 <memmove>
   885e6:	68a2      	ldr	r2, [r4, #8]
   885e8:	6821      	ldr	r1, [r4, #0]
   885ea:	1bd2      	subs	r2, r2, r7
   885ec:	eb01 030b 	add.w	r3, r1, fp
   885f0:	60a2      	str	r2, [r4, #8]
   885f2:	6023      	str	r3, [r4, #0]
   885f4:	4642      	mov	r2, r8
   885f6:	68b3      	ldr	r3, [r6, #8]
   885f8:	4492      	add	sl, r2
   885fa:	1a9b      	subs	r3, r3, r2
   885fc:	ebc2 0808 	rsb	r8, r2, r8
   88600:	60b3      	str	r3, [r6, #8]
   88602:	2b00      	cmp	r3, #0
   88604:	d0c6      	beq.n	88594 <__sfvwrite_r+0x5c>
   88606:	89a3      	ldrh	r3, [r4, #12]
   88608:	f1b8 0f00 	cmp.w	r8, #0
   8860c:	d1db      	bne.n	885c6 <__sfvwrite_r+0x8e>
   8860e:	f8d5 a000 	ldr.w	sl, [r5]
   88612:	f8d5 8004 	ldr.w	r8, [r5, #4]
   88616:	3508      	adds	r5, #8
   88618:	e7d2      	b.n	885c0 <__sfvwrite_r+0x88>
   8861a:	f8d5 a000 	ldr.w	sl, [r5]
   8861e:	f8d5 8004 	ldr.w	r8, [r5, #4]
   88622:	3508      	adds	r5, #8
   88624:	e7a0      	b.n	88568 <__sfvwrite_r+0x30>
   88626:	4648      	mov	r0, r9
   88628:	4621      	mov	r1, r4
   8862a:	f7ff fd59 	bl	880e0 <_fflush_r>
   8862e:	2800      	cmp	r0, #0
   88630:	d059      	beq.n	886e6 <__sfvwrite_r+0x1ae>
   88632:	89a3      	ldrh	r3, [r4, #12]
   88634:	f043 0340 	orr.w	r3, r3, #64	; 0x40
   88638:	f04f 30ff 	mov.w	r0, #4294967295
   8863c:	81a3      	strh	r3, [r4, #12]
   8863e:	b003      	add	sp, #12
   88640:	e8bd 8ff0 	ldmia.w	sp!, {r4, r5, r6, r7, r8, r9, sl, fp, pc}
   88644:	4692      	mov	sl, r2
   88646:	9201      	str	r2, [sp, #4]
   88648:	4693      	mov	fp, r2
   8864a:	4690      	mov	r8, r2
   8864c:	f1b8 0f00 	cmp.w	r8, #0
   88650:	d02b      	beq.n	886aa <__sfvwrite_r+0x172>
   88652:	9f01      	ldr	r7, [sp, #4]
   88654:	2f00      	cmp	r7, #0
   88656:	d064      	beq.n	88722 <__sfvwrite_r+0x1ea>
   88658:	6820      	ldr	r0, [r4, #0]
   8865a:	6921      	ldr	r1, [r4, #16]
   8865c:	45c2      	cmp	sl, r8
   8865e:	bf34      	ite	cc
   88660:	4653      	movcc	r3, sl
   88662:	4643      	movcs	r3, r8
   88664:	4288      	cmp	r0, r1
   88666:	461f      	mov	r7, r3
   88668:	f8d4 c008 	ldr.w	ip, [r4, #8]
   8866c:	6962      	ldr	r2, [r4, #20]
   8866e:	d903      	bls.n	88678 <__sfvwrite_r+0x140>
   88670:	4494      	add	ip, r2
   88672:	4563      	cmp	r3, ip
   88674:	f300 80ae 	bgt.w	887d4 <__sfvwrite_r+0x29c>
   88678:	4293      	cmp	r3, r2
   8867a:	db36      	blt.n	886ea <__sfvwrite_r+0x1b2>
   8867c:	4613      	mov	r3, r2
   8867e:	6a67      	ldr	r7, [r4, #36]	; 0x24
   88680:	4648      	mov	r0, r9
   88682:	69e1      	ldr	r1, [r4, #28]
   88684:	465a      	mov	r2, fp
   88686:	47b8      	blx	r7
   88688:	1e07      	subs	r7, r0, #0
   8868a:	ddd2      	ble.n	88632 <__sfvwrite_r+0xfa>
   8868c:	ebba 0a07 	subs.w	sl, sl, r7
   88690:	d03a      	beq.n	88708 <__sfvwrite_r+0x1d0>
   88692:	68b3      	ldr	r3, [r6, #8]
   88694:	44bb      	add	fp, r7
   88696:	1bdb      	subs	r3, r3, r7
   88698:	ebc7 0808 	rsb	r8, r7, r8
   8869c:	60b3      	str	r3, [r6, #8]
   8869e:	2b00      	cmp	r3, #0
   886a0:	f43f af78 	beq.w	88594 <__sfvwrite_r+0x5c>
   886a4:	f1b8 0f00 	cmp.w	r8, #0
   886a8:	d1d3      	bne.n	88652 <__sfvwrite_r+0x11a>
   886aa:	2700      	movs	r7, #0
   886ac:	f8d5 b000 	ldr.w	fp, [r5]
   886b0:	f8d5 8004 	ldr.w	r8, [r5, #4]
   886b4:	9701      	str	r7, [sp, #4]
   886b6:	3508      	adds	r5, #8
   886b8:	e7c8      	b.n	8864c <__sfvwrite_r+0x114>
   886ba:	6820      	ldr	r0, [r4, #0]
   886bc:	6923      	ldr	r3, [r4, #16]
   886be:	4298      	cmp	r0, r3
   886c0:	d802      	bhi.n	886c8 <__sfvwrite_r+0x190>
   886c2:	6963      	ldr	r3, [r4, #20]
   886c4:	4598      	cmp	r8, r3
   886c6:	d272      	bcs.n	887ae <__sfvwrite_r+0x276>
   886c8:	45b8      	cmp	r8, r7
   886ca:	bf38      	it	cc
   886cc:	4647      	movcc	r7, r8
   886ce:	463a      	mov	r2, r7
   886d0:	4651      	mov	r1, sl
   886d2:	f000 fc4d 	bl	88f70 <memmove>
   886d6:	68a3      	ldr	r3, [r4, #8]
   886d8:	6822      	ldr	r2, [r4, #0]
   886da:	1bdb      	subs	r3, r3, r7
   886dc:	443a      	add	r2, r7
   886de:	60a3      	str	r3, [r4, #8]
   886e0:	6022      	str	r2, [r4, #0]
   886e2:	2b00      	cmp	r3, #0
   886e4:	d09f      	beq.n	88626 <__sfvwrite_r+0xee>
   886e6:	463a      	mov	r2, r7
   886e8:	e785      	b.n	885f6 <__sfvwrite_r+0xbe>
   886ea:	461a      	mov	r2, r3
   886ec:	4659      	mov	r1, fp
   886ee:	9300      	str	r3, [sp, #0]
   886f0:	f000 fc3e 	bl	88f70 <memmove>
   886f4:	9b00      	ldr	r3, [sp, #0]
   886f6:	68a1      	ldr	r1, [r4, #8]
   886f8:	6822      	ldr	r2, [r4, #0]
   886fa:	1ac9      	subs	r1, r1, r3
   886fc:	ebba 0a07 	subs.w	sl, sl, r7
   88700:	4413      	add	r3, r2
   88702:	60a1      	str	r1, [r4, #8]
   88704:	6023      	str	r3, [r4, #0]
   88706:	d1c4      	bne.n	88692 <__sfvwrite_r+0x15a>
   88708:	4648      	mov	r0, r9
   8870a:	4621      	mov	r1, r4
   8870c:	f7ff fce8 	bl	880e0 <_fflush_r>
   88710:	2800      	cmp	r0, #0
   88712:	d18e      	bne.n	88632 <__sfvwrite_r+0xfa>
   88714:	f8cd a004 	str.w	sl, [sp, #4]
   88718:	e7bb      	b.n	88692 <__sfvwrite_r+0x15a>
   8871a:	6820      	ldr	r0, [r4, #0]
   8871c:	4647      	mov	r7, r8
   8871e:	46c3      	mov	fp, r8
   88720:	e75d      	b.n	885de <__sfvwrite_r+0xa6>
   88722:	4658      	mov	r0, fp
   88724:	210a      	movs	r1, #10
   88726:	4642      	mov	r2, r8
   88728:	f000 fbd8 	bl	88edc <memchr>
   8872c:	2800      	cmp	r0, #0
   8872e:	d07f      	beq.n	88830 <__sfvwrite_r+0x2f8>
   88730:	f100 0a01 	add.w	sl, r0, #1
   88734:	2701      	movs	r7, #1
   88736:	ebcb 0a0a 	rsb	sl, fp, sl
   8873a:	9701      	str	r7, [sp, #4]
   8873c:	e78c      	b.n	88658 <__sfvwrite_r+0x120>
   8873e:	6822      	ldr	r2, [r4, #0]
   88740:	6921      	ldr	r1, [r4, #16]
   88742:	6967      	ldr	r7, [r4, #20]
   88744:	ebc1 0c02 	rsb	ip, r1, r2
   88748:	eb07 0747 	add.w	r7, r7, r7, lsl #1
   8874c:	f10c 0201 	add.w	r2, ip, #1
   88750:	eb07 77d7 	add.w	r7, r7, r7, lsr #31
   88754:	4442      	add	r2, r8
   88756:	107f      	asrs	r7, r7, #1
   88758:	4297      	cmp	r7, r2
   8875a:	bf34      	ite	cc
   8875c:	4617      	movcc	r7, r2
   8875e:	463a      	movcs	r2, r7
   88760:	055b      	lsls	r3, r3, #21
   88762:	d54f      	bpl.n	88804 <__sfvwrite_r+0x2cc>
   88764:	4611      	mov	r1, r2
   88766:	4648      	mov	r0, r9
   88768:	f8cd c000 	str.w	ip, [sp]
   8876c:	f000 f91a 	bl	889a4 <_malloc_r>
   88770:	f8dd c000 	ldr.w	ip, [sp]
   88774:	4683      	mov	fp, r0
   88776:	2800      	cmp	r0, #0
   88778:	d062      	beq.n	88840 <__sfvwrite_r+0x308>
   8877a:	4662      	mov	r2, ip
   8877c:	6921      	ldr	r1, [r4, #16]
   8877e:	f8cd c000 	str.w	ip, [sp]
   88782:	f7fc f8fd 	bl	84980 <memcpy>
   88786:	89a2      	ldrh	r2, [r4, #12]
   88788:	f8dd c000 	ldr.w	ip, [sp]
   8878c:	f422 6290 	bic.w	r2, r2, #1152	; 0x480
   88790:	f042 0280 	orr.w	r2, r2, #128	; 0x80
   88794:	81a2      	strh	r2, [r4, #12]
   88796:	eb0b 000c 	add.w	r0, fp, ip
   8879a:	ebcc 0207 	rsb	r2, ip, r7
   8879e:	f8c4 b010 	str.w	fp, [r4, #16]
   887a2:	6167      	str	r7, [r4, #20]
   887a4:	6020      	str	r0, [r4, #0]
   887a6:	60a2      	str	r2, [r4, #8]
   887a8:	4647      	mov	r7, r8
   887aa:	46c3      	mov	fp, r8
   887ac:	e717      	b.n	885de <__sfvwrite_r+0xa6>
   887ae:	f06f 4200 	mvn.w	r2, #2147483648	; 0x80000000
   887b2:	4590      	cmp	r8, r2
   887b4:	bf38      	it	cc
   887b6:	4642      	movcc	r2, r8
   887b8:	fb92 f2f3 	sdiv	r2, r2, r3
   887bc:	fb02 f303 	mul.w	r3, r2, r3
   887c0:	6a67      	ldr	r7, [r4, #36]	; 0x24
   887c2:	4648      	mov	r0, r9
   887c4:	69e1      	ldr	r1, [r4, #28]
   887c6:	4652      	mov	r2, sl
   887c8:	47b8      	blx	r7
   887ca:	2800      	cmp	r0, #0
   887cc:	f77f af31 	ble.w	88632 <__sfvwrite_r+0xfa>
   887d0:	4602      	mov	r2, r0
   887d2:	e710      	b.n	885f6 <__sfvwrite_r+0xbe>
   887d4:	4662      	mov	r2, ip
   887d6:	4659      	mov	r1, fp
   887d8:	f8cd c000 	str.w	ip, [sp]
   887dc:	f000 fbc8 	bl	88f70 <memmove>
   887e0:	f8dd c000 	ldr.w	ip, [sp]
   887e4:	6823      	ldr	r3, [r4, #0]
   887e6:	4648      	mov	r0, r9
   887e8:	4463      	add	r3, ip
   887ea:	6023      	str	r3, [r4, #0]
   887ec:	4621      	mov	r1, r4
   887ee:	f8cd c000 	str.w	ip, [sp]
   887f2:	f7ff fc75 	bl	880e0 <_fflush_r>
   887f6:	f8dd c000 	ldr.w	ip, [sp]
   887fa:	2800      	cmp	r0, #0
   887fc:	f47f af19 	bne.w	88632 <__sfvwrite_r+0xfa>
   88800:	4667      	mov	r7, ip
   88802:	e743      	b.n	8868c <__sfvwrite_r+0x154>
   88804:	4648      	mov	r0, r9
   88806:	f8cd c000 	str.w	ip, [sp]
   8880a:	f000 ff25 	bl	89658 <_realloc_r>
   8880e:	f8dd c000 	ldr.w	ip, [sp]
   88812:	4683      	mov	fp, r0
   88814:	2800      	cmp	r0, #0
   88816:	d1be      	bne.n	88796 <__sfvwrite_r+0x25e>
   88818:	4648      	mov	r0, r9
   8881a:	6921      	ldr	r1, [r4, #16]
   8881c:	f7ff fdc0 	bl	883a0 <_free_r>
   88820:	89a3      	ldrh	r3, [r4, #12]
   88822:	220c      	movs	r2, #12
   88824:	f023 0380 	bic.w	r3, r3, #128	; 0x80
   88828:	b29b      	uxth	r3, r3
   8882a:	f8c9 2000 	str.w	r2, [r9]
   8882e:	e701      	b.n	88634 <__sfvwrite_r+0xfc>
   88830:	2701      	movs	r7, #1
   88832:	f108 0a01 	add.w	sl, r8, #1
   88836:	9701      	str	r7, [sp, #4]
   88838:	e70e      	b.n	88658 <__sfvwrite_r+0x120>
   8883a:	f04f 30ff 	mov.w	r0, #4294967295
   8883e:	e6aa      	b.n	88596 <__sfvwrite_r+0x5e>
   88840:	230c      	movs	r3, #12
   88842:	f8c9 3000 	str.w	r3, [r9]
   88846:	89a3      	ldrh	r3, [r4, #12]
   88848:	e6f4      	b.n	88634 <__sfvwrite_r+0xfc>
   8884a:	bf00      	nop
   8884c:	7ffffc00 	.word	0x7ffffc00

00088850 <_fwalk>:
   88850:	e92d 41f0 	stmdb	sp!, {r4, r5, r6, r7, r8, lr}
   88854:	f510 7738 	adds.w	r7, r0, #736	; 0x2e0
   88858:	4688      	mov	r8, r1
   8885a:	d019      	beq.n	88890 <_fwalk+0x40>
   8885c:	2600      	movs	r6, #0
   8885e:	687d      	ldr	r5, [r7, #4]
   88860:	68bc      	ldr	r4, [r7, #8]
   88862:	3d01      	subs	r5, #1
   88864:	d40e      	bmi.n	88884 <_fwalk+0x34>
   88866:	89a3      	ldrh	r3, [r4, #12]
   88868:	3d01      	subs	r5, #1
   8886a:	2b01      	cmp	r3, #1
   8886c:	d906      	bls.n	8887c <_fwalk+0x2c>
   8886e:	f9b4 300e 	ldrsh.w	r3, [r4, #14]
   88872:	4620      	mov	r0, r4
   88874:	3301      	adds	r3, #1
   88876:	d001      	beq.n	8887c <_fwalk+0x2c>
   88878:	47c0      	blx	r8
   8887a:	4306      	orrs	r6, r0
   8887c:	1c6b      	adds	r3, r5, #1
   8887e:	f104 0468 	add.w	r4, r4, #104	; 0x68
   88882:	d1f0      	bne.n	88866 <_fwalk+0x16>
   88884:	683f      	ldr	r7, [r7, #0]
   88886:	2f00      	cmp	r7, #0
   88888:	d1e9      	bne.n	8885e <_fwalk+0xe>
   8888a:	4630      	mov	r0, r6
   8888c:	e8bd 81f0 	ldmia.w	sp!, {r4, r5, r6, r7, r8, pc}
   88890:	463e      	mov	r6, r7
   88892:	4630      	mov	r0, r6
   88894:	e8bd 81f0 	ldmia.w	sp!, {r4, r5, r6, r7, r8, pc}

00088898 <__locale_charset>:
   88898:	4800      	ldr	r0, [pc, #0]	; (8889c <__locale_charset+0x4>)
   8889a:	4770      	bx	lr
   8889c:	20070614 	.word	0x20070614

000888a0 <__locale_mb_cur_max>:
   888a0:	4b01      	ldr	r3, [pc, #4]	; (888a8 <__locale_mb_cur_max+0x8>)
   888a2:	6818      	ldr	r0, [r3, #0]
   888a4:	4770      	bx	lr
   888a6:	bf00      	nop
   888a8:	20070634 	.word	0x20070634

000888ac <_localeconv_r>:
   888ac:	4800      	ldr	r0, [pc, #0]	; (888b0 <_localeconv_r+0x4>)
   888ae:	4770      	bx	lr
   888b0:	200705dc 	.word	0x200705dc

000888b4 <__smakebuf_r>:
   888b4:	b5f0      	push	{r4, r5, r6, r7, lr}
   888b6:	898b      	ldrh	r3, [r1, #12]
   888b8:	b091      	sub	sp, #68	; 0x44
   888ba:	b29a      	uxth	r2, r3
   888bc:	0796      	lsls	r6, r2, #30
   888be:	460c      	mov	r4, r1
   888c0:	4605      	mov	r5, r0
   888c2:	d437      	bmi.n	88934 <__smakebuf_r+0x80>
   888c4:	f9b1 100e 	ldrsh.w	r1, [r1, #14]
   888c8:	2900      	cmp	r1, #0
   888ca:	db17      	blt.n	888fc <__smakebuf_r+0x48>
   888cc:	aa01      	add	r2, sp, #4
   888ce:	f001 faf3 	bl	89eb8 <_fstat_r>
   888d2:	2800      	cmp	r0, #0
   888d4:	db10      	blt.n	888f8 <__smakebuf_r+0x44>
   888d6:	9b02      	ldr	r3, [sp, #8]
   888d8:	f403 4370 	and.w	r3, r3, #61440	; 0xf000
   888dc:	f5b3 5100 	subs.w	r1, r3, #8192	; 0x2000
   888e0:	424f      	negs	r7, r1
   888e2:	414f      	adcs	r7, r1
   888e4:	f5b3 4f00 	cmp.w	r3, #32768	; 0x8000
   888e8:	d02c      	beq.n	88944 <__smakebuf_r+0x90>
   888ea:	89a3      	ldrh	r3, [r4, #12]
   888ec:	f44f 6680 	mov.w	r6, #1024	; 0x400
   888f0:	f443 6300 	orr.w	r3, r3, #2048	; 0x800
   888f4:	81a3      	strh	r3, [r4, #12]
   888f6:	e00b      	b.n	88910 <__smakebuf_r+0x5c>
   888f8:	89a3      	ldrh	r3, [r4, #12]
   888fa:	b29a      	uxth	r2, r3
   888fc:	f012 0f80 	tst.w	r2, #128	; 0x80
   88900:	f443 6300 	orr.w	r3, r3, #2048	; 0x800
   88904:	81a3      	strh	r3, [r4, #12]
   88906:	bf14      	ite	ne
   88908:	2640      	movne	r6, #64	; 0x40
   8890a:	f44f 6680 	moveq.w	r6, #1024	; 0x400
   8890e:	2700      	movs	r7, #0
   88910:	4628      	mov	r0, r5
   88912:	4631      	mov	r1, r6
   88914:	f000 f846 	bl	889a4 <_malloc_r>
   88918:	89a3      	ldrh	r3, [r4, #12]
   8891a:	2800      	cmp	r0, #0
   8891c:	d029      	beq.n	88972 <__smakebuf_r+0xbe>
   8891e:	4a1b      	ldr	r2, [pc, #108]	; (8898c <__smakebuf_r+0xd8>)
   88920:	f043 0380 	orr.w	r3, r3, #128	; 0x80
   88924:	63ea      	str	r2, [r5, #60]	; 0x3c
   88926:	81a3      	strh	r3, [r4, #12]
   88928:	6020      	str	r0, [r4, #0]
   8892a:	6120      	str	r0, [r4, #16]
   8892c:	6166      	str	r6, [r4, #20]
   8892e:	b9a7      	cbnz	r7, 8895a <__smakebuf_r+0xa6>
   88930:	b011      	add	sp, #68	; 0x44
   88932:	bdf0      	pop	{r4, r5, r6, r7, pc}
   88934:	f101 0343 	add.w	r3, r1, #67	; 0x43
   88938:	2201      	movs	r2, #1
   8893a:	600b      	str	r3, [r1, #0]
   8893c:	610b      	str	r3, [r1, #16]
   8893e:	614a      	str	r2, [r1, #20]
   88940:	b011      	add	sp, #68	; 0x44
   88942:	bdf0      	pop	{r4, r5, r6, r7, pc}
   88944:	4a12      	ldr	r2, [pc, #72]	; (88990 <__smakebuf_r+0xdc>)
   88946:	6aa3      	ldr	r3, [r4, #40]	; 0x28
   88948:	4293      	cmp	r3, r2
   8894a:	d1ce      	bne.n	888ea <__smakebuf_r+0x36>
   8894c:	89a3      	ldrh	r3, [r4, #12]
   8894e:	f44f 6680 	mov.w	r6, #1024	; 0x400
   88952:	4333      	orrs	r3, r6
   88954:	81a3      	strh	r3, [r4, #12]
   88956:	64e6      	str	r6, [r4, #76]	; 0x4c
   88958:	e7da      	b.n	88910 <__smakebuf_r+0x5c>
   8895a:	4628      	mov	r0, r5
   8895c:	f9b4 100e 	ldrsh.w	r1, [r4, #14]
   88960:	f001 fabe 	bl	89ee0 <_isatty_r>
   88964:	2800      	cmp	r0, #0
   88966:	d0e3      	beq.n	88930 <__smakebuf_r+0x7c>
   88968:	89a3      	ldrh	r3, [r4, #12]
   8896a:	f043 0301 	orr.w	r3, r3, #1
   8896e:	81a3      	strh	r3, [r4, #12]
   88970:	e7de      	b.n	88930 <__smakebuf_r+0x7c>
   88972:	059a      	lsls	r2, r3, #22
   88974:	d4dc      	bmi.n	88930 <__smakebuf_r+0x7c>
   88976:	f104 0243 	add.w	r2, r4, #67	; 0x43
   8897a:	f043 0302 	orr.w	r3, r3, #2
   8897e:	2101      	movs	r1, #1
   88980:	81a3      	strh	r3, [r4, #12]
   88982:	6022      	str	r2, [r4, #0]
   88984:	6122      	str	r2, [r4, #16]
   88986:	6161      	str	r1, [r4, #20]
   88988:	e7d2      	b.n	88930 <__smakebuf_r+0x7c>
   8898a:	bf00      	nop
   8898c:	0008810d 	.word	0x0008810d
   88990:	00089a99 	.word	0x00089a99

00088994 <malloc>:
   88994:	4b02      	ldr	r3, [pc, #8]	; (889a0 <malloc+0xc>)
   88996:	4601      	mov	r1, r0
   88998:	6818      	ldr	r0, [r3, #0]
   8899a:	f000 b803 	b.w	889a4 <_malloc_r>
   8899e:	bf00      	nop
   889a0:	200705d8 	.word	0x200705d8

000889a4 <_malloc_r>:
   889a4:	e92d 4ff0 	stmdb	sp!, {r4, r5, r6, r7, r8, r9, sl, fp, lr}
   889a8:	f101 050b 	add.w	r5, r1, #11
   889ac:	2d16      	cmp	r5, #22
   889ae:	b083      	sub	sp, #12
   889b0:	4606      	mov	r6, r0
   889b2:	d927      	bls.n	88a04 <_malloc_r+0x60>
   889b4:	f035 0507 	bics.w	r5, r5, #7
   889b8:	d427      	bmi.n	88a0a <_malloc_r+0x66>
   889ba:	42a9      	cmp	r1, r5
   889bc:	d825      	bhi.n	88a0a <_malloc_r+0x66>
   889be:	4630      	mov	r0, r6
   889c0:	f000 fb3c 	bl	8903c <__malloc_lock>
   889c4:	f5b5 7ffc 	cmp.w	r5, #504	; 0x1f8
   889c8:	d226      	bcs.n	88a18 <_malloc_r+0x74>
   889ca:	4fc1      	ldr	r7, [pc, #772]	; (88cd0 <_malloc_r+0x32c>)
   889cc:	ea4f 0cd5 	mov.w	ip, r5, lsr #3
   889d0:	eb07 03cc 	add.w	r3, r7, ip, lsl #3
   889d4:	68dc      	ldr	r4, [r3, #12]
   889d6:	429c      	cmp	r4, r3
   889d8:	f000 81d2 	beq.w	88d80 <_malloc_r+0x3dc>
   889dc:	6863      	ldr	r3, [r4, #4]
   889de:	68e2      	ldr	r2, [r4, #12]
   889e0:	f023 0303 	bic.w	r3, r3, #3
   889e4:	4423      	add	r3, r4
   889e6:	6858      	ldr	r0, [r3, #4]
   889e8:	68a1      	ldr	r1, [r4, #8]
   889ea:	f040 0501 	orr.w	r5, r0, #1
   889ee:	60ca      	str	r2, [r1, #12]
   889f0:	4630      	mov	r0, r6
   889f2:	6091      	str	r1, [r2, #8]
   889f4:	605d      	str	r5, [r3, #4]
   889f6:	f000 fb23 	bl	89040 <__malloc_unlock>
   889fa:	3408      	adds	r4, #8
   889fc:	4620      	mov	r0, r4
   889fe:	b003      	add	sp, #12
   88a00:	e8bd 8ff0 	ldmia.w	sp!, {r4, r5, r6, r7, r8, r9, sl, fp, pc}
   88a04:	2510      	movs	r5, #16
   88a06:	42a9      	cmp	r1, r5
   88a08:	d9d9      	bls.n	889be <_malloc_r+0x1a>
   88a0a:	2400      	movs	r4, #0
   88a0c:	230c      	movs	r3, #12
   88a0e:	4620      	mov	r0, r4
   88a10:	6033      	str	r3, [r6, #0]
   88a12:	b003      	add	sp, #12
   88a14:	e8bd 8ff0 	ldmia.w	sp!, {r4, r5, r6, r7, r8, r9, sl, fp, pc}
   88a18:	ea5f 2c55 	movs.w	ip, r5, lsr #9
   88a1c:	f000 8089 	beq.w	88b32 <_malloc_r+0x18e>
   88a20:	f1bc 0f04 	cmp.w	ip, #4
   88a24:	f200 8160 	bhi.w	88ce8 <_malloc_r+0x344>
   88a28:	ea4f 1c95 	mov.w	ip, r5, lsr #6
   88a2c:	f10c 0c38 	add.w	ip, ip, #56	; 0x38
   88a30:	ea4f 014c 	mov.w	r1, ip, lsl #1
   88a34:	4fa6      	ldr	r7, [pc, #664]	; (88cd0 <_malloc_r+0x32c>)
   88a36:	eb07 0181 	add.w	r1, r7, r1, lsl #2
   88a3a:	68cc      	ldr	r4, [r1, #12]
   88a3c:	42a1      	cmp	r1, r4
   88a3e:	d105      	bne.n	88a4c <_malloc_r+0xa8>
   88a40:	e00c      	b.n	88a5c <_malloc_r+0xb8>
   88a42:	2b00      	cmp	r3, #0
   88a44:	da79      	bge.n	88b3a <_malloc_r+0x196>
   88a46:	68e4      	ldr	r4, [r4, #12]
   88a48:	42a1      	cmp	r1, r4
   88a4a:	d007      	beq.n	88a5c <_malloc_r+0xb8>
   88a4c:	6862      	ldr	r2, [r4, #4]
   88a4e:	f022 0203 	bic.w	r2, r2, #3
   88a52:	1b53      	subs	r3, r2, r5
   88a54:	2b0f      	cmp	r3, #15
   88a56:	ddf4      	ble.n	88a42 <_malloc_r+0x9e>
   88a58:	f10c 3cff 	add.w	ip, ip, #4294967295
   88a5c:	f10c 0c01 	add.w	ip, ip, #1
   88a60:	4b9b      	ldr	r3, [pc, #620]	; (88cd0 <_malloc_r+0x32c>)
   88a62:	693c      	ldr	r4, [r7, #16]
   88a64:	f103 0e08 	add.w	lr, r3, #8
   88a68:	4574      	cmp	r4, lr
   88a6a:	f000 817e 	beq.w	88d6a <_malloc_r+0x3c6>
   88a6e:	6861      	ldr	r1, [r4, #4]
   88a70:	f021 0103 	bic.w	r1, r1, #3
   88a74:	1b4a      	subs	r2, r1, r5
   88a76:	2a0f      	cmp	r2, #15
   88a78:	f300 8164 	bgt.w	88d44 <_malloc_r+0x3a0>
   88a7c:	2a00      	cmp	r2, #0
   88a7e:	f8c3 e014 	str.w	lr, [r3, #20]
   88a82:	f8c3 e010 	str.w	lr, [r3, #16]
   88a86:	da69      	bge.n	88b5c <_malloc_r+0x1b8>
   88a88:	f5b1 7f00 	cmp.w	r1, #512	; 0x200
   88a8c:	f080 813a 	bcs.w	88d04 <_malloc_r+0x360>
   88a90:	08c9      	lsrs	r1, r1, #3
   88a92:	108a      	asrs	r2, r1, #2
   88a94:	f04f 0801 	mov.w	r8, #1
   88a98:	fa08 f802 	lsl.w	r8, r8, r2
   88a9c:	eb03 01c1 	add.w	r1, r3, r1, lsl #3
   88aa0:	685a      	ldr	r2, [r3, #4]
   88aa2:	6888      	ldr	r0, [r1, #8]
   88aa4:	ea48 0202 	orr.w	r2, r8, r2
   88aa8:	60a0      	str	r0, [r4, #8]
   88aaa:	60e1      	str	r1, [r4, #12]
   88aac:	605a      	str	r2, [r3, #4]
   88aae:	608c      	str	r4, [r1, #8]
   88ab0:	60c4      	str	r4, [r0, #12]
   88ab2:	ea4f 03ac 	mov.w	r3, ip, asr #2
   88ab6:	2001      	movs	r0, #1
   88ab8:	4098      	lsls	r0, r3
   88aba:	4290      	cmp	r0, r2
   88abc:	d85b      	bhi.n	88b76 <_malloc_r+0x1d2>
   88abe:	4202      	tst	r2, r0
   88ac0:	d106      	bne.n	88ad0 <_malloc_r+0x12c>
   88ac2:	f02c 0c03 	bic.w	ip, ip, #3
   88ac6:	0040      	lsls	r0, r0, #1
   88ac8:	4202      	tst	r2, r0
   88aca:	f10c 0c04 	add.w	ip, ip, #4
   88ace:	d0fa      	beq.n	88ac6 <_malloc_r+0x122>
   88ad0:	eb07 08cc 	add.w	r8, r7, ip, lsl #3
   88ad4:	4644      	mov	r4, r8
   88ad6:	46e1      	mov	r9, ip
   88ad8:	68e3      	ldr	r3, [r4, #12]
   88ada:	429c      	cmp	r4, r3
   88adc:	d107      	bne.n	88aee <_malloc_r+0x14a>
   88ade:	e146      	b.n	88d6e <_malloc_r+0x3ca>
   88ae0:	2a00      	cmp	r2, #0
   88ae2:	f280 8157 	bge.w	88d94 <_malloc_r+0x3f0>
   88ae6:	68db      	ldr	r3, [r3, #12]
   88ae8:	429c      	cmp	r4, r3
   88aea:	f000 8140 	beq.w	88d6e <_malloc_r+0x3ca>
   88aee:	6859      	ldr	r1, [r3, #4]
   88af0:	f021 0103 	bic.w	r1, r1, #3
   88af4:	1b4a      	subs	r2, r1, r5
   88af6:	2a0f      	cmp	r2, #15
   88af8:	ddf2      	ble.n	88ae0 <_malloc_r+0x13c>
   88afa:	461c      	mov	r4, r3
   88afc:	f854 cf08 	ldr.w	ip, [r4, #8]!
   88b00:	68d9      	ldr	r1, [r3, #12]
   88b02:	f045 0901 	orr.w	r9, r5, #1
   88b06:	f042 0801 	orr.w	r8, r2, #1
   88b0a:	441d      	add	r5, r3
   88b0c:	f8c3 9004 	str.w	r9, [r3, #4]
   88b10:	4630      	mov	r0, r6
   88b12:	f8cc 100c 	str.w	r1, [ip, #12]
   88b16:	f8c1 c008 	str.w	ip, [r1, #8]
   88b1a:	617d      	str	r5, [r7, #20]
   88b1c:	613d      	str	r5, [r7, #16]
   88b1e:	f8c5 e00c 	str.w	lr, [r5, #12]
   88b22:	f8c5 e008 	str.w	lr, [r5, #8]
   88b26:	f8c5 8004 	str.w	r8, [r5, #4]
   88b2a:	50aa      	str	r2, [r5, r2]
   88b2c:	f000 fa88 	bl	89040 <__malloc_unlock>
   88b30:	e764      	b.n	889fc <_malloc_r+0x58>
   88b32:	217e      	movs	r1, #126	; 0x7e
   88b34:	f04f 0c3f 	mov.w	ip, #63	; 0x3f
   88b38:	e77c      	b.n	88a34 <_malloc_r+0x90>
   88b3a:	4422      	add	r2, r4
   88b3c:	6850      	ldr	r0, [r2, #4]
   88b3e:	68e3      	ldr	r3, [r4, #12]
   88b40:	68a1      	ldr	r1, [r4, #8]
   88b42:	f040 0501 	orr.w	r5, r0, #1
   88b46:	60cb      	str	r3, [r1, #12]
   88b48:	4630      	mov	r0, r6
   88b4a:	6099      	str	r1, [r3, #8]
   88b4c:	6055      	str	r5, [r2, #4]
   88b4e:	f000 fa77 	bl	89040 <__malloc_unlock>
   88b52:	3408      	adds	r4, #8
   88b54:	4620      	mov	r0, r4
   88b56:	b003      	add	sp, #12
   88b58:	e8bd 8ff0 	ldmia.w	sp!, {r4, r5, r6, r7, r8, r9, sl, fp, pc}
   88b5c:	4421      	add	r1, r4
   88b5e:	684b      	ldr	r3, [r1, #4]
   88b60:	4630      	mov	r0, r6
   88b62:	f043 0301 	orr.w	r3, r3, #1
   88b66:	604b      	str	r3, [r1, #4]
   88b68:	f000 fa6a 	bl	89040 <__malloc_unlock>
   88b6c:	3408      	adds	r4, #8
   88b6e:	4620      	mov	r0, r4
   88b70:	b003      	add	sp, #12
   88b72:	e8bd 8ff0 	ldmia.w	sp!, {r4, r5, r6, r7, r8, r9, sl, fp, pc}
   88b76:	68bc      	ldr	r4, [r7, #8]
   88b78:	6863      	ldr	r3, [r4, #4]
   88b7a:	f023 0903 	bic.w	r9, r3, #3
   88b7e:	45a9      	cmp	r9, r5
   88b80:	d304      	bcc.n	88b8c <_malloc_r+0x1e8>
   88b82:	ebc5 0309 	rsb	r3, r5, r9
   88b86:	2b0f      	cmp	r3, #15
   88b88:	f300 8091 	bgt.w	88cae <_malloc_r+0x30a>
   88b8c:	4b51      	ldr	r3, [pc, #324]	; (88cd4 <_malloc_r+0x330>)
   88b8e:	4a52      	ldr	r2, [pc, #328]	; (88cd8 <_malloc_r+0x334>)
   88b90:	6819      	ldr	r1, [r3, #0]
   88b92:	6813      	ldr	r3, [r2, #0]
   88b94:	eb05 0a01 	add.w	sl, r5, r1
   88b98:	3301      	adds	r3, #1
   88b9a:	eb04 0b09 	add.w	fp, r4, r9
   88b9e:	f000 8161 	beq.w	88e64 <_malloc_r+0x4c0>
   88ba2:	f50a 5a80 	add.w	sl, sl, #4096	; 0x1000
   88ba6:	f10a 0a0f 	add.w	sl, sl, #15
   88baa:	f42a 6a7f 	bic.w	sl, sl, #4080	; 0xff0
   88bae:	f02a 0a0f 	bic.w	sl, sl, #15
   88bb2:	4630      	mov	r0, r6
   88bb4:	4651      	mov	r1, sl
   88bb6:	9201      	str	r2, [sp, #4]
   88bb8:	f000 ff2e 	bl	89a18 <_sbrk_r>
   88bbc:	f1b0 3fff 	cmp.w	r0, #4294967295
   88bc0:	4680      	mov	r8, r0
   88bc2:	9a01      	ldr	r2, [sp, #4]
   88bc4:	f000 8101 	beq.w	88dca <_malloc_r+0x426>
   88bc8:	4583      	cmp	fp, r0
   88bca:	f200 80fb 	bhi.w	88dc4 <_malloc_r+0x420>
   88bce:	f8df c114 	ldr.w	ip, [pc, #276]	; 88ce4 <_malloc_r+0x340>
   88bd2:	45c3      	cmp	fp, r8
   88bd4:	f8dc 3000 	ldr.w	r3, [ip]
   88bd8:	4453      	add	r3, sl
   88bda:	f8cc 3000 	str.w	r3, [ip]
   88bde:	f000 814a 	beq.w	88e76 <_malloc_r+0x4d2>
   88be2:	6812      	ldr	r2, [r2, #0]
   88be4:	493c      	ldr	r1, [pc, #240]	; (88cd8 <_malloc_r+0x334>)
   88be6:	3201      	adds	r2, #1
   88be8:	bf1b      	ittet	ne
   88bea:	ebcb 0b08 	rsbne	fp, fp, r8
   88bee:	445b      	addne	r3, fp
   88bf0:	f8c1 8000 	streq.w	r8, [r1]
   88bf4:	f8cc 3000 	strne.w	r3, [ip]
   88bf8:	f018 0307 	ands.w	r3, r8, #7
   88bfc:	f000 8114 	beq.w	88e28 <_malloc_r+0x484>
   88c00:	f1c3 0208 	rsb	r2, r3, #8
   88c04:	f5c3 5380 	rsb	r3, r3, #4096	; 0x1000
   88c08:	4490      	add	r8, r2
   88c0a:	3308      	adds	r3, #8
   88c0c:	44c2      	add	sl, r8
   88c0e:	f3ca 0a0b 	ubfx	sl, sl, #0, #12
   88c12:	ebca 0a03 	rsb	sl, sl, r3
   88c16:	4651      	mov	r1, sl
   88c18:	4630      	mov	r0, r6
   88c1a:	f8cd c004 	str.w	ip, [sp, #4]
   88c1e:	f000 fefb 	bl	89a18 <_sbrk_r>
   88c22:	1c43      	adds	r3, r0, #1
   88c24:	f8dd c004 	ldr.w	ip, [sp, #4]
   88c28:	f000 8135 	beq.w	88e96 <_malloc_r+0x4f2>
   88c2c:	ebc8 0200 	rsb	r2, r8, r0
   88c30:	4452      	add	r2, sl
   88c32:	f042 0201 	orr.w	r2, r2, #1
   88c36:	f8dc 3000 	ldr.w	r3, [ip]
   88c3a:	42bc      	cmp	r4, r7
   88c3c:	4453      	add	r3, sl
   88c3e:	f8c7 8008 	str.w	r8, [r7, #8]
   88c42:	f8cc 3000 	str.w	r3, [ip]
   88c46:	f8c8 2004 	str.w	r2, [r8, #4]
   88c4a:	f8df a098 	ldr.w	sl, [pc, #152]	; 88ce4 <_malloc_r+0x340>
   88c4e:	d015      	beq.n	88c7c <_malloc_r+0x2d8>
   88c50:	f1b9 0f0f 	cmp.w	r9, #15
   88c54:	f240 80eb 	bls.w	88e2e <_malloc_r+0x48a>
   88c58:	6861      	ldr	r1, [r4, #4]
   88c5a:	f1a9 020c 	sub.w	r2, r9, #12
   88c5e:	f022 0207 	bic.w	r2, r2, #7
   88c62:	f001 0101 	and.w	r1, r1, #1
   88c66:	ea42 0e01 	orr.w	lr, r2, r1
   88c6a:	2005      	movs	r0, #5
   88c6c:	18a1      	adds	r1, r4, r2
   88c6e:	2a0f      	cmp	r2, #15
   88c70:	f8c4 e004 	str.w	lr, [r4, #4]
   88c74:	6048      	str	r0, [r1, #4]
   88c76:	6088      	str	r0, [r1, #8]
   88c78:	f200 8111 	bhi.w	88e9e <_malloc_r+0x4fa>
   88c7c:	4a17      	ldr	r2, [pc, #92]	; (88cdc <_malloc_r+0x338>)
   88c7e:	68bc      	ldr	r4, [r7, #8]
   88c80:	6811      	ldr	r1, [r2, #0]
   88c82:	428b      	cmp	r3, r1
   88c84:	bf88      	it	hi
   88c86:	6013      	strhi	r3, [r2, #0]
   88c88:	4a15      	ldr	r2, [pc, #84]	; (88ce0 <_malloc_r+0x33c>)
   88c8a:	6811      	ldr	r1, [r2, #0]
   88c8c:	428b      	cmp	r3, r1
   88c8e:	bf88      	it	hi
   88c90:	6013      	strhi	r3, [r2, #0]
   88c92:	6862      	ldr	r2, [r4, #4]
   88c94:	f022 0203 	bic.w	r2, r2, #3
   88c98:	4295      	cmp	r5, r2
   88c9a:	ebc5 0302 	rsb	r3, r5, r2
   88c9e:	d801      	bhi.n	88ca4 <_malloc_r+0x300>
   88ca0:	2b0f      	cmp	r3, #15
   88ca2:	dc04      	bgt.n	88cae <_malloc_r+0x30a>
   88ca4:	4630      	mov	r0, r6
   88ca6:	f000 f9cb 	bl	89040 <__malloc_unlock>
   88caa:	2400      	movs	r4, #0
   88cac:	e6a6      	b.n	889fc <_malloc_r+0x58>
   88cae:	f045 0201 	orr.w	r2, r5, #1
   88cb2:	f043 0301 	orr.w	r3, r3, #1
   88cb6:	4425      	add	r5, r4
   88cb8:	6062      	str	r2, [r4, #4]
   88cba:	4630      	mov	r0, r6
   88cbc:	60bd      	str	r5, [r7, #8]
   88cbe:	606b      	str	r3, [r5, #4]
   88cc0:	f000 f9be 	bl	89040 <__malloc_unlock>
   88cc4:	3408      	adds	r4, #8
   88cc6:	4620      	mov	r0, r4
   88cc8:	b003      	add	sp, #12
   88cca:	e8bd 8ff0 	ldmia.w	sp!, {r4, r5, r6, r7, r8, r9, sl, fp, pc}
   88cce:	bf00      	nop
   88cd0:	20070638 	.word	0x20070638
   88cd4:	20078d74 	.word	0x20078d74
   88cd8:	20070a44 	.word	0x20070a44
   88cdc:	20078d70 	.word	0x20078d70
   88ce0:	20078d6c 	.word	0x20078d6c
   88ce4:	20078d78 	.word	0x20078d78
   88ce8:	f1bc 0f14 	cmp.w	ip, #20
   88cec:	d961      	bls.n	88db2 <_malloc_r+0x40e>
   88cee:	f1bc 0f54 	cmp.w	ip, #84	; 0x54
   88cf2:	f200 808f 	bhi.w	88e14 <_malloc_r+0x470>
   88cf6:	ea4f 3c15 	mov.w	ip, r5, lsr #12
   88cfa:	f10c 0c6e 	add.w	ip, ip, #110	; 0x6e
   88cfe:	ea4f 014c 	mov.w	r1, ip, lsl #1
   88d02:	e697      	b.n	88a34 <_malloc_r+0x90>
   88d04:	0a4b      	lsrs	r3, r1, #9
   88d06:	2b04      	cmp	r3, #4
   88d08:	d958      	bls.n	88dbc <_malloc_r+0x418>
   88d0a:	2b14      	cmp	r3, #20
   88d0c:	f200 80ad 	bhi.w	88e6a <_malloc_r+0x4c6>
   88d10:	f103 025b 	add.w	r2, r3, #91	; 0x5b
   88d14:	0050      	lsls	r0, r2, #1
   88d16:	eb07 0080 	add.w	r0, r7, r0, lsl #2
   88d1a:	6883      	ldr	r3, [r0, #8]
   88d1c:	f8df 81b8 	ldr.w	r8, [pc, #440]	; 88ed8 <_malloc_r+0x534>
   88d20:	4283      	cmp	r3, r0
   88d22:	f000 808a 	beq.w	88e3a <_malloc_r+0x496>
   88d26:	685a      	ldr	r2, [r3, #4]
   88d28:	f022 0203 	bic.w	r2, r2, #3
   88d2c:	4291      	cmp	r1, r2
   88d2e:	d202      	bcs.n	88d36 <_malloc_r+0x392>
   88d30:	689b      	ldr	r3, [r3, #8]
   88d32:	4298      	cmp	r0, r3
   88d34:	d1f7      	bne.n	88d26 <_malloc_r+0x382>
   88d36:	68d9      	ldr	r1, [r3, #12]
   88d38:	687a      	ldr	r2, [r7, #4]
   88d3a:	60e1      	str	r1, [r4, #12]
   88d3c:	60a3      	str	r3, [r4, #8]
   88d3e:	608c      	str	r4, [r1, #8]
   88d40:	60dc      	str	r4, [r3, #12]
   88d42:	e6b6      	b.n	88ab2 <_malloc_r+0x10e>
   88d44:	f045 0701 	orr.w	r7, r5, #1
   88d48:	f042 0101 	orr.w	r1, r2, #1
   88d4c:	4425      	add	r5, r4
   88d4e:	6067      	str	r7, [r4, #4]
   88d50:	4630      	mov	r0, r6
   88d52:	615d      	str	r5, [r3, #20]
   88d54:	611d      	str	r5, [r3, #16]
   88d56:	f8c5 e00c 	str.w	lr, [r5, #12]
   88d5a:	f8c5 e008 	str.w	lr, [r5, #8]
   88d5e:	6069      	str	r1, [r5, #4]
   88d60:	50aa      	str	r2, [r5, r2]
   88d62:	3408      	adds	r4, #8
   88d64:	f000 f96c 	bl	89040 <__malloc_unlock>
   88d68:	e648      	b.n	889fc <_malloc_r+0x58>
   88d6a:	685a      	ldr	r2, [r3, #4]
   88d6c:	e6a1      	b.n	88ab2 <_malloc_r+0x10e>
   88d6e:	f109 0901 	add.w	r9, r9, #1
   88d72:	f019 0f03 	tst.w	r9, #3
   88d76:	f104 0408 	add.w	r4, r4, #8
   88d7a:	f47f aead 	bne.w	88ad8 <_malloc_r+0x134>
   88d7e:	e02d      	b.n	88ddc <_malloc_r+0x438>
   88d80:	f104 0308 	add.w	r3, r4, #8
   88d84:	6964      	ldr	r4, [r4, #20]
   88d86:	42a3      	cmp	r3, r4
   88d88:	bf08      	it	eq
   88d8a:	f10c 0c02 	addeq.w	ip, ip, #2
   88d8e:	f43f ae67 	beq.w	88a60 <_malloc_r+0xbc>
   88d92:	e623      	b.n	889dc <_malloc_r+0x38>
   88d94:	4419      	add	r1, r3
   88d96:	6848      	ldr	r0, [r1, #4]
   88d98:	461c      	mov	r4, r3
   88d9a:	f854 2f08 	ldr.w	r2, [r4, #8]!
   88d9e:	68db      	ldr	r3, [r3, #12]
   88da0:	f040 0501 	orr.w	r5, r0, #1
   88da4:	604d      	str	r5, [r1, #4]
   88da6:	4630      	mov	r0, r6
   88da8:	60d3      	str	r3, [r2, #12]
   88daa:	609a      	str	r2, [r3, #8]
   88dac:	f000 f948 	bl	89040 <__malloc_unlock>
   88db0:	e624      	b.n	889fc <_malloc_r+0x58>
   88db2:	f10c 0c5b 	add.w	ip, ip, #91	; 0x5b
   88db6:	ea4f 014c 	mov.w	r1, ip, lsl #1
   88dba:	e63b      	b.n	88a34 <_malloc_r+0x90>
   88dbc:	098a      	lsrs	r2, r1, #6
   88dbe:	3238      	adds	r2, #56	; 0x38
   88dc0:	0050      	lsls	r0, r2, #1
   88dc2:	e7a8      	b.n	88d16 <_malloc_r+0x372>
   88dc4:	42bc      	cmp	r4, r7
   88dc6:	f43f af02 	beq.w	88bce <_malloc_r+0x22a>
   88dca:	68bc      	ldr	r4, [r7, #8]
   88dcc:	6862      	ldr	r2, [r4, #4]
   88dce:	f022 0203 	bic.w	r2, r2, #3
   88dd2:	e761      	b.n	88c98 <_malloc_r+0x2f4>
   88dd4:	f8d8 8000 	ldr.w	r8, [r8]
   88dd8:	4598      	cmp	r8, r3
   88dda:	d17a      	bne.n	88ed2 <_malloc_r+0x52e>
   88ddc:	f01c 0f03 	tst.w	ip, #3
   88de0:	f1a8 0308 	sub.w	r3, r8, #8
   88de4:	f10c 3cff 	add.w	ip, ip, #4294967295
   88de8:	d1f4      	bne.n	88dd4 <_malloc_r+0x430>
   88dea:	687b      	ldr	r3, [r7, #4]
   88dec:	ea23 0300 	bic.w	r3, r3, r0
   88df0:	607b      	str	r3, [r7, #4]
   88df2:	0040      	lsls	r0, r0, #1
   88df4:	4298      	cmp	r0, r3
   88df6:	f63f aebe 	bhi.w	88b76 <_malloc_r+0x1d2>
   88dfa:	2800      	cmp	r0, #0
   88dfc:	f43f aebb 	beq.w	88b76 <_malloc_r+0x1d2>
   88e00:	4203      	tst	r3, r0
   88e02:	46cc      	mov	ip, r9
   88e04:	f47f ae64 	bne.w	88ad0 <_malloc_r+0x12c>
   88e08:	0040      	lsls	r0, r0, #1
   88e0a:	4203      	tst	r3, r0
   88e0c:	f10c 0c04 	add.w	ip, ip, #4
   88e10:	d0fa      	beq.n	88e08 <_malloc_r+0x464>
   88e12:	e65d      	b.n	88ad0 <_malloc_r+0x12c>
   88e14:	f5bc 7faa 	cmp.w	ip, #340	; 0x154
   88e18:	d819      	bhi.n	88e4e <_malloc_r+0x4aa>
   88e1a:	ea4f 3cd5 	mov.w	ip, r5, lsr #15
   88e1e:	f10c 0c77 	add.w	ip, ip, #119	; 0x77
   88e22:	ea4f 014c 	mov.w	r1, ip, lsl #1
   88e26:	e605      	b.n	88a34 <_malloc_r+0x90>
   88e28:	f44f 5380 	mov.w	r3, #4096	; 0x1000
   88e2c:	e6ee      	b.n	88c0c <_malloc_r+0x268>
   88e2e:	2301      	movs	r3, #1
   88e30:	f8c8 3004 	str.w	r3, [r8, #4]
   88e34:	4644      	mov	r4, r8
   88e36:	2200      	movs	r2, #0
   88e38:	e72e      	b.n	88c98 <_malloc_r+0x2f4>
   88e3a:	1092      	asrs	r2, r2, #2
   88e3c:	2001      	movs	r0, #1
   88e3e:	4090      	lsls	r0, r2
   88e40:	f8d8 2004 	ldr.w	r2, [r8, #4]
   88e44:	4619      	mov	r1, r3
   88e46:	4302      	orrs	r2, r0
   88e48:	f8c8 2004 	str.w	r2, [r8, #4]
   88e4c:	e775      	b.n	88d3a <_malloc_r+0x396>
   88e4e:	f240 5354 	movw	r3, #1364	; 0x554
   88e52:	459c      	cmp	ip, r3
   88e54:	d81b      	bhi.n	88e8e <_malloc_r+0x4ea>
   88e56:	ea4f 4c95 	mov.w	ip, r5, lsr #18
   88e5a:	f10c 0c7c 	add.w	ip, ip, #124	; 0x7c
   88e5e:	ea4f 014c 	mov.w	r1, ip, lsl #1
   88e62:	e5e7      	b.n	88a34 <_malloc_r+0x90>
   88e64:	f10a 0a10 	add.w	sl, sl, #16
   88e68:	e6a3      	b.n	88bb2 <_malloc_r+0x20e>
   88e6a:	2b54      	cmp	r3, #84	; 0x54
   88e6c:	d81f      	bhi.n	88eae <_malloc_r+0x50a>
   88e6e:	0b0a      	lsrs	r2, r1, #12
   88e70:	326e      	adds	r2, #110	; 0x6e
   88e72:	0050      	lsls	r0, r2, #1
   88e74:	e74f      	b.n	88d16 <_malloc_r+0x372>
   88e76:	f3cb 010b 	ubfx	r1, fp, #0, #12
   88e7a:	2900      	cmp	r1, #0
   88e7c:	f47f aeb1 	bne.w	88be2 <_malloc_r+0x23e>
   88e80:	eb0a 0109 	add.w	r1, sl, r9
   88e84:	68ba      	ldr	r2, [r7, #8]
   88e86:	f041 0101 	orr.w	r1, r1, #1
   88e8a:	6051      	str	r1, [r2, #4]
   88e8c:	e6f6      	b.n	88c7c <_malloc_r+0x2d8>
   88e8e:	21fc      	movs	r1, #252	; 0xfc
   88e90:	f04f 0c7e 	mov.w	ip, #126	; 0x7e
   88e94:	e5ce      	b.n	88a34 <_malloc_r+0x90>
   88e96:	2201      	movs	r2, #1
   88e98:	f04f 0a00 	mov.w	sl, #0
   88e9c:	e6cb      	b.n	88c36 <_malloc_r+0x292>
   88e9e:	f104 0108 	add.w	r1, r4, #8
   88ea2:	4630      	mov	r0, r6
   88ea4:	f7ff fa7c 	bl	883a0 <_free_r>
   88ea8:	f8da 3000 	ldr.w	r3, [sl]
   88eac:	e6e6      	b.n	88c7c <_malloc_r+0x2d8>
   88eae:	f5b3 7faa 	cmp.w	r3, #340	; 0x154
   88eb2:	d803      	bhi.n	88ebc <_malloc_r+0x518>
   88eb4:	0bca      	lsrs	r2, r1, #15
   88eb6:	3277      	adds	r2, #119	; 0x77
   88eb8:	0050      	lsls	r0, r2, #1
   88eba:	e72c      	b.n	88d16 <_malloc_r+0x372>
   88ebc:	f240 5254 	movw	r2, #1364	; 0x554
   88ec0:	4293      	cmp	r3, r2
   88ec2:	d803      	bhi.n	88ecc <_malloc_r+0x528>
   88ec4:	0c8a      	lsrs	r2, r1, #18
   88ec6:	327c      	adds	r2, #124	; 0x7c
   88ec8:	0050      	lsls	r0, r2, #1
   88eca:	e724      	b.n	88d16 <_malloc_r+0x372>
   88ecc:	20fc      	movs	r0, #252	; 0xfc
   88ece:	227e      	movs	r2, #126	; 0x7e
   88ed0:	e721      	b.n	88d16 <_malloc_r+0x372>
   88ed2:	687b      	ldr	r3, [r7, #4]
   88ed4:	e78d      	b.n	88df2 <_malloc_r+0x44e>
   88ed6:	bf00      	nop
   88ed8:	20070638 	.word	0x20070638

00088edc <memchr>:
   88edc:	0783      	lsls	r3, r0, #30
   88ede:	b470      	push	{r4, r5, r6}
   88ee0:	b2c9      	uxtb	r1, r1
   88ee2:	d040      	beq.n	88f66 <memchr+0x8a>
   88ee4:	1e54      	subs	r4, r2, #1
   88ee6:	b32a      	cbz	r2, 88f34 <memchr+0x58>
   88ee8:	7803      	ldrb	r3, [r0, #0]
   88eea:	428b      	cmp	r3, r1
   88eec:	d023      	beq.n	88f36 <memchr+0x5a>
   88eee:	1c43      	adds	r3, r0, #1
   88ef0:	e004      	b.n	88efc <memchr+0x20>
   88ef2:	b1fc      	cbz	r4, 88f34 <memchr+0x58>
   88ef4:	7805      	ldrb	r5, [r0, #0]
   88ef6:	4614      	mov	r4, r2
   88ef8:	428d      	cmp	r5, r1
   88efa:	d01c      	beq.n	88f36 <memchr+0x5a>
   88efc:	f013 0f03 	tst.w	r3, #3
   88f00:	4618      	mov	r0, r3
   88f02:	f104 32ff 	add.w	r2, r4, #4294967295
   88f06:	f103 0301 	add.w	r3, r3, #1
   88f0a:	d1f2      	bne.n	88ef2 <memchr+0x16>
   88f0c:	2c03      	cmp	r4, #3
   88f0e:	d814      	bhi.n	88f3a <memchr+0x5e>
   88f10:	1e65      	subs	r5, r4, #1
   88f12:	b354      	cbz	r4, 88f6a <memchr+0x8e>
   88f14:	7803      	ldrb	r3, [r0, #0]
   88f16:	428b      	cmp	r3, r1
   88f18:	d00d      	beq.n	88f36 <memchr+0x5a>
   88f1a:	1c42      	adds	r2, r0, #1
   88f1c:	2300      	movs	r3, #0
   88f1e:	e002      	b.n	88f26 <memchr+0x4a>
   88f20:	7804      	ldrb	r4, [r0, #0]
   88f22:	428c      	cmp	r4, r1
   88f24:	d007      	beq.n	88f36 <memchr+0x5a>
   88f26:	42ab      	cmp	r3, r5
   88f28:	4610      	mov	r0, r2
   88f2a:	f103 0301 	add.w	r3, r3, #1
   88f2e:	f102 0201 	add.w	r2, r2, #1
   88f32:	d1f5      	bne.n	88f20 <memchr+0x44>
   88f34:	2000      	movs	r0, #0
   88f36:	bc70      	pop	{r4, r5, r6}
   88f38:	4770      	bx	lr
   88f3a:	ea41 2601 	orr.w	r6, r1, r1, lsl #8
   88f3e:	4603      	mov	r3, r0
   88f40:	ea46 4606 	orr.w	r6, r6, r6, lsl #16
   88f44:	681a      	ldr	r2, [r3, #0]
   88f46:	4618      	mov	r0, r3
   88f48:	4072      	eors	r2, r6
   88f4a:	f1a2 3501 	sub.w	r5, r2, #16843009	; 0x1010101
   88f4e:	ea25 0202 	bic.w	r2, r5, r2
   88f52:	f012 3f80 	tst.w	r2, #2155905152	; 0x80808080
   88f56:	f103 0304 	add.w	r3, r3, #4
   88f5a:	d1d9      	bne.n	88f10 <memchr+0x34>
   88f5c:	3c04      	subs	r4, #4
   88f5e:	2c03      	cmp	r4, #3
   88f60:	4618      	mov	r0, r3
   88f62:	d8ef      	bhi.n	88f44 <memchr+0x68>
   88f64:	e7d4      	b.n	88f10 <memchr+0x34>
   88f66:	4614      	mov	r4, r2
   88f68:	e7d0      	b.n	88f0c <memchr+0x30>
   88f6a:	4620      	mov	r0, r4
   88f6c:	e7e3      	b.n	88f36 <memchr+0x5a>
   88f6e:	bf00      	nop

00088f70 <memmove>:
   88f70:	4288      	cmp	r0, r1
   88f72:	b4f0      	push	{r4, r5, r6, r7}
   88f74:	d910      	bls.n	88f98 <memmove+0x28>
   88f76:	188c      	adds	r4, r1, r2
   88f78:	42a0      	cmp	r0, r4
   88f7a:	d20d      	bcs.n	88f98 <memmove+0x28>
   88f7c:	1885      	adds	r5, r0, r2
   88f7e:	1e53      	subs	r3, r2, #1
   88f80:	b142      	cbz	r2, 88f94 <memmove+0x24>
   88f82:	4621      	mov	r1, r4
   88f84:	462a      	mov	r2, r5
   88f86:	f811 4d01 	ldrb.w	r4, [r1, #-1]!
   88f8a:	3b01      	subs	r3, #1
   88f8c:	f802 4d01 	strb.w	r4, [r2, #-1]!
   88f90:	1c5c      	adds	r4, r3, #1
   88f92:	d1f8      	bne.n	88f86 <memmove+0x16>
   88f94:	bcf0      	pop	{r4, r5, r6, r7}
   88f96:	4770      	bx	lr
   88f98:	2a0f      	cmp	r2, #15
   88f9a:	d944      	bls.n	89026 <memmove+0xb6>
   88f9c:	ea40 0301 	orr.w	r3, r0, r1
   88fa0:	079b      	lsls	r3, r3, #30
   88fa2:	d144      	bne.n	8902e <memmove+0xbe>
   88fa4:	f1a2 0710 	sub.w	r7, r2, #16
   88fa8:	093f      	lsrs	r7, r7, #4
   88faa:	eb00 1607 	add.w	r6, r0, r7, lsl #4
   88fae:	3610      	adds	r6, #16
   88fb0:	460c      	mov	r4, r1
   88fb2:	4603      	mov	r3, r0
   88fb4:	6825      	ldr	r5, [r4, #0]
   88fb6:	3310      	adds	r3, #16
   88fb8:	f843 5c10 	str.w	r5, [r3, #-16]
   88fbc:	6865      	ldr	r5, [r4, #4]
   88fbe:	3410      	adds	r4, #16
   88fc0:	f843 5c0c 	str.w	r5, [r3, #-12]
   88fc4:	f854 5c08 	ldr.w	r5, [r4, #-8]
   88fc8:	f843 5c08 	str.w	r5, [r3, #-8]
   88fcc:	f854 5c04 	ldr.w	r5, [r4, #-4]
   88fd0:	f843 5c04 	str.w	r5, [r3, #-4]
   88fd4:	42b3      	cmp	r3, r6
   88fd6:	d1ed      	bne.n	88fb4 <memmove+0x44>
   88fd8:	1c7b      	adds	r3, r7, #1
   88fda:	f002 0c0f 	and.w	ip, r2, #15
   88fde:	011b      	lsls	r3, r3, #4
   88fe0:	f1bc 0f03 	cmp.w	ip, #3
   88fe4:	4419      	add	r1, r3
   88fe6:	4403      	add	r3, r0
   88fe8:	d923      	bls.n	89032 <memmove+0xc2>
   88fea:	460e      	mov	r6, r1
   88fec:	461d      	mov	r5, r3
   88fee:	4664      	mov	r4, ip
   88ff0:	f856 7b04 	ldr.w	r7, [r6], #4
   88ff4:	3c04      	subs	r4, #4
   88ff6:	2c03      	cmp	r4, #3
   88ff8:	f845 7b04 	str.w	r7, [r5], #4
   88ffc:	d8f8      	bhi.n	88ff0 <memmove+0x80>
   88ffe:	f1ac 0404 	sub.w	r4, ip, #4
   89002:	f024 0403 	bic.w	r4, r4, #3
   89006:	3404      	adds	r4, #4
   89008:	f002 0203 	and.w	r2, r2, #3
   8900c:	4423      	add	r3, r4
   8900e:	4421      	add	r1, r4
   89010:	2a00      	cmp	r2, #0
   89012:	d0bf      	beq.n	88f94 <memmove+0x24>
   89014:	441a      	add	r2, r3
   89016:	f811 4b01 	ldrb.w	r4, [r1], #1
   8901a:	f803 4b01 	strb.w	r4, [r3], #1
   8901e:	4293      	cmp	r3, r2
   89020:	d1f9      	bne.n	89016 <memmove+0xa6>
   89022:	bcf0      	pop	{r4, r5, r6, r7}
   89024:	4770      	bx	lr
   89026:	4603      	mov	r3, r0
   89028:	2a00      	cmp	r2, #0
   8902a:	d1f3      	bne.n	89014 <memmove+0xa4>
   8902c:	e7b2      	b.n	88f94 <memmove+0x24>
   8902e:	4603      	mov	r3, r0
   89030:	e7f0      	b.n	89014 <memmove+0xa4>
   89032:	4662      	mov	r2, ip
   89034:	2a00      	cmp	r2, #0
   89036:	d1ed      	bne.n	89014 <memmove+0xa4>
   89038:	e7ac      	b.n	88f94 <memmove+0x24>
   8903a:	bf00      	nop

0008903c <__malloc_lock>:
   8903c:	4770      	bx	lr
   8903e:	bf00      	nop

00089040 <__malloc_unlock>:
   89040:	4770      	bx	lr
   89042:	bf00      	nop

00089044 <_Balloc>:
   89044:	6cc2      	ldr	r2, [r0, #76]	; 0x4c
   89046:	b570      	push	{r4, r5, r6, lr}
   89048:	4605      	mov	r5, r0
   8904a:	460c      	mov	r4, r1
   8904c:	b14a      	cbz	r2, 89062 <_Balloc+0x1e>
   8904e:	f852 0024 	ldr.w	r0, [r2, r4, lsl #2]
   89052:	b180      	cbz	r0, 89076 <_Balloc+0x32>
   89054:	6801      	ldr	r1, [r0, #0]
   89056:	f842 1024 	str.w	r1, [r2, r4, lsl #2]
   8905a:	2200      	movs	r2, #0
   8905c:	6102      	str	r2, [r0, #16]
   8905e:	60c2      	str	r2, [r0, #12]
   89060:	bd70      	pop	{r4, r5, r6, pc}
   89062:	2221      	movs	r2, #33	; 0x21
   89064:	2104      	movs	r1, #4
   89066:	f000 fe9d 	bl	89da4 <_calloc_r>
   8906a:	64e8      	str	r0, [r5, #76]	; 0x4c
   8906c:	4602      	mov	r2, r0
   8906e:	2800      	cmp	r0, #0
   89070:	d1ed      	bne.n	8904e <_Balloc+0xa>
   89072:	2000      	movs	r0, #0
   89074:	bd70      	pop	{r4, r5, r6, pc}
   89076:	2101      	movs	r1, #1
   89078:	fa01 f604 	lsl.w	r6, r1, r4
   8907c:	1d72      	adds	r2, r6, #5
   8907e:	4628      	mov	r0, r5
   89080:	0092      	lsls	r2, r2, #2
   89082:	f000 fe8f 	bl	89da4 <_calloc_r>
   89086:	2800      	cmp	r0, #0
   89088:	d0f3      	beq.n	89072 <_Balloc+0x2e>
   8908a:	6044      	str	r4, [r0, #4]
   8908c:	6086      	str	r6, [r0, #8]
   8908e:	e7e4      	b.n	8905a <_Balloc+0x16>

00089090 <_Bfree>:
   89090:	b131      	cbz	r1, 890a0 <_Bfree+0x10>
   89092:	6cc3      	ldr	r3, [r0, #76]	; 0x4c
   89094:	684a      	ldr	r2, [r1, #4]
   89096:	f853 0022 	ldr.w	r0, [r3, r2, lsl #2]
   8909a:	6008      	str	r0, [r1, #0]
   8909c:	f843 1022 	str.w	r1, [r3, r2, lsl #2]
   890a0:	4770      	bx	lr
   890a2:	bf00      	nop

000890a4 <__multadd>:
   890a4:	e92d 43f0 	stmdb	sp!, {r4, r5, r6, r7, r8, r9, lr}
   890a8:	690f      	ldr	r7, [r1, #16]
   890aa:	b083      	sub	sp, #12
   890ac:	4688      	mov	r8, r1
   890ae:	4681      	mov	r9, r0
   890b0:	f101 0514 	add.w	r5, r1, #20
   890b4:	2400      	movs	r4, #0
   890b6:	682e      	ldr	r6, [r5, #0]
   890b8:	3401      	adds	r4, #1
   890ba:	b2b1      	uxth	r1, r6
   890bc:	0c36      	lsrs	r6, r6, #16
   890be:	fb02 3301 	mla	r3, r2, r1, r3
   890c2:	fb02 f606 	mul.w	r6, r2, r6
   890c6:	b299      	uxth	r1, r3
   890c8:	eb06 4313 	add.w	r3, r6, r3, lsr #16
   890cc:	eb01 4103 	add.w	r1, r1, r3, lsl #16
   890d0:	42a7      	cmp	r7, r4
   890d2:	f845 1b04 	str.w	r1, [r5], #4
   890d6:	ea4f 4313 	mov.w	r3, r3, lsr #16
   890da:	dcec      	bgt.n	890b6 <__multadd+0x12>
   890dc:	b14b      	cbz	r3, 890f2 <__multadd+0x4e>
   890de:	f8d8 2008 	ldr.w	r2, [r8, #8]
   890e2:	4297      	cmp	r7, r2
   890e4:	da09      	bge.n	890fa <__multadd+0x56>
   890e6:	eb08 0287 	add.w	r2, r8, r7, lsl #2
   890ea:	3701      	adds	r7, #1
   890ec:	6153      	str	r3, [r2, #20]
   890ee:	f8c8 7010 	str.w	r7, [r8, #16]
   890f2:	4640      	mov	r0, r8
   890f4:	b003      	add	sp, #12
   890f6:	e8bd 83f0 	ldmia.w	sp!, {r4, r5, r6, r7, r8, r9, pc}
   890fa:	f8d8 1004 	ldr.w	r1, [r8, #4]
   890fe:	4648      	mov	r0, r9
   89100:	3101      	adds	r1, #1
   89102:	9301      	str	r3, [sp, #4]
   89104:	f7ff ff9e 	bl	89044 <_Balloc>
   89108:	f8d8 2010 	ldr.w	r2, [r8, #16]
   8910c:	f108 010c 	add.w	r1, r8, #12
   89110:	3202      	adds	r2, #2
   89112:	4604      	mov	r4, r0
   89114:	0092      	lsls	r2, r2, #2
   89116:	300c      	adds	r0, #12
   89118:	f7fb fc32 	bl	84980 <memcpy>
   8911c:	f8d9 204c 	ldr.w	r2, [r9, #76]	; 0x4c
   89120:	f8d8 1004 	ldr.w	r1, [r8, #4]
   89124:	9b01      	ldr	r3, [sp, #4]
   89126:	f852 0021 	ldr.w	r0, [r2, r1, lsl #2]
   8912a:	f8c8 0000 	str.w	r0, [r8]
   8912e:	f842 8021 	str.w	r8, [r2, r1, lsl #2]
   89132:	46a0      	mov	r8, r4
   89134:	e7d7      	b.n	890e6 <__multadd+0x42>
   89136:	bf00      	nop

00089138 <__hi0bits>:
   89138:	0c03      	lsrs	r3, r0, #16
   8913a:	041b      	lsls	r3, r3, #16
   8913c:	b9b3      	cbnz	r3, 8916c <__hi0bits+0x34>
   8913e:	0400      	lsls	r0, r0, #16
   89140:	2310      	movs	r3, #16
   89142:	f010 4f7f 	tst.w	r0, #4278190080	; 0xff000000
   89146:	bf04      	itt	eq
   89148:	0200      	lsleq	r0, r0, #8
   8914a:	3308      	addeq	r3, #8
   8914c:	f010 4f70 	tst.w	r0, #4026531840	; 0xf0000000
   89150:	bf04      	itt	eq
   89152:	0100      	lsleq	r0, r0, #4
   89154:	3304      	addeq	r3, #4
   89156:	f010 4f40 	tst.w	r0, #3221225472	; 0xc0000000
   8915a:	bf04      	itt	eq
   8915c:	0080      	lsleq	r0, r0, #2
   8915e:	3302      	addeq	r3, #2
   89160:	2800      	cmp	r0, #0
   89162:	db07      	blt.n	89174 <__hi0bits+0x3c>
   89164:	0042      	lsls	r2, r0, #1
   89166:	d403      	bmi.n	89170 <__hi0bits+0x38>
   89168:	2020      	movs	r0, #32
   8916a:	4770      	bx	lr
   8916c:	2300      	movs	r3, #0
   8916e:	e7e8      	b.n	89142 <__hi0bits+0xa>
   89170:	1c58      	adds	r0, r3, #1
   89172:	4770      	bx	lr
   89174:	4618      	mov	r0, r3
   89176:	4770      	bx	lr

00089178 <__lo0bits>:
   89178:	6803      	ldr	r3, [r0, #0]
   8917a:	f013 0207 	ands.w	r2, r3, #7
   8917e:	d007      	beq.n	89190 <__lo0bits+0x18>
   89180:	07d9      	lsls	r1, r3, #31
   89182:	d420      	bmi.n	891c6 <__lo0bits+0x4e>
   89184:	079a      	lsls	r2, r3, #30
   89186:	d420      	bmi.n	891ca <__lo0bits+0x52>
   89188:	089b      	lsrs	r3, r3, #2
   8918a:	6003      	str	r3, [r0, #0]
   8918c:	2002      	movs	r0, #2
   8918e:	4770      	bx	lr
   89190:	b299      	uxth	r1, r3
   89192:	b909      	cbnz	r1, 89198 <__lo0bits+0x20>
   89194:	0c1b      	lsrs	r3, r3, #16
   89196:	2210      	movs	r2, #16
   89198:	f013 0fff 	tst.w	r3, #255	; 0xff
   8919c:	bf04      	itt	eq
   8919e:	0a1b      	lsreq	r3, r3, #8
   891a0:	3208      	addeq	r2, #8
   891a2:	0719      	lsls	r1, r3, #28
   891a4:	bf04      	itt	eq
   891a6:	091b      	lsreq	r3, r3, #4
   891a8:	3204      	addeq	r2, #4
   891aa:	0799      	lsls	r1, r3, #30
   891ac:	bf04      	itt	eq
   891ae:	089b      	lsreq	r3, r3, #2
   891b0:	3202      	addeq	r2, #2
   891b2:	07d9      	lsls	r1, r3, #31
   891b4:	d404      	bmi.n	891c0 <__lo0bits+0x48>
   891b6:	085b      	lsrs	r3, r3, #1
   891b8:	d101      	bne.n	891be <__lo0bits+0x46>
   891ba:	2020      	movs	r0, #32
   891bc:	4770      	bx	lr
   891be:	3201      	adds	r2, #1
   891c0:	6003      	str	r3, [r0, #0]
   891c2:	4610      	mov	r0, r2
   891c4:	4770      	bx	lr
   891c6:	2000      	movs	r0, #0
   891c8:	4770      	bx	lr
   891ca:	085b      	lsrs	r3, r3, #1
   891cc:	6003      	str	r3, [r0, #0]
   891ce:	2001      	movs	r0, #1
   891d0:	4770      	bx	lr
   891d2:	bf00      	nop

000891d4 <__i2b>:
   891d4:	b510      	push	{r4, lr}
   891d6:	460c      	mov	r4, r1
   891d8:	2101      	movs	r1, #1
   891da:	f7ff ff33 	bl	89044 <_Balloc>
   891de:	2201      	movs	r2, #1
   891e0:	6144      	str	r4, [r0, #20]
   891e2:	6102      	str	r2, [r0, #16]
   891e4:	bd10      	pop	{r4, pc}
   891e6:	bf00      	nop

000891e8 <__multiply>:
   891e8:	e92d 4ff0 	stmdb	sp!, {r4, r5, r6, r7, r8, r9, sl, fp, lr}
   891ec:	690d      	ldr	r5, [r1, #16]
   891ee:	f8d2 9010 	ldr.w	r9, [r2, #16]
   891f2:	b085      	sub	sp, #20
   891f4:	454d      	cmp	r5, r9
   891f6:	460c      	mov	r4, r1
   891f8:	4692      	mov	sl, r2
   891fa:	da04      	bge.n	89206 <__multiply+0x1e>
   891fc:	462a      	mov	r2, r5
   891fe:	4654      	mov	r4, sl
   89200:	464d      	mov	r5, r9
   89202:	468a      	mov	sl, r1
   89204:	4691      	mov	r9, r2
   89206:	68a3      	ldr	r3, [r4, #8]
   89208:	eb05 0709 	add.w	r7, r5, r9
   8920c:	6861      	ldr	r1, [r4, #4]
   8920e:	429f      	cmp	r7, r3
   89210:	bfc8      	it	gt
   89212:	3101      	addgt	r1, #1
   89214:	f7ff ff16 	bl	89044 <_Balloc>
   89218:	f100 0614 	add.w	r6, r0, #20
   8921c:	eb06 0887 	add.w	r8, r6, r7, lsl #2
   89220:	4546      	cmp	r6, r8
   89222:	9001      	str	r0, [sp, #4]
   89224:	d205      	bcs.n	89232 <__multiply+0x4a>
   89226:	4633      	mov	r3, r6
   89228:	2000      	movs	r0, #0
   8922a:	f843 0b04 	str.w	r0, [r3], #4
   8922e:	4598      	cmp	r8, r3
   89230:	d8fb      	bhi.n	8922a <__multiply+0x42>
   89232:	f10a 0c14 	add.w	ip, sl, #20
   89236:	eb0c 0989 	add.w	r9, ip, r9, lsl #2
   8923a:	3414      	adds	r4, #20
   8923c:	45cc      	cmp	ip, r9
   8923e:	9400      	str	r4, [sp, #0]
   89240:	eb04 0585 	add.w	r5, r4, r5, lsl #2
   89244:	d25b      	bcs.n	892fe <__multiply+0x116>
   89246:	f8cd 8008 	str.w	r8, [sp, #8]
   8924a:	9703      	str	r7, [sp, #12]
   8924c:	46c8      	mov	r8, r9
   8924e:	f85c 3b04 	ldr.w	r3, [ip], #4
   89252:	b29c      	uxth	r4, r3
   89254:	b324      	cbz	r4, 892a0 <__multiply+0xb8>
   89256:	9a00      	ldr	r2, [sp, #0]
   89258:	4633      	mov	r3, r6
   8925a:	f04f 0900 	mov.w	r9, #0
   8925e:	e000      	b.n	89262 <__multiply+0x7a>
   89260:	460b      	mov	r3, r1
   89262:	f852 7b04 	ldr.w	r7, [r2], #4
   89266:	6819      	ldr	r1, [r3, #0]
   89268:	fa1f fb87 	uxth.w	fp, r7
   8926c:	fa1f fa81 	uxth.w	sl, r1
   89270:	0c38      	lsrs	r0, r7, #16
   89272:	0c09      	lsrs	r1, r1, #16
   89274:	fb04 aa0b 	mla	sl, r4, fp, sl
   89278:	fb04 1000 	mla	r0, r4, r0, r1
   8927c:	44d1      	add	r9, sl
   8927e:	eb00 4019 	add.w	r0, r0, r9, lsr #16
   89282:	fa1f f989 	uxth.w	r9, r9
   89286:	ea49 4700 	orr.w	r7, r9, r0, lsl #16
   8928a:	4619      	mov	r1, r3
   8928c:	4295      	cmp	r5, r2
   8928e:	ea4f 4910 	mov.w	r9, r0, lsr #16
   89292:	f841 7b04 	str.w	r7, [r1], #4
   89296:	d8e3      	bhi.n	89260 <__multiply+0x78>
   89298:	f8c3 9004 	str.w	r9, [r3, #4]
   8929c:	f85c 3c04 	ldr.w	r3, [ip, #-4]
   892a0:	ea5f 4913 	movs.w	r9, r3, lsr #16
   892a4:	d024      	beq.n	892f0 <__multiply+0x108>
   892a6:	f8d6 a000 	ldr.w	sl, [r6]
   892aa:	9b00      	ldr	r3, [sp, #0]
   892ac:	4650      	mov	r0, sl
   892ae:	4631      	mov	r1, r6
   892b0:	f04f 0b00 	mov.w	fp, #0
   892b4:	e000      	b.n	892b8 <__multiply+0xd0>
   892b6:	4611      	mov	r1, r2
   892b8:	881a      	ldrh	r2, [r3, #0]
   892ba:	0c00      	lsrs	r0, r0, #16
   892bc:	fb09 0002 	mla	r0, r9, r2, r0
   892c0:	fa1f fa8a 	uxth.w	sl, sl
   892c4:	4483      	add	fp, r0
   892c6:	ea4a 400b 	orr.w	r0, sl, fp, lsl #16
   892ca:	460a      	mov	r2, r1
   892cc:	f842 0b04 	str.w	r0, [r2], #4
   892d0:	f853 7b04 	ldr.w	r7, [r3], #4
   892d4:	6848      	ldr	r0, [r1, #4]
   892d6:	ea4f 4a17 	mov.w	sl, r7, lsr #16
   892da:	b284      	uxth	r4, r0
   892dc:	fb09 4a0a 	mla	sl, r9, sl, r4
   892e0:	429d      	cmp	r5, r3
   892e2:	eb0a 4a1b 	add.w	sl, sl, fp, lsr #16
   892e6:	ea4f 4b1a 	mov.w	fp, sl, lsr #16
   892ea:	d8e4      	bhi.n	892b6 <__multiply+0xce>
   892ec:	f8c1 a004 	str.w	sl, [r1, #4]
   892f0:	45e0      	cmp	r8, ip
   892f2:	f106 0604 	add.w	r6, r6, #4
   892f6:	d8aa      	bhi.n	8924e <__multiply+0x66>
   892f8:	f8dd 8008 	ldr.w	r8, [sp, #8]
   892fc:	9f03      	ldr	r7, [sp, #12]
   892fe:	2f00      	cmp	r7, #0
   89300:	dd0a      	ble.n	89318 <__multiply+0x130>
   89302:	f858 3c04 	ldr.w	r3, [r8, #-4]
   89306:	f1a8 0804 	sub.w	r8, r8, #4
   8930a:	b11b      	cbz	r3, 89314 <__multiply+0x12c>
   8930c:	e004      	b.n	89318 <__multiply+0x130>
   8930e:	f858 3d04 	ldr.w	r3, [r8, #-4]!
   89312:	b90b      	cbnz	r3, 89318 <__multiply+0x130>
   89314:	3f01      	subs	r7, #1
   89316:	d1fa      	bne.n	8930e <__multiply+0x126>
   89318:	9b01      	ldr	r3, [sp, #4]
   8931a:	4618      	mov	r0, r3
   8931c:	611f      	str	r7, [r3, #16]
   8931e:	b005      	add	sp, #20
   89320:	e8bd 8ff0 	ldmia.w	sp!, {r4, r5, r6, r7, r8, r9, sl, fp, pc}

00089324 <__pow5mult>:
   89324:	f012 0303 	ands.w	r3, r2, #3
   89328:	e92d 41f0 	stmdb	sp!, {r4, r5, r6, r7, r8, lr}
   8932c:	4614      	mov	r4, r2
   8932e:	4607      	mov	r7, r0
   89330:	460e      	mov	r6, r1
   89332:	d12c      	bne.n	8938e <__pow5mult+0x6a>
   89334:	10a4      	asrs	r4, r4, #2
   89336:	d01c      	beq.n	89372 <__pow5mult+0x4e>
   89338:	6cbd      	ldr	r5, [r7, #72]	; 0x48
   8933a:	2d00      	cmp	r5, #0
   8933c:	d030      	beq.n	893a0 <__pow5mult+0x7c>
   8933e:	f04f 0800 	mov.w	r8, #0
   89342:	e004      	b.n	8934e <__pow5mult+0x2a>
   89344:	1064      	asrs	r4, r4, #1
   89346:	d014      	beq.n	89372 <__pow5mult+0x4e>
   89348:	6828      	ldr	r0, [r5, #0]
   8934a:	b1a8      	cbz	r0, 89378 <__pow5mult+0x54>
   8934c:	4605      	mov	r5, r0
   8934e:	07e3      	lsls	r3, r4, #31
   89350:	d5f8      	bpl.n	89344 <__pow5mult+0x20>
   89352:	4638      	mov	r0, r7
   89354:	4631      	mov	r1, r6
   89356:	462a      	mov	r2, r5
   89358:	f7ff ff46 	bl	891e8 <__multiply>
   8935c:	b1ae      	cbz	r6, 8938a <__pow5mult+0x66>
   8935e:	6872      	ldr	r2, [r6, #4]
   89360:	6cfb      	ldr	r3, [r7, #76]	; 0x4c
   89362:	1064      	asrs	r4, r4, #1
   89364:	f853 1022 	ldr.w	r1, [r3, r2, lsl #2]
   89368:	6031      	str	r1, [r6, #0]
   8936a:	f843 6022 	str.w	r6, [r3, r2, lsl #2]
   8936e:	4606      	mov	r6, r0
   89370:	d1ea      	bne.n	89348 <__pow5mult+0x24>
   89372:	4630      	mov	r0, r6
   89374:	e8bd 81f0 	ldmia.w	sp!, {r4, r5, r6, r7, r8, pc}
   89378:	4638      	mov	r0, r7
   8937a:	4629      	mov	r1, r5
   8937c:	462a      	mov	r2, r5
   8937e:	f7ff ff33 	bl	891e8 <__multiply>
   89382:	6028      	str	r0, [r5, #0]
   89384:	f8c0 8000 	str.w	r8, [r0]
   89388:	e7e0      	b.n	8934c <__pow5mult+0x28>
   8938a:	4606      	mov	r6, r0
   8938c:	e7da      	b.n	89344 <__pow5mult+0x20>
   8938e:	4a0b      	ldr	r2, [pc, #44]	; (893bc <__pow5mult+0x98>)
   89390:	3b01      	subs	r3, #1
   89392:	f852 2023 	ldr.w	r2, [r2, r3, lsl #2]
   89396:	2300      	movs	r3, #0
   89398:	f7ff fe84 	bl	890a4 <__multadd>
   8939c:	4606      	mov	r6, r0
   8939e:	e7c9      	b.n	89334 <__pow5mult+0x10>
   893a0:	2101      	movs	r1, #1
   893a2:	4638      	mov	r0, r7
   893a4:	f7ff fe4e 	bl	89044 <_Balloc>
   893a8:	f240 2171 	movw	r1, #625	; 0x271
   893ac:	2201      	movs	r2, #1
   893ae:	2300      	movs	r3, #0
   893b0:	6141      	str	r1, [r0, #20]
   893b2:	6102      	str	r2, [r0, #16]
   893b4:	4605      	mov	r5, r0
   893b6:	64b8      	str	r0, [r7, #72]	; 0x48
   893b8:	6003      	str	r3, [r0, #0]
   893ba:	e7c0      	b.n	8933e <__pow5mult+0x1a>
   893bc:	0008ab18 	.word	0x0008ab18

000893c0 <__lshift>:
   893c0:	e92d 4ff8 	stmdb	sp!, {r3, r4, r5, r6, r7, r8, r9, sl, fp, lr}
   893c4:	690b      	ldr	r3, [r1, #16]
   893c6:	ea4f 1a62 	mov.w	sl, r2, asr #5
   893ca:	eb0a 0903 	add.w	r9, sl, r3
   893ce:	688b      	ldr	r3, [r1, #8]
   893d0:	f109 0601 	add.w	r6, r9, #1
   893d4:	429e      	cmp	r6, r3
   893d6:	460f      	mov	r7, r1
   893d8:	4693      	mov	fp, r2
   893da:	4680      	mov	r8, r0
   893dc:	6849      	ldr	r1, [r1, #4]
   893de:	dd04      	ble.n	893ea <__lshift+0x2a>
   893e0:	005b      	lsls	r3, r3, #1
   893e2:	429e      	cmp	r6, r3
   893e4:	f101 0101 	add.w	r1, r1, #1
   893e8:	dcfa      	bgt.n	893e0 <__lshift+0x20>
   893ea:	4640      	mov	r0, r8
   893ec:	f7ff fe2a 	bl	89044 <_Balloc>
   893f0:	f1ba 0f00 	cmp.w	sl, #0
   893f4:	f100 0414 	add.w	r4, r0, #20
   893f8:	dd09      	ble.n	8940e <__lshift+0x4e>
   893fa:	2300      	movs	r3, #0
   893fc:	461a      	mov	r2, r3
   893fe:	4625      	mov	r5, r4
   89400:	3301      	adds	r3, #1
   89402:	4553      	cmp	r3, sl
   89404:	f845 2b04 	str.w	r2, [r5], #4
   89408:	d1fa      	bne.n	89400 <__lshift+0x40>
   8940a:	eb04 0483 	add.w	r4, r4, r3, lsl #2
   8940e:	693a      	ldr	r2, [r7, #16]
   89410:	f107 0314 	add.w	r3, r7, #20
   89414:	f01b 0b1f 	ands.w	fp, fp, #31
   89418:	eb03 0c82 	add.w	ip, r3, r2, lsl #2
   8941c:	d021      	beq.n	89462 <__lshift+0xa2>
   8941e:	f1cb 0a20 	rsb	sl, fp, #32
   89422:	2200      	movs	r2, #0
   89424:	e000      	b.n	89428 <__lshift+0x68>
   89426:	462c      	mov	r4, r5
   89428:	6819      	ldr	r1, [r3, #0]
   8942a:	4625      	mov	r5, r4
   8942c:	fa01 f10b 	lsl.w	r1, r1, fp
   89430:	430a      	orrs	r2, r1
   89432:	f845 2b04 	str.w	r2, [r5], #4
   89436:	f853 2b04 	ldr.w	r2, [r3], #4
   8943a:	4563      	cmp	r3, ip
   8943c:	fa22 f20a 	lsr.w	r2, r2, sl
   89440:	d3f1      	bcc.n	89426 <__lshift+0x66>
   89442:	6062      	str	r2, [r4, #4]
   89444:	b10a      	cbz	r2, 8944a <__lshift+0x8a>
   89446:	f109 0602 	add.w	r6, r9, #2
   8944a:	f8d8 304c 	ldr.w	r3, [r8, #76]	; 0x4c
   8944e:	687a      	ldr	r2, [r7, #4]
   89450:	3e01      	subs	r6, #1
   89452:	f853 1022 	ldr.w	r1, [r3, r2, lsl #2]
   89456:	6106      	str	r6, [r0, #16]
   89458:	6039      	str	r1, [r7, #0]
   8945a:	f843 7022 	str.w	r7, [r3, r2, lsl #2]
   8945e:	e8bd 8ff8 	ldmia.w	sp!, {r3, r4, r5, r6, r7, r8, r9, sl, fp, pc}
   89462:	f853 2b04 	ldr.w	r2, [r3], #4
   89466:	459c      	cmp	ip, r3
   89468:	f844 2b04 	str.w	r2, [r4], #4
   8946c:	d9ed      	bls.n	8944a <__lshift+0x8a>
   8946e:	f853 2b04 	ldr.w	r2, [r3], #4
   89472:	459c      	cmp	ip, r3
   89474:	f844 2b04 	str.w	r2, [r4], #4
   89478:	d8f3      	bhi.n	89462 <__lshift+0xa2>
   8947a:	e7e6      	b.n	8944a <__lshift+0x8a>

0008947c <__mcmp>:
   8947c:	6902      	ldr	r2, [r0, #16]
   8947e:	690b      	ldr	r3, [r1, #16]
   89480:	b410      	push	{r4}
   89482:	1ad2      	subs	r2, r2, r3
   89484:	d115      	bne.n	894b2 <__mcmp+0x36>
   89486:	009b      	lsls	r3, r3, #2
   89488:	3014      	adds	r0, #20
   8948a:	3114      	adds	r1, #20
   8948c:	4419      	add	r1, r3
   8948e:	4403      	add	r3, r0
   89490:	e001      	b.n	89496 <__mcmp+0x1a>
   89492:	4298      	cmp	r0, r3
   89494:	d211      	bcs.n	894ba <__mcmp+0x3e>
   89496:	f853 2d04 	ldr.w	r2, [r3, #-4]!
   8949a:	f851 4d04 	ldr.w	r4, [r1, #-4]!
   8949e:	42a2      	cmp	r2, r4
   894a0:	d0f7      	beq.n	89492 <__mcmp+0x16>
   894a2:	4294      	cmp	r4, r2
   894a4:	bf94      	ite	ls
   894a6:	2001      	movls	r0, #1
   894a8:	f04f 30ff 	movhi.w	r0, #4294967295
   894ac:	f85d 4b04 	ldr.w	r4, [sp], #4
   894b0:	4770      	bx	lr
   894b2:	4610      	mov	r0, r2
   894b4:	f85d 4b04 	ldr.w	r4, [sp], #4
   894b8:	4770      	bx	lr
   894ba:	2000      	movs	r0, #0
   894bc:	f85d 4b04 	ldr.w	r4, [sp], #4
   894c0:	4770      	bx	lr
   894c2:	bf00      	nop

000894c4 <__mdiff>:
   894c4:	e92d 47f0 	stmdb	sp!, {r4, r5, r6, r7, r8, r9, sl, lr}
   894c8:	460d      	mov	r5, r1
   894ca:	4604      	mov	r4, r0
   894cc:	4611      	mov	r1, r2
   894ce:	4628      	mov	r0, r5
   894d0:	4616      	mov	r6, r2
   894d2:	f7ff ffd3 	bl	8947c <__mcmp>
   894d6:	1e07      	subs	r7, r0, #0
   894d8:	d056      	beq.n	89588 <__mdiff+0xc4>
   894da:	db4f      	blt.n	8957c <__mdiff+0xb8>
   894dc:	f04f 0900 	mov.w	r9, #0
   894e0:	6869      	ldr	r1, [r5, #4]
   894e2:	4620      	mov	r0, r4
   894e4:	f7ff fdae 	bl	89044 <_Balloc>
   894e8:	692f      	ldr	r7, [r5, #16]
   894ea:	6932      	ldr	r2, [r6, #16]
   894ec:	3514      	adds	r5, #20
   894ee:	3614      	adds	r6, #20
   894f0:	f8c0 900c 	str.w	r9, [r0, #12]
   894f4:	f100 0314 	add.w	r3, r0, #20
   894f8:	eb05 0c87 	add.w	ip, r5, r7, lsl #2
   894fc:	eb06 0882 	add.w	r8, r6, r2, lsl #2
   89500:	2100      	movs	r1, #0
   89502:	f855 4b04 	ldr.w	r4, [r5], #4
   89506:	f856 2b04 	ldr.w	r2, [r6], #4
   8950a:	fa1f fa84 	uxth.w	sl, r4
   8950e:	448a      	add	sl, r1
   89510:	fa1f f982 	uxth.w	r9, r2
   89514:	0c11      	lsrs	r1, r2, #16
   89516:	ebc1 4114 	rsb	r1, r1, r4, lsr #16
   8951a:	ebc9 020a 	rsb	r2, r9, sl
   8951e:	eb01 4122 	add.w	r1, r1, r2, asr #16
   89522:	b292      	uxth	r2, r2
   89524:	ea42 4201 	orr.w	r2, r2, r1, lsl #16
   89528:	45b0      	cmp	r8, r6
   8952a:	f843 2b04 	str.w	r2, [r3], #4
   8952e:	ea4f 4121 	mov.w	r1, r1, asr #16
   89532:	462c      	mov	r4, r5
   89534:	d8e5      	bhi.n	89502 <__mdiff+0x3e>
   89536:	45ac      	cmp	ip, r5
   89538:	4698      	mov	r8, r3
   8953a:	d915      	bls.n	89568 <__mdiff+0xa4>
   8953c:	f854 6b04 	ldr.w	r6, [r4], #4
   89540:	b2b2      	uxth	r2, r6
   89542:	4411      	add	r1, r2
   89544:	0c36      	lsrs	r6, r6, #16
   89546:	eb06 4621 	add.w	r6, r6, r1, asr #16
   8954a:	b289      	uxth	r1, r1
   8954c:	ea41 4206 	orr.w	r2, r1, r6, lsl #16
   89550:	45a4      	cmp	ip, r4
   89552:	f843 2b04 	str.w	r2, [r3], #4
   89556:	ea4f 4126 	mov.w	r1, r6, asr #16
   8955a:	d8ef      	bhi.n	8953c <__mdiff+0x78>
   8955c:	43eb      	mvns	r3, r5
   8955e:	4463      	add	r3, ip
   89560:	f023 0303 	bic.w	r3, r3, #3
   89564:	3304      	adds	r3, #4
   89566:	4443      	add	r3, r8
   89568:	3b04      	subs	r3, #4
   8956a:	b922      	cbnz	r2, 89576 <__mdiff+0xb2>
   8956c:	f853 2d04 	ldr.w	r2, [r3, #-4]!
   89570:	3f01      	subs	r7, #1
   89572:	2a00      	cmp	r2, #0
   89574:	d0fa      	beq.n	8956c <__mdiff+0xa8>
   89576:	6107      	str	r7, [r0, #16]
   89578:	e8bd 87f0 	ldmia.w	sp!, {r4, r5, r6, r7, r8, r9, sl, pc}
   8957c:	462b      	mov	r3, r5
   8957e:	f04f 0901 	mov.w	r9, #1
   89582:	4635      	mov	r5, r6
   89584:	461e      	mov	r6, r3
   89586:	e7ab      	b.n	894e0 <__mdiff+0x1c>
   89588:	4620      	mov	r0, r4
   8958a:	4639      	mov	r1, r7
   8958c:	f7ff fd5a 	bl	89044 <_Balloc>
   89590:	2301      	movs	r3, #1
   89592:	6147      	str	r7, [r0, #20]
   89594:	6103      	str	r3, [r0, #16]
   89596:	e8bd 87f0 	ldmia.w	sp!, {r4, r5, r6, r7, r8, r9, sl, pc}
   8959a:	bf00      	nop

0008959c <__d2b>:
   8959c:	e92d 43f0 	stmdb	sp!, {r4, r5, r6, r7, r8, r9, lr}
   895a0:	2101      	movs	r1, #1
   895a2:	b083      	sub	sp, #12
   895a4:	461d      	mov	r5, r3
   895a6:	f3c3 560a 	ubfx	r6, r3, #20, #11
   895aa:	4614      	mov	r4, r2
   895ac:	9f0a      	ldr	r7, [sp, #40]	; 0x28
   895ae:	f7ff fd49 	bl	89044 <_Balloc>
   895b2:	f3c5 0313 	ubfx	r3, r5, #0, #20
   895b6:	4680      	mov	r8, r0
   895b8:	b10e      	cbz	r6, 895be <__d2b+0x22>
   895ba:	f443 1380 	orr.w	r3, r3, #1048576	; 0x100000
   895be:	9301      	str	r3, [sp, #4]
   895c0:	b324      	cbz	r4, 8960c <__d2b+0x70>
   895c2:	a802      	add	r0, sp, #8
   895c4:	f840 4d08 	str.w	r4, [r0, #-8]!
   895c8:	4668      	mov	r0, sp
   895ca:	f7ff fdd5 	bl	89178 <__lo0bits>
   895ce:	2800      	cmp	r0, #0
   895d0:	d135      	bne.n	8963e <__d2b+0xa2>
   895d2:	e89d 000c 	ldmia.w	sp, {r2, r3}
   895d6:	f8c8 2014 	str.w	r2, [r8, #20]
   895da:	2b00      	cmp	r3, #0
   895dc:	bf0c      	ite	eq
   895de:	2401      	moveq	r4, #1
   895e0:	2402      	movne	r4, #2
   895e2:	f8c8 3018 	str.w	r3, [r8, #24]
   895e6:	f8c8 4010 	str.w	r4, [r8, #16]
   895ea:	b9de      	cbnz	r6, 89624 <__d2b+0x88>
   895ec:	eb08 0384 	add.w	r3, r8, r4, lsl #2
   895f0:	f2a0 4032 	subw	r0, r0, #1074	; 0x432
   895f4:	6038      	str	r0, [r7, #0]
   895f6:	6918      	ldr	r0, [r3, #16]
   895f8:	f7ff fd9e 	bl	89138 <__hi0bits>
   895fc:	9b0b      	ldr	r3, [sp, #44]	; 0x2c
   895fe:	ebc0 1044 	rsb	r0, r0, r4, lsl #5
   89602:	6018      	str	r0, [r3, #0]
   89604:	4640      	mov	r0, r8
   89606:	b003      	add	sp, #12
   89608:	e8bd 83f0 	ldmia.w	sp!, {r4, r5, r6, r7, r8, r9, pc}
   8960c:	a801      	add	r0, sp, #4
   8960e:	f7ff fdb3 	bl	89178 <__lo0bits>
   89612:	9b01      	ldr	r3, [sp, #4]
   89614:	2401      	movs	r4, #1
   89616:	3020      	adds	r0, #32
   89618:	f8c8 3014 	str.w	r3, [r8, #20]
   8961c:	f8c8 4010 	str.w	r4, [r8, #16]
   89620:	2e00      	cmp	r6, #0
   89622:	d0e3      	beq.n	895ec <__d2b+0x50>
   89624:	f2a6 4933 	subw	r9, r6, #1075	; 0x433
   89628:	eb09 0300 	add.w	r3, r9, r0
   8962c:	603b      	str	r3, [r7, #0]
   8962e:	9b0b      	ldr	r3, [sp, #44]	; 0x2c
   89630:	f1c0 0035 	rsb	r0, r0, #53	; 0x35
   89634:	6018      	str	r0, [r3, #0]
   89636:	4640      	mov	r0, r8
   89638:	b003      	add	sp, #12
   8963a:	e8bd 83f0 	ldmia.w	sp!, {r4, r5, r6, r7, r8, r9, pc}
   8963e:	9b01      	ldr	r3, [sp, #4]
   89640:	f1c0 0120 	rsb	r1, r0, #32
   89644:	fa03 f101 	lsl.w	r1, r3, r1
   89648:	40c3      	lsrs	r3, r0
   8964a:	9a00      	ldr	r2, [sp, #0]
   8964c:	9301      	str	r3, [sp, #4]
   8964e:	430a      	orrs	r2, r1
   89650:	f8c8 2014 	str.w	r2, [r8, #20]
   89654:	e7c1      	b.n	895da <__d2b+0x3e>
   89656:	bf00      	nop

00089658 <_realloc_r>:
   89658:	e92d 4ff0 	stmdb	sp!, {r4, r5, r6, r7, r8, r9, sl, fp, lr}
   8965c:	460c      	mov	r4, r1
   8965e:	b083      	sub	sp, #12
   89660:	4690      	mov	r8, r2
   89662:	4681      	mov	r9, r0
   89664:	2900      	cmp	r1, #0
   89666:	f000 80ba 	beq.w	897de <_realloc_r+0x186>
   8966a:	f7ff fce7 	bl	8903c <__malloc_lock>
   8966e:	f108 060b 	add.w	r6, r8, #11
   89672:	f854 3c04 	ldr.w	r3, [r4, #-4]
   89676:	2e16      	cmp	r6, #22
   89678:	f023 0503 	bic.w	r5, r3, #3
   8967c:	f1a4 0708 	sub.w	r7, r4, #8
   89680:	d84b      	bhi.n	8971a <_realloc_r+0xc2>
   89682:	2110      	movs	r1, #16
   89684:	460e      	mov	r6, r1
   89686:	45b0      	cmp	r8, r6
   89688:	d84c      	bhi.n	89724 <_realloc_r+0xcc>
   8968a:	428d      	cmp	r5, r1
   8968c:	da51      	bge.n	89732 <_realloc_r+0xda>
   8968e:	f8df b384 	ldr.w	fp, [pc, #900]	; 89a14 <_realloc_r+0x3bc>
   89692:	1978      	adds	r0, r7, r5
   89694:	f8db e008 	ldr.w	lr, [fp, #8]
   89698:	4586      	cmp	lr, r0
   8969a:	f000 80a6 	beq.w	897ea <_realloc_r+0x192>
   8969e:	6842      	ldr	r2, [r0, #4]
   896a0:	f022 0c01 	bic.w	ip, r2, #1
   896a4:	4484      	add	ip, r0
   896a6:	f8dc c004 	ldr.w	ip, [ip, #4]
   896aa:	f01c 0f01 	tst.w	ip, #1
   896ae:	d054      	beq.n	8975a <_realloc_r+0x102>
   896b0:	2200      	movs	r2, #0
   896b2:	4610      	mov	r0, r2
   896b4:	07db      	lsls	r3, r3, #31
   896b6:	d46f      	bmi.n	89798 <_realloc_r+0x140>
   896b8:	f854 3c08 	ldr.w	r3, [r4, #-8]
   896bc:	ebc3 0a07 	rsb	sl, r3, r7
   896c0:	f8da 3004 	ldr.w	r3, [sl, #4]
   896c4:	f023 0303 	bic.w	r3, r3, #3
   896c8:	442b      	add	r3, r5
   896ca:	2800      	cmp	r0, #0
   896cc:	d062      	beq.n	89794 <_realloc_r+0x13c>
   896ce:	4570      	cmp	r0, lr
   896d0:	f000 80e9 	beq.w	898a6 <_realloc_r+0x24e>
   896d4:	eb02 0e03 	add.w	lr, r2, r3
   896d8:	458e      	cmp	lr, r1
   896da:	db5b      	blt.n	89794 <_realloc_r+0x13c>
   896dc:	68c3      	ldr	r3, [r0, #12]
   896de:	6882      	ldr	r2, [r0, #8]
   896e0:	46d0      	mov	r8, sl
   896e2:	60d3      	str	r3, [r2, #12]
   896e4:	609a      	str	r2, [r3, #8]
   896e6:	f858 1f08 	ldr.w	r1, [r8, #8]!
   896ea:	f8da 300c 	ldr.w	r3, [sl, #12]
   896ee:	1f2a      	subs	r2, r5, #4
   896f0:	2a24      	cmp	r2, #36	; 0x24
   896f2:	60cb      	str	r3, [r1, #12]
   896f4:	6099      	str	r1, [r3, #8]
   896f6:	f200 8123 	bhi.w	89940 <_realloc_r+0x2e8>
   896fa:	2a13      	cmp	r2, #19
   896fc:	f240 80b0 	bls.w	89860 <_realloc_r+0x208>
   89700:	6823      	ldr	r3, [r4, #0]
   89702:	2a1b      	cmp	r2, #27
   89704:	f8ca 3008 	str.w	r3, [sl, #8]
   89708:	6863      	ldr	r3, [r4, #4]
   8970a:	f8ca 300c 	str.w	r3, [sl, #12]
   8970e:	f200 812b 	bhi.w	89968 <_realloc_r+0x310>
   89712:	3408      	adds	r4, #8
   89714:	f10a 0310 	add.w	r3, sl, #16
   89718:	e0a3      	b.n	89862 <_realloc_r+0x20a>
   8971a:	f026 0607 	bic.w	r6, r6, #7
   8971e:	2e00      	cmp	r6, #0
   89720:	4631      	mov	r1, r6
   89722:	dab0      	bge.n	89686 <_realloc_r+0x2e>
   89724:	230c      	movs	r3, #12
   89726:	2000      	movs	r0, #0
   89728:	f8c9 3000 	str.w	r3, [r9]
   8972c:	b003      	add	sp, #12
   8972e:	e8bd 8ff0 	ldmia.w	sp!, {r4, r5, r6, r7, r8, r9, sl, fp, pc}
   89732:	46a0      	mov	r8, r4
   89734:	1baa      	subs	r2, r5, r6
   89736:	2a0f      	cmp	r2, #15
   89738:	f003 0301 	and.w	r3, r3, #1
   8973c:	d81a      	bhi.n	89774 <_realloc_r+0x11c>
   8973e:	432b      	orrs	r3, r5
   89740:	607b      	str	r3, [r7, #4]
   89742:	443d      	add	r5, r7
   89744:	686b      	ldr	r3, [r5, #4]
   89746:	f043 0301 	orr.w	r3, r3, #1
   8974a:	606b      	str	r3, [r5, #4]
   8974c:	4648      	mov	r0, r9
   8974e:	f7ff fc77 	bl	89040 <__malloc_unlock>
   89752:	4640      	mov	r0, r8
   89754:	b003      	add	sp, #12
   89756:	e8bd 8ff0 	ldmia.w	sp!, {r4, r5, r6, r7, r8, r9, sl, fp, pc}
   8975a:	f022 0203 	bic.w	r2, r2, #3
   8975e:	eb02 0c05 	add.w	ip, r2, r5
   89762:	458c      	cmp	ip, r1
   89764:	dba6      	blt.n	896b4 <_realloc_r+0x5c>
   89766:	68c2      	ldr	r2, [r0, #12]
   89768:	6881      	ldr	r1, [r0, #8]
   8976a:	46a0      	mov	r8, r4
   8976c:	60ca      	str	r2, [r1, #12]
   8976e:	4665      	mov	r5, ip
   89770:	6091      	str	r1, [r2, #8]
   89772:	e7df      	b.n	89734 <_realloc_r+0xdc>
   89774:	19b9      	adds	r1, r7, r6
   89776:	4333      	orrs	r3, r6
   89778:	f042 0001 	orr.w	r0, r2, #1
   8977c:	607b      	str	r3, [r7, #4]
   8977e:	440a      	add	r2, r1
   89780:	6048      	str	r0, [r1, #4]
   89782:	6853      	ldr	r3, [r2, #4]
   89784:	3108      	adds	r1, #8
   89786:	f043 0301 	orr.w	r3, r3, #1
   8978a:	6053      	str	r3, [r2, #4]
   8978c:	4648      	mov	r0, r9
   8978e:	f7fe fe07 	bl	883a0 <_free_r>
   89792:	e7db      	b.n	8974c <_realloc_r+0xf4>
   89794:	428b      	cmp	r3, r1
   89796:	da33      	bge.n	89800 <_realloc_r+0x1a8>
   89798:	4641      	mov	r1, r8
   8979a:	4648      	mov	r0, r9
   8979c:	f7ff f902 	bl	889a4 <_malloc_r>
   897a0:	4680      	mov	r8, r0
   897a2:	2800      	cmp	r0, #0
   897a4:	d0d2      	beq.n	8974c <_realloc_r+0xf4>
   897a6:	f854 3c04 	ldr.w	r3, [r4, #-4]
   897aa:	f1a0 0108 	sub.w	r1, r0, #8
   897ae:	f023 0201 	bic.w	r2, r3, #1
   897b2:	443a      	add	r2, r7
   897b4:	4291      	cmp	r1, r2
   897b6:	f000 80bc 	beq.w	89932 <_realloc_r+0x2da>
   897ba:	1f2a      	subs	r2, r5, #4
   897bc:	2a24      	cmp	r2, #36	; 0x24
   897be:	d86e      	bhi.n	8989e <_realloc_r+0x246>
   897c0:	2a13      	cmp	r2, #19
   897c2:	d842      	bhi.n	8984a <_realloc_r+0x1f2>
   897c4:	4603      	mov	r3, r0
   897c6:	4622      	mov	r2, r4
   897c8:	6811      	ldr	r1, [r2, #0]
   897ca:	6019      	str	r1, [r3, #0]
   897cc:	6851      	ldr	r1, [r2, #4]
   897ce:	6059      	str	r1, [r3, #4]
   897d0:	6892      	ldr	r2, [r2, #8]
   897d2:	609a      	str	r2, [r3, #8]
   897d4:	4621      	mov	r1, r4
   897d6:	4648      	mov	r0, r9
   897d8:	f7fe fde2 	bl	883a0 <_free_r>
   897dc:	e7b6      	b.n	8974c <_realloc_r+0xf4>
   897de:	4611      	mov	r1, r2
   897e0:	b003      	add	sp, #12
   897e2:	e8bd 4ff0 	ldmia.w	sp!, {r4, r5, r6, r7, r8, r9, sl, fp, lr}
   897e6:	f7ff b8dd 	b.w	889a4 <_malloc_r>
   897ea:	f8de 2004 	ldr.w	r2, [lr, #4]
   897ee:	f106 0c10 	add.w	ip, r6, #16
   897f2:	f022 0203 	bic.w	r2, r2, #3
   897f6:	1950      	adds	r0, r2, r5
   897f8:	4560      	cmp	r0, ip
   897fa:	da3d      	bge.n	89878 <_realloc_r+0x220>
   897fc:	4670      	mov	r0, lr
   897fe:	e759      	b.n	896b4 <_realloc_r+0x5c>
   89800:	46d0      	mov	r8, sl
   89802:	f858 0f08 	ldr.w	r0, [r8, #8]!
   89806:	f8da 100c 	ldr.w	r1, [sl, #12]
   8980a:	1f2a      	subs	r2, r5, #4
   8980c:	2a24      	cmp	r2, #36	; 0x24
   8980e:	60c1      	str	r1, [r0, #12]
   89810:	6088      	str	r0, [r1, #8]
   89812:	f200 80a0 	bhi.w	89956 <_realloc_r+0x2fe>
   89816:	2a13      	cmp	r2, #19
   89818:	f240 809b 	bls.w	89952 <_realloc_r+0x2fa>
   8981c:	6821      	ldr	r1, [r4, #0]
   8981e:	2a1b      	cmp	r2, #27
   89820:	f8ca 1008 	str.w	r1, [sl, #8]
   89824:	6861      	ldr	r1, [r4, #4]
   89826:	f8ca 100c 	str.w	r1, [sl, #12]
   8982a:	f200 80b2 	bhi.w	89992 <_realloc_r+0x33a>
   8982e:	3408      	adds	r4, #8
   89830:	f10a 0210 	add.w	r2, sl, #16
   89834:	6821      	ldr	r1, [r4, #0]
   89836:	461d      	mov	r5, r3
   89838:	6011      	str	r1, [r2, #0]
   8983a:	6861      	ldr	r1, [r4, #4]
   8983c:	4657      	mov	r7, sl
   8983e:	6051      	str	r1, [r2, #4]
   89840:	68a3      	ldr	r3, [r4, #8]
   89842:	6093      	str	r3, [r2, #8]
   89844:	f8da 3004 	ldr.w	r3, [sl, #4]
   89848:	e774      	b.n	89734 <_realloc_r+0xdc>
   8984a:	6823      	ldr	r3, [r4, #0]
   8984c:	2a1b      	cmp	r2, #27
   8984e:	6003      	str	r3, [r0, #0]
   89850:	6863      	ldr	r3, [r4, #4]
   89852:	6043      	str	r3, [r0, #4]
   89854:	d862      	bhi.n	8991c <_realloc_r+0x2c4>
   89856:	f100 0308 	add.w	r3, r0, #8
   8985a:	f104 0208 	add.w	r2, r4, #8
   8985e:	e7b3      	b.n	897c8 <_realloc_r+0x170>
   89860:	4643      	mov	r3, r8
   89862:	6822      	ldr	r2, [r4, #0]
   89864:	4675      	mov	r5, lr
   89866:	601a      	str	r2, [r3, #0]
   89868:	6862      	ldr	r2, [r4, #4]
   8986a:	4657      	mov	r7, sl
   8986c:	605a      	str	r2, [r3, #4]
   8986e:	68a2      	ldr	r2, [r4, #8]
   89870:	609a      	str	r2, [r3, #8]
   89872:	f8da 3004 	ldr.w	r3, [sl, #4]
   89876:	e75d      	b.n	89734 <_realloc_r+0xdc>
   89878:	1b83      	subs	r3, r0, r6
   8987a:	4437      	add	r7, r6
   8987c:	f043 0301 	orr.w	r3, r3, #1
   89880:	f8cb 7008 	str.w	r7, [fp, #8]
   89884:	607b      	str	r3, [r7, #4]
   89886:	f854 3c04 	ldr.w	r3, [r4, #-4]
   8988a:	4648      	mov	r0, r9
   8988c:	f003 0301 	and.w	r3, r3, #1
   89890:	431e      	orrs	r6, r3
   89892:	f844 6c04 	str.w	r6, [r4, #-4]
   89896:	f7ff fbd3 	bl	89040 <__malloc_unlock>
   8989a:	4620      	mov	r0, r4
   8989c:	e75a      	b.n	89754 <_realloc_r+0xfc>
   8989e:	4621      	mov	r1, r4
   898a0:	f7ff fb66 	bl	88f70 <memmove>
   898a4:	e796      	b.n	897d4 <_realloc_r+0x17c>
   898a6:	eb02 0c03 	add.w	ip, r2, r3
   898aa:	f106 0210 	add.w	r2, r6, #16
   898ae:	4594      	cmp	ip, r2
   898b0:	f6ff af70 	blt.w	89794 <_realloc_r+0x13c>
   898b4:	4657      	mov	r7, sl
   898b6:	f857 1f08 	ldr.w	r1, [r7, #8]!
   898ba:	f8da 300c 	ldr.w	r3, [sl, #12]
   898be:	1f2a      	subs	r2, r5, #4
   898c0:	2a24      	cmp	r2, #36	; 0x24
   898c2:	60cb      	str	r3, [r1, #12]
   898c4:	6099      	str	r1, [r3, #8]
   898c6:	f200 8086 	bhi.w	899d6 <_realloc_r+0x37e>
   898ca:	2a13      	cmp	r2, #19
   898cc:	d977      	bls.n	899be <_realloc_r+0x366>
   898ce:	6823      	ldr	r3, [r4, #0]
   898d0:	2a1b      	cmp	r2, #27
   898d2:	f8ca 3008 	str.w	r3, [sl, #8]
   898d6:	6863      	ldr	r3, [r4, #4]
   898d8:	f8ca 300c 	str.w	r3, [sl, #12]
   898dc:	f200 8084 	bhi.w	899e8 <_realloc_r+0x390>
   898e0:	3408      	adds	r4, #8
   898e2:	f10a 0310 	add.w	r3, sl, #16
   898e6:	6822      	ldr	r2, [r4, #0]
   898e8:	601a      	str	r2, [r3, #0]
   898ea:	6862      	ldr	r2, [r4, #4]
   898ec:	605a      	str	r2, [r3, #4]
   898ee:	68a2      	ldr	r2, [r4, #8]
   898f0:	609a      	str	r2, [r3, #8]
   898f2:	ebc6 020c 	rsb	r2, r6, ip
   898f6:	eb0a 0306 	add.w	r3, sl, r6
   898fa:	f042 0201 	orr.w	r2, r2, #1
   898fe:	f8cb 3008 	str.w	r3, [fp, #8]
   89902:	605a      	str	r2, [r3, #4]
   89904:	f8da 3004 	ldr.w	r3, [sl, #4]
   89908:	4648      	mov	r0, r9
   8990a:	f003 0301 	and.w	r3, r3, #1
   8990e:	431e      	orrs	r6, r3
   89910:	f8ca 6004 	str.w	r6, [sl, #4]
   89914:	f7ff fb94 	bl	89040 <__malloc_unlock>
   89918:	4638      	mov	r0, r7
   8991a:	e71b      	b.n	89754 <_realloc_r+0xfc>
   8991c:	68a3      	ldr	r3, [r4, #8]
   8991e:	2a24      	cmp	r2, #36	; 0x24
   89920:	6083      	str	r3, [r0, #8]
   89922:	68e3      	ldr	r3, [r4, #12]
   89924:	60c3      	str	r3, [r0, #12]
   89926:	d02b      	beq.n	89980 <_realloc_r+0x328>
   89928:	f100 0310 	add.w	r3, r0, #16
   8992c:	f104 0210 	add.w	r2, r4, #16
   89930:	e74a      	b.n	897c8 <_realloc_r+0x170>
   89932:	f850 2c04 	ldr.w	r2, [r0, #-4]
   89936:	46a0      	mov	r8, r4
   89938:	f022 0203 	bic.w	r2, r2, #3
   8993c:	4415      	add	r5, r2
   8993e:	e6f9      	b.n	89734 <_realloc_r+0xdc>
   89940:	4621      	mov	r1, r4
   89942:	4640      	mov	r0, r8
   89944:	4675      	mov	r5, lr
   89946:	4657      	mov	r7, sl
   89948:	f7ff fb12 	bl	88f70 <memmove>
   8994c:	f8da 3004 	ldr.w	r3, [sl, #4]
   89950:	e6f0      	b.n	89734 <_realloc_r+0xdc>
   89952:	4642      	mov	r2, r8
   89954:	e76e      	b.n	89834 <_realloc_r+0x1dc>
   89956:	4621      	mov	r1, r4
   89958:	4640      	mov	r0, r8
   8995a:	461d      	mov	r5, r3
   8995c:	4657      	mov	r7, sl
   8995e:	f7ff fb07 	bl	88f70 <memmove>
   89962:	f8da 3004 	ldr.w	r3, [sl, #4]
   89966:	e6e5      	b.n	89734 <_realloc_r+0xdc>
   89968:	68a3      	ldr	r3, [r4, #8]
   8996a:	2a24      	cmp	r2, #36	; 0x24
   8996c:	f8ca 3010 	str.w	r3, [sl, #16]
   89970:	68e3      	ldr	r3, [r4, #12]
   89972:	f8ca 3014 	str.w	r3, [sl, #20]
   89976:	d018      	beq.n	899aa <_realloc_r+0x352>
   89978:	3410      	adds	r4, #16
   8997a:	f10a 0318 	add.w	r3, sl, #24
   8997e:	e770      	b.n	89862 <_realloc_r+0x20a>
   89980:	6922      	ldr	r2, [r4, #16]
   89982:	f100 0318 	add.w	r3, r0, #24
   89986:	6102      	str	r2, [r0, #16]
   89988:	6961      	ldr	r1, [r4, #20]
   8998a:	f104 0218 	add.w	r2, r4, #24
   8998e:	6141      	str	r1, [r0, #20]
   89990:	e71a      	b.n	897c8 <_realloc_r+0x170>
   89992:	68a1      	ldr	r1, [r4, #8]
   89994:	2a24      	cmp	r2, #36	; 0x24
   89996:	f8ca 1010 	str.w	r1, [sl, #16]
   8999a:	68e1      	ldr	r1, [r4, #12]
   8999c:	f8ca 1014 	str.w	r1, [sl, #20]
   899a0:	d00f      	beq.n	899c2 <_realloc_r+0x36a>
   899a2:	3410      	adds	r4, #16
   899a4:	f10a 0218 	add.w	r2, sl, #24
   899a8:	e744      	b.n	89834 <_realloc_r+0x1dc>
   899aa:	6922      	ldr	r2, [r4, #16]
   899ac:	f10a 0320 	add.w	r3, sl, #32
   899b0:	f8ca 2018 	str.w	r2, [sl, #24]
   899b4:	6962      	ldr	r2, [r4, #20]
   899b6:	3418      	adds	r4, #24
   899b8:	f8ca 201c 	str.w	r2, [sl, #28]
   899bc:	e751      	b.n	89862 <_realloc_r+0x20a>
   899be:	463b      	mov	r3, r7
   899c0:	e791      	b.n	898e6 <_realloc_r+0x28e>
   899c2:	6921      	ldr	r1, [r4, #16]
   899c4:	f10a 0220 	add.w	r2, sl, #32
   899c8:	f8ca 1018 	str.w	r1, [sl, #24]
   899cc:	6961      	ldr	r1, [r4, #20]
   899ce:	3418      	adds	r4, #24
   899d0:	f8ca 101c 	str.w	r1, [sl, #28]
   899d4:	e72e      	b.n	89834 <_realloc_r+0x1dc>
   899d6:	4621      	mov	r1, r4
   899d8:	4638      	mov	r0, r7
   899da:	f8cd c004 	str.w	ip, [sp, #4]
   899de:	f7ff fac7 	bl	88f70 <memmove>
   899e2:	f8dd c004 	ldr.w	ip, [sp, #4]
   899e6:	e784      	b.n	898f2 <_realloc_r+0x29a>
   899e8:	68a3      	ldr	r3, [r4, #8]
   899ea:	2a24      	cmp	r2, #36	; 0x24
   899ec:	f8ca 3010 	str.w	r3, [sl, #16]
   899f0:	68e3      	ldr	r3, [r4, #12]
   899f2:	f8ca 3014 	str.w	r3, [sl, #20]
   899f6:	d003      	beq.n	89a00 <_realloc_r+0x3a8>
   899f8:	3410      	adds	r4, #16
   899fa:	f10a 0318 	add.w	r3, sl, #24
   899fe:	e772      	b.n	898e6 <_realloc_r+0x28e>
   89a00:	6922      	ldr	r2, [r4, #16]
   89a02:	f10a 0320 	add.w	r3, sl, #32
   89a06:	f8ca 2018 	str.w	r2, [sl, #24]
   89a0a:	6962      	ldr	r2, [r4, #20]
   89a0c:	3418      	adds	r4, #24
   89a0e:	f8ca 201c 	str.w	r2, [sl, #28]
   89a12:	e768      	b.n	898e6 <_realloc_r+0x28e>
   89a14:	20070638 	.word	0x20070638

00089a18 <_sbrk_r>:
   89a18:	b538      	push	{r3, r4, r5, lr}
   89a1a:	4c07      	ldr	r4, [pc, #28]	; (89a38 <_sbrk_r+0x20>)
   89a1c:	2300      	movs	r3, #0
   89a1e:	4605      	mov	r5, r0
   89a20:	4608      	mov	r0, r1
   89a22:	6023      	str	r3, [r4, #0]
   89a24:	f7f9 fe70 	bl	83708 <_sbrk>
   89a28:	1c43      	adds	r3, r0, #1
   89a2a:	d000      	beq.n	89a2e <_sbrk_r+0x16>
   89a2c:	bd38      	pop	{r3, r4, r5, pc}
   89a2e:	6823      	ldr	r3, [r4, #0]
   89a30:	2b00      	cmp	r3, #0
   89a32:	d0fb      	beq.n	89a2c <_sbrk_r+0x14>
   89a34:	602b      	str	r3, [r5, #0]
   89a36:	bd38      	pop	{r3, r4, r5, pc}
   89a38:	20078e04 	.word	0x20078e04

00089a3c <__sread>:
   89a3c:	b510      	push	{r4, lr}
   89a3e:	460c      	mov	r4, r1
   89a40:	f9b1 100e 	ldrsh.w	r1, [r1, #14]
   89a44:	f000 fa72 	bl	89f2c <_read_r>
   89a48:	2800      	cmp	r0, #0
   89a4a:	db03      	blt.n	89a54 <__sread+0x18>
   89a4c:	6d23      	ldr	r3, [r4, #80]	; 0x50
   89a4e:	4403      	add	r3, r0
   89a50:	6523      	str	r3, [r4, #80]	; 0x50
   89a52:	bd10      	pop	{r4, pc}
   89a54:	89a3      	ldrh	r3, [r4, #12]
   89a56:	f423 5380 	bic.w	r3, r3, #4096	; 0x1000
   89a5a:	81a3      	strh	r3, [r4, #12]
   89a5c:	bd10      	pop	{r4, pc}
   89a5e:	bf00      	nop

00089a60 <__swrite>:
   89a60:	e92d 41f0 	stmdb	sp!, {r4, r5, r6, r7, r8, lr}
   89a64:	460c      	mov	r4, r1
   89a66:	8989      	ldrh	r1, [r1, #12]
   89a68:	461d      	mov	r5, r3
   89a6a:	05cb      	lsls	r3, r1, #23
   89a6c:	4616      	mov	r6, r2
   89a6e:	4607      	mov	r7, r0
   89a70:	d506      	bpl.n	89a80 <__swrite+0x20>
   89a72:	f9b4 100e 	ldrsh.w	r1, [r4, #14]
   89a76:	2200      	movs	r2, #0
   89a78:	2302      	movs	r3, #2
   89a7a:	f000 fa43 	bl	89f04 <_lseek_r>
   89a7e:	89a1      	ldrh	r1, [r4, #12]
   89a80:	f421 5180 	bic.w	r1, r1, #4096	; 0x1000
   89a84:	81a1      	strh	r1, [r4, #12]
   89a86:	4638      	mov	r0, r7
   89a88:	f9b4 100e 	ldrsh.w	r1, [r4, #14]
   89a8c:	4632      	mov	r2, r6
   89a8e:	462b      	mov	r3, r5
   89a90:	e8bd 41f0 	ldmia.w	sp!, {r4, r5, r6, r7, r8, lr}
   89a94:	f000 b91e 	b.w	89cd4 <_write_r>

00089a98 <__sseek>:
   89a98:	b510      	push	{r4, lr}
   89a9a:	460c      	mov	r4, r1
   89a9c:	f9b1 100e 	ldrsh.w	r1, [r1, #14]
   89aa0:	f000 fa30 	bl	89f04 <_lseek_r>
   89aa4:	89a3      	ldrh	r3, [r4, #12]
   89aa6:	1c42      	adds	r2, r0, #1
   89aa8:	bf0e      	itee	eq
   89aaa:	f423 5380 	biceq.w	r3, r3, #4096	; 0x1000
   89aae:	f443 5380 	orrne.w	r3, r3, #4096	; 0x1000
   89ab2:	6520      	strne	r0, [r4, #80]	; 0x50
   89ab4:	81a3      	strh	r3, [r4, #12]
   89ab6:	bd10      	pop	{r4, pc}

00089ab8 <__sclose>:
   89ab8:	f9b1 100e 	ldrsh.w	r1, [r1, #14]
   89abc:	f000 b9a2 	b.w	89e04 <_close_r>

00089ac0 <__ssprint_r>:
   89ac0:	e92d 4ff0 	stmdb	sp!, {r4, r5, r6, r7, r8, r9, sl, fp, lr}
   89ac4:	6894      	ldr	r4, [r2, #8]
   89ac6:	b083      	sub	sp, #12
   89ac8:	4692      	mov	sl, r2
   89aca:	4680      	mov	r8, r0
   89acc:	460d      	mov	r5, r1
   89ace:	6816      	ldr	r6, [r2, #0]
   89ad0:	2c00      	cmp	r4, #0
   89ad2:	d06f      	beq.n	89bb4 <__ssprint_r+0xf4>
   89ad4:	f04f 0b00 	mov.w	fp, #0
   89ad8:	6808      	ldr	r0, [r1, #0]
   89ada:	688b      	ldr	r3, [r1, #8]
   89adc:	465c      	mov	r4, fp
   89ade:	2c00      	cmp	r4, #0
   89ae0:	d043      	beq.n	89b6a <__ssprint_r+0xaa>
   89ae2:	429c      	cmp	r4, r3
   89ae4:	461f      	mov	r7, r3
   89ae6:	d345      	bcc.n	89b74 <__ssprint_r+0xb4>
   89ae8:	89ab      	ldrh	r3, [r5, #12]
   89aea:	f413 6f90 	tst.w	r3, #1152	; 0x480
   89aee:	d044      	beq.n	89b7a <__ssprint_r+0xba>
   89af0:	696f      	ldr	r7, [r5, #20]
   89af2:	6929      	ldr	r1, [r5, #16]
   89af4:	eb07 0747 	add.w	r7, r7, r7, lsl #1
   89af8:	eb07 77d7 	add.w	r7, r7, r7, lsr #31
   89afc:	ebc1 0900 	rsb	r9, r1, r0
   89b00:	1c62      	adds	r2, r4, #1
   89b02:	107f      	asrs	r7, r7, #1
   89b04:	444a      	add	r2, r9
   89b06:	4297      	cmp	r7, r2
   89b08:	bf34      	ite	cc
   89b0a:	4617      	movcc	r7, r2
   89b0c:	463a      	movcs	r2, r7
   89b0e:	055b      	lsls	r3, r3, #21
   89b10:	d535      	bpl.n	89b7e <__ssprint_r+0xbe>
   89b12:	4611      	mov	r1, r2
   89b14:	4640      	mov	r0, r8
   89b16:	f7fe ff45 	bl	889a4 <_malloc_r>
   89b1a:	2800      	cmp	r0, #0
   89b1c:	d039      	beq.n	89b92 <__ssprint_r+0xd2>
   89b1e:	6929      	ldr	r1, [r5, #16]
   89b20:	464a      	mov	r2, r9
   89b22:	9001      	str	r0, [sp, #4]
   89b24:	f7fa ff2c 	bl	84980 <memcpy>
   89b28:	89aa      	ldrh	r2, [r5, #12]
   89b2a:	9b01      	ldr	r3, [sp, #4]
   89b2c:	f422 6290 	bic.w	r2, r2, #1152	; 0x480
   89b30:	f042 0280 	orr.w	r2, r2, #128	; 0x80
   89b34:	81aa      	strh	r2, [r5, #12]
   89b36:	ebc9 0207 	rsb	r2, r9, r7
   89b3a:	eb03 0009 	add.w	r0, r3, r9
   89b3e:	616f      	str	r7, [r5, #20]
   89b40:	612b      	str	r3, [r5, #16]
   89b42:	6028      	str	r0, [r5, #0]
   89b44:	60aa      	str	r2, [r5, #8]
   89b46:	4627      	mov	r7, r4
   89b48:	46a1      	mov	r9, r4
   89b4a:	464a      	mov	r2, r9
   89b4c:	4659      	mov	r1, fp
   89b4e:	f7ff fa0f 	bl	88f70 <memmove>
   89b52:	f8da 2008 	ldr.w	r2, [sl, #8]
   89b56:	68ab      	ldr	r3, [r5, #8]
   89b58:	6828      	ldr	r0, [r5, #0]
   89b5a:	1bdb      	subs	r3, r3, r7
   89b5c:	4448      	add	r0, r9
   89b5e:	1b14      	subs	r4, r2, r4
   89b60:	60ab      	str	r3, [r5, #8]
   89b62:	6028      	str	r0, [r5, #0]
   89b64:	f8ca 4008 	str.w	r4, [sl, #8]
   89b68:	b324      	cbz	r4, 89bb4 <__ssprint_r+0xf4>
   89b6a:	f8d6 b000 	ldr.w	fp, [r6]
   89b6e:	6874      	ldr	r4, [r6, #4]
   89b70:	3608      	adds	r6, #8
   89b72:	e7b4      	b.n	89ade <__ssprint_r+0x1e>
   89b74:	4627      	mov	r7, r4
   89b76:	46a1      	mov	r9, r4
   89b78:	e7e7      	b.n	89b4a <__ssprint_r+0x8a>
   89b7a:	46b9      	mov	r9, r7
   89b7c:	e7e5      	b.n	89b4a <__ssprint_r+0x8a>
   89b7e:	4640      	mov	r0, r8
   89b80:	f7ff fd6a 	bl	89658 <_realloc_r>
   89b84:	4603      	mov	r3, r0
   89b86:	2800      	cmp	r0, #0
   89b88:	d1d5      	bne.n	89b36 <__ssprint_r+0x76>
   89b8a:	4640      	mov	r0, r8
   89b8c:	6929      	ldr	r1, [r5, #16]
   89b8e:	f7fe fc07 	bl	883a0 <_free_r>
   89b92:	89aa      	ldrh	r2, [r5, #12]
   89b94:	230c      	movs	r3, #12
   89b96:	f8c8 3000 	str.w	r3, [r8]
   89b9a:	f042 0240 	orr.w	r2, r2, #64	; 0x40
   89b9e:	2300      	movs	r3, #0
   89ba0:	f04f 30ff 	mov.w	r0, #4294967295
   89ba4:	81aa      	strh	r2, [r5, #12]
   89ba6:	f8ca 3008 	str.w	r3, [sl, #8]
   89baa:	f8ca 3004 	str.w	r3, [sl, #4]
   89bae:	b003      	add	sp, #12
   89bb0:	e8bd 8ff0 	ldmia.w	sp!, {r4, r5, r6, r7, r8, r9, sl, fp, pc}
   89bb4:	4620      	mov	r0, r4
   89bb6:	f8ca 4004 	str.w	r4, [sl, #4]
   89bba:	b003      	add	sp, #12
   89bbc:	e8bd 8ff0 	ldmia.w	sp!, {r4, r5, r6, r7, r8, r9, sl, fp, pc}

00089bc0 <__swbuf_r>:
   89bc0:	b5f8      	push	{r3, r4, r5, r6, r7, lr}
   89bc2:	460d      	mov	r5, r1
   89bc4:	4614      	mov	r4, r2
   89bc6:	4607      	mov	r7, r0
   89bc8:	b110      	cbz	r0, 89bd0 <__swbuf_r+0x10>
   89bca:	6b83      	ldr	r3, [r0, #56]	; 0x38
   89bcc:	2b00      	cmp	r3, #0
   89bce:	d048      	beq.n	89c62 <__swbuf_r+0xa2>
   89bd0:	89a2      	ldrh	r2, [r4, #12]
   89bd2:	69a0      	ldr	r0, [r4, #24]
   89bd4:	b293      	uxth	r3, r2
   89bd6:	60a0      	str	r0, [r4, #8]
   89bd8:	0718      	lsls	r0, r3, #28
   89bda:	d538      	bpl.n	89c4e <__swbuf_r+0x8e>
   89bdc:	6926      	ldr	r6, [r4, #16]
   89bde:	2e00      	cmp	r6, #0
   89be0:	d035      	beq.n	89c4e <__swbuf_r+0x8e>
   89be2:	0499      	lsls	r1, r3, #18
   89be4:	b2ed      	uxtb	r5, r5
   89be6:	d515      	bpl.n	89c14 <__swbuf_r+0x54>
   89be8:	6823      	ldr	r3, [r4, #0]
   89bea:	6962      	ldr	r2, [r4, #20]
   89bec:	1b9e      	subs	r6, r3, r6
   89bee:	4296      	cmp	r6, r2
   89bf0:	da1c      	bge.n	89c2c <__swbuf_r+0x6c>
   89bf2:	3601      	adds	r6, #1
   89bf4:	68a2      	ldr	r2, [r4, #8]
   89bf6:	1c59      	adds	r1, r3, #1
   89bf8:	3a01      	subs	r2, #1
   89bfa:	60a2      	str	r2, [r4, #8]
   89bfc:	6021      	str	r1, [r4, #0]
   89bfe:	701d      	strb	r5, [r3, #0]
   89c00:	6963      	ldr	r3, [r4, #20]
   89c02:	42b3      	cmp	r3, r6
   89c04:	d01a      	beq.n	89c3c <__swbuf_r+0x7c>
   89c06:	89a3      	ldrh	r3, [r4, #12]
   89c08:	07db      	lsls	r3, r3, #31
   89c0a:	d501      	bpl.n	89c10 <__swbuf_r+0x50>
   89c0c:	2d0a      	cmp	r5, #10
   89c0e:	d015      	beq.n	89c3c <__swbuf_r+0x7c>
   89c10:	4628      	mov	r0, r5
   89c12:	bdf8      	pop	{r3, r4, r5, r6, r7, pc}
   89c14:	6e63      	ldr	r3, [r4, #100]	; 0x64
   89c16:	f442 5200 	orr.w	r2, r2, #8192	; 0x2000
   89c1a:	f423 5300 	bic.w	r3, r3, #8192	; 0x2000
   89c1e:	6663      	str	r3, [r4, #100]	; 0x64
   89c20:	6823      	ldr	r3, [r4, #0]
   89c22:	81a2      	strh	r2, [r4, #12]
   89c24:	6962      	ldr	r2, [r4, #20]
   89c26:	1b9e      	subs	r6, r3, r6
   89c28:	4296      	cmp	r6, r2
   89c2a:	dbe2      	blt.n	89bf2 <__swbuf_r+0x32>
   89c2c:	4638      	mov	r0, r7
   89c2e:	4621      	mov	r1, r4
   89c30:	f7fe fa56 	bl	880e0 <_fflush_r>
   89c34:	b940      	cbnz	r0, 89c48 <__swbuf_r+0x88>
   89c36:	6823      	ldr	r3, [r4, #0]
   89c38:	2601      	movs	r6, #1
   89c3a:	e7db      	b.n	89bf4 <__swbuf_r+0x34>
   89c3c:	4638      	mov	r0, r7
   89c3e:	4621      	mov	r1, r4
   89c40:	f7fe fa4e 	bl	880e0 <_fflush_r>
   89c44:	2800      	cmp	r0, #0
   89c46:	d0e3      	beq.n	89c10 <__swbuf_r+0x50>
   89c48:	f04f 30ff 	mov.w	r0, #4294967295
   89c4c:	bdf8      	pop	{r3, r4, r5, r6, r7, pc}
   89c4e:	4638      	mov	r0, r7
   89c50:	4621      	mov	r1, r4
   89c52:	f7fd f979 	bl	86f48 <__swsetup_r>
   89c56:	2800      	cmp	r0, #0
   89c58:	d1f6      	bne.n	89c48 <__swbuf_r+0x88>
   89c5a:	89a2      	ldrh	r2, [r4, #12]
   89c5c:	6926      	ldr	r6, [r4, #16]
   89c5e:	b293      	uxth	r3, r2
   89c60:	e7bf      	b.n	89be2 <__swbuf_r+0x22>
   89c62:	f7fe fa59 	bl	88118 <__sinit>
   89c66:	e7b3      	b.n	89bd0 <__swbuf_r+0x10>

00089c68 <_wcrtomb_r>:
   89c68:	e92d 41f0 	stmdb	sp!, {r4, r5, r6, r7, r8, lr}
   89c6c:	461e      	mov	r6, r3
   89c6e:	b086      	sub	sp, #24
   89c70:	460c      	mov	r4, r1
   89c72:	4605      	mov	r5, r0
   89c74:	4617      	mov	r7, r2
   89c76:	4b0f      	ldr	r3, [pc, #60]	; (89cb4 <_wcrtomb_r+0x4c>)
   89c78:	b191      	cbz	r1, 89ca0 <_wcrtomb_r+0x38>
   89c7a:	f8d3 8000 	ldr.w	r8, [r3]
   89c7e:	f7fe fe0b 	bl	88898 <__locale_charset>
   89c82:	9600      	str	r6, [sp, #0]
   89c84:	4603      	mov	r3, r0
   89c86:	4621      	mov	r1, r4
   89c88:	463a      	mov	r2, r7
   89c8a:	4628      	mov	r0, r5
   89c8c:	47c0      	blx	r8
   89c8e:	1c43      	adds	r3, r0, #1
   89c90:	d103      	bne.n	89c9a <_wcrtomb_r+0x32>
   89c92:	2200      	movs	r2, #0
   89c94:	238a      	movs	r3, #138	; 0x8a
   89c96:	6032      	str	r2, [r6, #0]
   89c98:	602b      	str	r3, [r5, #0]
   89c9a:	b006      	add	sp, #24
   89c9c:	e8bd 81f0 	ldmia.w	sp!, {r4, r5, r6, r7, r8, pc}
   89ca0:	681f      	ldr	r7, [r3, #0]
   89ca2:	f7fe fdf9 	bl	88898 <__locale_charset>
   89ca6:	9600      	str	r6, [sp, #0]
   89ca8:	4603      	mov	r3, r0
   89caa:	4622      	mov	r2, r4
   89cac:	4628      	mov	r0, r5
   89cae:	a903      	add	r1, sp, #12
   89cb0:	47b8      	blx	r7
   89cb2:	e7ec      	b.n	89c8e <_wcrtomb_r+0x26>
   89cb4:	20070a48 	.word	0x20070a48

00089cb8 <__ascii_wctomb>:
   89cb8:	b121      	cbz	r1, 89cc4 <__ascii_wctomb+0xc>
   89cba:	2aff      	cmp	r2, #255	; 0xff
   89cbc:	d804      	bhi.n	89cc8 <__ascii_wctomb+0x10>
   89cbe:	700a      	strb	r2, [r1, #0]
   89cc0:	2001      	movs	r0, #1
   89cc2:	4770      	bx	lr
   89cc4:	4608      	mov	r0, r1
   89cc6:	4770      	bx	lr
   89cc8:	238a      	movs	r3, #138	; 0x8a
   89cca:	6003      	str	r3, [r0, #0]
   89ccc:	f04f 30ff 	mov.w	r0, #4294967295
   89cd0:	4770      	bx	lr
   89cd2:	bf00      	nop

00089cd4 <_write_r>:
   89cd4:	b570      	push	{r4, r5, r6, lr}
   89cd6:	4c08      	ldr	r4, [pc, #32]	; (89cf8 <_write_r+0x24>)
   89cd8:	4606      	mov	r6, r0
   89cda:	2500      	movs	r5, #0
   89cdc:	4608      	mov	r0, r1
   89cde:	4611      	mov	r1, r2
   89ce0:	461a      	mov	r2, r3
   89ce2:	6025      	str	r5, [r4, #0]
   89ce4:	f7f7 fbea 	bl	814bc <_write>
   89ce8:	1c43      	adds	r3, r0, #1
   89cea:	d000      	beq.n	89cee <_write_r+0x1a>
   89cec:	bd70      	pop	{r4, r5, r6, pc}
   89cee:	6823      	ldr	r3, [r4, #0]
   89cf0:	2b00      	cmp	r3, #0
   89cf2:	d0fb      	beq.n	89cec <_write_r+0x18>
   89cf4:	6033      	str	r3, [r6, #0]
   89cf6:	bd70      	pop	{r4, r5, r6, pc}
   89cf8:	20078e04 	.word	0x20078e04

00089cfc <__register_exitproc>:
   89cfc:	b5f0      	push	{r4, r5, r6, r7, lr}
   89cfe:	4c27      	ldr	r4, [pc, #156]	; (89d9c <__register_exitproc+0xa0>)
   89d00:	b085      	sub	sp, #20
   89d02:	6826      	ldr	r6, [r4, #0]
   89d04:	4607      	mov	r7, r0
   89d06:	f8d6 4148 	ldr.w	r4, [r6, #328]	; 0x148
   89d0a:	2c00      	cmp	r4, #0
   89d0c:	d040      	beq.n	89d90 <__register_exitproc+0x94>
   89d0e:	6865      	ldr	r5, [r4, #4]
   89d10:	2d1f      	cmp	r5, #31
   89d12:	dd1e      	ble.n	89d52 <__register_exitproc+0x56>
   89d14:	4822      	ldr	r0, [pc, #136]	; (89da0 <__register_exitproc+0xa4>)
   89d16:	b918      	cbnz	r0, 89d20 <__register_exitproc+0x24>
   89d18:	f04f 30ff 	mov.w	r0, #4294967295
   89d1c:	b005      	add	sp, #20
   89d1e:	bdf0      	pop	{r4, r5, r6, r7, pc}
   89d20:	f44f 70c8 	mov.w	r0, #400	; 0x190
   89d24:	9103      	str	r1, [sp, #12]
   89d26:	9202      	str	r2, [sp, #8]
   89d28:	9301      	str	r3, [sp, #4]
   89d2a:	f7fe fe33 	bl	88994 <malloc>
   89d2e:	9903      	ldr	r1, [sp, #12]
   89d30:	4604      	mov	r4, r0
   89d32:	9a02      	ldr	r2, [sp, #8]
   89d34:	9b01      	ldr	r3, [sp, #4]
   89d36:	2800      	cmp	r0, #0
   89d38:	d0ee      	beq.n	89d18 <__register_exitproc+0x1c>
   89d3a:	f8d6 5148 	ldr.w	r5, [r6, #328]	; 0x148
   89d3e:	2000      	movs	r0, #0
   89d40:	6025      	str	r5, [r4, #0]
   89d42:	6060      	str	r0, [r4, #4]
   89d44:	4605      	mov	r5, r0
   89d46:	f8c6 4148 	str.w	r4, [r6, #328]	; 0x148
   89d4a:	f8c4 0188 	str.w	r0, [r4, #392]	; 0x188
   89d4e:	f8c4 018c 	str.w	r0, [r4, #396]	; 0x18c
   89d52:	b93f      	cbnz	r7, 89d64 <__register_exitproc+0x68>
   89d54:	1c6b      	adds	r3, r5, #1
   89d56:	2000      	movs	r0, #0
   89d58:	3502      	adds	r5, #2
   89d5a:	6063      	str	r3, [r4, #4]
   89d5c:	f844 1025 	str.w	r1, [r4, r5, lsl #2]
   89d60:	b005      	add	sp, #20
   89d62:	bdf0      	pop	{r4, r5, r6, r7, pc}
   89d64:	2601      	movs	r6, #1
   89d66:	40ae      	lsls	r6, r5
   89d68:	eb04 0085 	add.w	r0, r4, r5, lsl #2
   89d6c:	f8c0 2088 	str.w	r2, [r0, #136]	; 0x88
   89d70:	f8d4 2188 	ldr.w	r2, [r4, #392]	; 0x188
   89d74:	2f02      	cmp	r7, #2
   89d76:	ea42 0206 	orr.w	r2, r2, r6
   89d7a:	f8c4 2188 	str.w	r2, [r4, #392]	; 0x188
   89d7e:	f8c0 3108 	str.w	r3, [r0, #264]	; 0x108
   89d82:	d1e7      	bne.n	89d54 <__register_exitproc+0x58>
   89d84:	f8d4 318c 	ldr.w	r3, [r4, #396]	; 0x18c
   89d88:	431e      	orrs	r6, r3
   89d8a:	f8c4 618c 	str.w	r6, [r4, #396]	; 0x18c
   89d8e:	e7e1      	b.n	89d54 <__register_exitproc+0x58>
   89d90:	f506 74a6 	add.w	r4, r6, #332	; 0x14c
   89d94:	f8c6 4148 	str.w	r4, [r6, #328]	; 0x148
   89d98:	e7b9      	b.n	89d0e <__register_exitproc+0x12>
   89d9a:	bf00      	nop
   89d9c:	0008a984 	.word	0x0008a984
   89da0:	00088995 	.word	0x00088995

00089da4 <_calloc_r>:
   89da4:	b510      	push	{r4, lr}
   89da6:	fb02 f101 	mul.w	r1, r2, r1
   89daa:	f7fe fdfb 	bl	889a4 <_malloc_r>
   89dae:	4604      	mov	r4, r0
   89db0:	b168      	cbz	r0, 89dce <_calloc_r+0x2a>
   89db2:	f850 2c04 	ldr.w	r2, [r0, #-4]
   89db6:	f022 0203 	bic.w	r2, r2, #3
   89dba:	3a04      	subs	r2, #4
   89dbc:	2a24      	cmp	r2, #36	; 0x24
   89dbe:	d818      	bhi.n	89df2 <_calloc_r+0x4e>
   89dc0:	2a13      	cmp	r2, #19
   89dc2:	d806      	bhi.n	89dd2 <_calloc_r+0x2e>
   89dc4:	4603      	mov	r3, r0
   89dc6:	2200      	movs	r2, #0
   89dc8:	601a      	str	r2, [r3, #0]
   89dca:	605a      	str	r2, [r3, #4]
   89dcc:	609a      	str	r2, [r3, #8]
   89dce:	4620      	mov	r0, r4
   89dd0:	bd10      	pop	{r4, pc}
   89dd2:	2300      	movs	r3, #0
   89dd4:	2a1b      	cmp	r2, #27
   89dd6:	6003      	str	r3, [r0, #0]
   89dd8:	6043      	str	r3, [r0, #4]
   89dda:	d90f      	bls.n	89dfc <_calloc_r+0x58>
   89ddc:	2a24      	cmp	r2, #36	; 0x24
   89dde:	6083      	str	r3, [r0, #8]
   89de0:	60c3      	str	r3, [r0, #12]
   89de2:	bf05      	ittet	eq
   89de4:	6103      	streq	r3, [r0, #16]
   89de6:	6143      	streq	r3, [r0, #20]
   89de8:	f100 0310 	addne.w	r3, r0, #16
   89dec:	f100 0318 	addeq.w	r3, r0, #24
   89df0:	e7e9      	b.n	89dc6 <_calloc_r+0x22>
   89df2:	2100      	movs	r1, #0
   89df4:	f7fa fe3a 	bl	84a6c <memset>
   89df8:	4620      	mov	r0, r4
   89dfa:	bd10      	pop	{r4, pc}
   89dfc:	f100 0308 	add.w	r3, r0, #8
   89e00:	e7e1      	b.n	89dc6 <_calloc_r+0x22>
   89e02:	bf00      	nop

00089e04 <_close_r>:
   89e04:	b538      	push	{r3, r4, r5, lr}
   89e06:	4c07      	ldr	r4, [pc, #28]	; (89e24 <_close_r+0x20>)
   89e08:	2300      	movs	r3, #0
   89e0a:	4605      	mov	r5, r0
   89e0c:	4608      	mov	r0, r1
   89e0e:	6023      	str	r3, [r4, #0]
   89e10:	f7f9 fc94 	bl	8373c <_close>
   89e14:	1c43      	adds	r3, r0, #1
   89e16:	d000      	beq.n	89e1a <_close_r+0x16>
   89e18:	bd38      	pop	{r3, r4, r5, pc}
   89e1a:	6823      	ldr	r3, [r4, #0]
   89e1c:	2b00      	cmp	r3, #0
   89e1e:	d0fb      	beq.n	89e18 <_close_r+0x14>
   89e20:	602b      	str	r3, [r5, #0]
   89e22:	bd38      	pop	{r3, r4, r5, pc}
   89e24:	20078e04 	.word	0x20078e04

00089e28 <_fclose_r>:
   89e28:	b570      	push	{r4, r5, r6, lr}
   89e2a:	460c      	mov	r4, r1
   89e2c:	4605      	mov	r5, r0
   89e2e:	b131      	cbz	r1, 89e3e <_fclose_r+0x16>
   89e30:	b110      	cbz	r0, 89e38 <_fclose_r+0x10>
   89e32:	6b83      	ldr	r3, [r0, #56]	; 0x38
   89e34:	2b00      	cmp	r3, #0
   89e36:	d02f      	beq.n	89e98 <_fclose_r+0x70>
   89e38:	f9b4 300c 	ldrsh.w	r3, [r4, #12]
   89e3c:	b90b      	cbnz	r3, 89e42 <_fclose_r+0x1a>
   89e3e:	2000      	movs	r0, #0
   89e40:	bd70      	pop	{r4, r5, r6, pc}
   89e42:	4628      	mov	r0, r5
   89e44:	4621      	mov	r1, r4
   89e46:	f7fe f94b 	bl	880e0 <_fflush_r>
   89e4a:	6ae3      	ldr	r3, [r4, #44]	; 0x2c
   89e4c:	4606      	mov	r6, r0
   89e4e:	b133      	cbz	r3, 89e5e <_fclose_r+0x36>
   89e50:	4628      	mov	r0, r5
   89e52:	69e1      	ldr	r1, [r4, #28]
   89e54:	4798      	blx	r3
   89e56:	2800      	cmp	r0, #0
   89e58:	bfb8      	it	lt
   89e5a:	f04f 36ff 	movlt.w	r6, #4294967295
   89e5e:	89a3      	ldrh	r3, [r4, #12]
   89e60:	061b      	lsls	r3, r3, #24
   89e62:	d41c      	bmi.n	89e9e <_fclose_r+0x76>
   89e64:	6b21      	ldr	r1, [r4, #48]	; 0x30
   89e66:	b141      	cbz	r1, 89e7a <_fclose_r+0x52>
   89e68:	f104 0340 	add.w	r3, r4, #64	; 0x40
   89e6c:	4299      	cmp	r1, r3
   89e6e:	d002      	beq.n	89e76 <_fclose_r+0x4e>
   89e70:	4628      	mov	r0, r5
   89e72:	f7fe fa95 	bl	883a0 <_free_r>
   89e76:	2300      	movs	r3, #0
   89e78:	6323      	str	r3, [r4, #48]	; 0x30
   89e7a:	6c61      	ldr	r1, [r4, #68]	; 0x44
   89e7c:	b121      	cbz	r1, 89e88 <_fclose_r+0x60>
   89e7e:	4628      	mov	r0, r5
   89e80:	f7fe fa8e 	bl	883a0 <_free_r>
   89e84:	2300      	movs	r3, #0
   89e86:	6463      	str	r3, [r4, #68]	; 0x44
   89e88:	f7fe f9c0 	bl	8820c <__sfp_lock_acquire>
   89e8c:	2300      	movs	r3, #0
   89e8e:	81a3      	strh	r3, [r4, #12]
   89e90:	f7fe f9be 	bl	88210 <__sfp_lock_release>
   89e94:	4630      	mov	r0, r6
   89e96:	bd70      	pop	{r4, r5, r6, pc}
   89e98:	f7fe f93e 	bl	88118 <__sinit>
   89e9c:	e7cc      	b.n	89e38 <_fclose_r+0x10>
   89e9e:	4628      	mov	r0, r5
   89ea0:	6921      	ldr	r1, [r4, #16]
   89ea2:	f7fe fa7d 	bl	883a0 <_free_r>
   89ea6:	e7dd      	b.n	89e64 <_fclose_r+0x3c>

00089ea8 <fclose>:
   89ea8:	4b02      	ldr	r3, [pc, #8]	; (89eb4 <fclose+0xc>)
   89eaa:	4601      	mov	r1, r0
   89eac:	6818      	ldr	r0, [r3, #0]
   89eae:	f7ff bfbb 	b.w	89e28 <_fclose_r>
   89eb2:	bf00      	nop
   89eb4:	200705d8 	.word	0x200705d8

00089eb8 <_fstat_r>:
   89eb8:	b538      	push	{r3, r4, r5, lr}
   89eba:	4c08      	ldr	r4, [pc, #32]	; (89edc <_fstat_r+0x24>)
   89ebc:	2300      	movs	r3, #0
   89ebe:	4605      	mov	r5, r0
   89ec0:	4608      	mov	r0, r1
   89ec2:	4611      	mov	r1, r2
   89ec4:	6023      	str	r3, [r4, #0]
   89ec6:	f7f9 fc3d 	bl	83744 <_fstat>
   89eca:	1c43      	adds	r3, r0, #1
   89ecc:	d000      	beq.n	89ed0 <_fstat_r+0x18>
   89ece:	bd38      	pop	{r3, r4, r5, pc}
   89ed0:	6823      	ldr	r3, [r4, #0]
   89ed2:	2b00      	cmp	r3, #0
   89ed4:	d0fb      	beq.n	89ece <_fstat_r+0x16>
   89ed6:	602b      	str	r3, [r5, #0]
   89ed8:	bd38      	pop	{r3, r4, r5, pc}
   89eda:	bf00      	nop
   89edc:	20078e04 	.word	0x20078e04

00089ee0 <_isatty_r>:
   89ee0:	b538      	push	{r3, r4, r5, lr}
   89ee2:	4c07      	ldr	r4, [pc, #28]	; (89f00 <_isatty_r+0x20>)
   89ee4:	2300      	movs	r3, #0
   89ee6:	4605      	mov	r5, r0
   89ee8:	4608      	mov	r0, r1
   89eea:	6023      	str	r3, [r4, #0]
   89eec:	f7f9 fc30 	bl	83750 <_isatty>
   89ef0:	1c43      	adds	r3, r0, #1
   89ef2:	d000      	beq.n	89ef6 <_isatty_r+0x16>
   89ef4:	bd38      	pop	{r3, r4, r5, pc}
   89ef6:	6823      	ldr	r3, [r4, #0]
   89ef8:	2b00      	cmp	r3, #0
   89efa:	d0fb      	beq.n	89ef4 <_isatty_r+0x14>
   89efc:	602b      	str	r3, [r5, #0]
   89efe:	bd38      	pop	{r3, r4, r5, pc}
   89f00:	20078e04 	.word	0x20078e04

00089f04 <_lseek_r>:
   89f04:	b570      	push	{r4, r5, r6, lr}
   89f06:	4c08      	ldr	r4, [pc, #32]	; (89f28 <_lseek_r+0x24>)
   89f08:	4606      	mov	r6, r0
   89f0a:	2500      	movs	r5, #0
   89f0c:	4608      	mov	r0, r1
   89f0e:	4611      	mov	r1, r2
   89f10:	461a      	mov	r2, r3
   89f12:	6025      	str	r5, [r4, #0]
   89f14:	f7f9 fc1e 	bl	83754 <_lseek>
   89f18:	1c43      	adds	r3, r0, #1
   89f1a:	d000      	beq.n	89f1e <_lseek_r+0x1a>
   89f1c:	bd70      	pop	{r4, r5, r6, pc}
   89f1e:	6823      	ldr	r3, [r4, #0]
   89f20:	2b00      	cmp	r3, #0
   89f22:	d0fb      	beq.n	89f1c <_lseek_r+0x18>
   89f24:	6033      	str	r3, [r6, #0]
   89f26:	bd70      	pop	{r4, r5, r6, pc}
   89f28:	20078e04 	.word	0x20078e04

00089f2c <_read_r>:
   89f2c:	b570      	push	{r4, r5, r6, lr}
   89f2e:	4c08      	ldr	r4, [pc, #32]	; (89f50 <_read_r+0x24>)
   89f30:	4606      	mov	r6, r0
   89f32:	2500      	movs	r5, #0
   89f34:	4608      	mov	r0, r1
   89f36:	4611      	mov	r1, r2
   89f38:	461a      	mov	r2, r3
   89f3a:	6025      	str	r5, [r4, #0]
   89f3c:	f7f7 fa9e 	bl	8147c <_read>
   89f40:	1c43      	adds	r3, r0, #1
   89f42:	d000      	beq.n	89f46 <_read_r+0x1a>
   89f44:	bd70      	pop	{r4, r5, r6, pc}
   89f46:	6823      	ldr	r3, [r4, #0]
   89f48:	2b00      	cmp	r3, #0
   89f4a:	d0fb      	beq.n	89f44 <_read_r+0x18>
   89f4c:	6033      	str	r3, [r6, #0]
   89f4e:	bd70      	pop	{r4, r5, r6, pc}
   89f50:	20078e04 	.word	0x20078e04

00089f54 <__aeabi_uldivmod>:
   89f54:	b94b      	cbnz	r3, 89f6a <__aeabi_uldivmod+0x16>
   89f56:	b942      	cbnz	r2, 89f6a <__aeabi_uldivmod+0x16>
   89f58:	2900      	cmp	r1, #0
   89f5a:	bf08      	it	eq
   89f5c:	2800      	cmpeq	r0, #0
   89f5e:	d002      	beq.n	89f66 <__aeabi_uldivmod+0x12>
   89f60:	f04f 31ff 	mov.w	r1, #4294967295
   89f64:	4608      	mov	r0, r1
   89f66:	f000 b83b 	b.w	89fe0 <__aeabi_idiv0>
   89f6a:	b082      	sub	sp, #8
   89f6c:	46ec      	mov	ip, sp
   89f6e:	e92d 5000 	stmdb	sp!, {ip, lr}
   89f72:	f000 f81d 	bl	89fb0 <__gnu_uldivmod_helper>
   89f76:	f8dd e004 	ldr.w	lr, [sp, #4]
   89f7a:	b002      	add	sp, #8
   89f7c:	bc0c      	pop	{r2, r3}
   89f7e:	4770      	bx	lr

00089f80 <__gnu_ldivmod_helper>:
   89f80:	e92d 4f70 	stmdb	sp!, {r4, r5, r6, r8, r9, sl, fp, lr}
   89f84:	9e08      	ldr	r6, [sp, #32]
   89f86:	4614      	mov	r4, r2
   89f88:	461d      	mov	r5, r3
   89f8a:	4680      	mov	r8, r0
   89f8c:	4689      	mov	r9, r1
   89f8e:	f000 f829 	bl	89fe4 <__divdi3>
   89f92:	fb04 f301 	mul.w	r3, r4, r1
   89f96:	fba4 ab00 	umull	sl, fp, r4, r0
   89f9a:	fb00 3205 	mla	r2, r0, r5, r3
   89f9e:	4493      	add	fp, r2
   89fa0:	ebb8 080a 	subs.w	r8, r8, sl
   89fa4:	eb69 090b 	sbc.w	r9, r9, fp
   89fa8:	e9c6 8900 	strd	r8, r9, [r6]
   89fac:	e8bd 8f70 	ldmia.w	sp!, {r4, r5, r6, r8, r9, sl, fp, pc}

00089fb0 <__gnu_uldivmod_helper>:
   89fb0:	e92d 4f70 	stmdb	sp!, {r4, r5, r6, r8, r9, sl, fp, lr}
   89fb4:	9e08      	ldr	r6, [sp, #32]
   89fb6:	4614      	mov	r4, r2
   89fb8:	461d      	mov	r5, r3
   89fba:	4680      	mov	r8, r0
   89fbc:	4689      	mov	r9, r1
   89fbe:	f000 f961 	bl	8a284 <__udivdi3>
   89fc2:	fb00 f505 	mul.w	r5, r0, r5
   89fc6:	fba0 ab04 	umull	sl, fp, r0, r4
   89fca:	fb04 5401 	mla	r4, r4, r1, r5
   89fce:	44a3      	add	fp, r4
   89fd0:	ebb8 080a 	subs.w	r8, r8, sl
   89fd4:	eb69 090b 	sbc.w	r9, r9, fp
   89fd8:	e9c6 8900 	strd	r8, r9, [r6]
   89fdc:	e8bd 8f70 	ldmia.w	sp!, {r4, r5, r6, r8, r9, sl, fp, pc}

00089fe0 <__aeabi_idiv0>:
   89fe0:	4770      	bx	lr
   89fe2:	bf00      	nop

00089fe4 <__divdi3>:
   89fe4:	2900      	cmp	r1, #0
   89fe6:	e92d 0ff0 	stmdb	sp!, {r4, r5, r6, r7, r8, r9, sl, fp}
   89fea:	f2c0 80a1 	blt.w	8a130 <__divdi3+0x14c>
   89fee:	2400      	movs	r4, #0
   89ff0:	2b00      	cmp	r3, #0
   89ff2:	f2c0 8098 	blt.w	8a126 <__divdi3+0x142>
   89ff6:	4615      	mov	r5, r2
   89ff8:	4606      	mov	r6, r0
   89ffa:	460f      	mov	r7, r1
   89ffc:	2b00      	cmp	r3, #0
   89ffe:	d13f      	bne.n	8a080 <__divdi3+0x9c>
   8a000:	428a      	cmp	r2, r1
   8a002:	d958      	bls.n	8a0b6 <__divdi3+0xd2>
   8a004:	fab2 f382 	clz	r3, r2
   8a008:	b14b      	cbz	r3, 8a01e <__divdi3+0x3a>
   8a00a:	f1c3 0220 	rsb	r2, r3, #32
   8a00e:	fa01 f703 	lsl.w	r7, r1, r3
   8a012:	fa20 f202 	lsr.w	r2, r0, r2
   8a016:	409d      	lsls	r5, r3
   8a018:	fa00 f603 	lsl.w	r6, r0, r3
   8a01c:	4317      	orrs	r7, r2
   8a01e:	0c29      	lsrs	r1, r5, #16
   8a020:	fbb7 f2f1 	udiv	r2, r7, r1
   8a024:	fb01 7712 	mls	r7, r1, r2, r7
   8a028:	b2a8      	uxth	r0, r5
   8a02a:	fb00 f302 	mul.w	r3, r0, r2
   8a02e:	ea4f 4c16 	mov.w	ip, r6, lsr #16
   8a032:	ea4c 4707 	orr.w	r7, ip, r7, lsl #16
   8a036:	42bb      	cmp	r3, r7
   8a038:	d909      	bls.n	8a04e <__divdi3+0x6a>
   8a03a:	197f      	adds	r7, r7, r5
   8a03c:	f102 3cff 	add.w	ip, r2, #4294967295
   8a040:	f080 8105 	bcs.w	8a24e <__divdi3+0x26a>
   8a044:	42bb      	cmp	r3, r7
   8a046:	f240 8102 	bls.w	8a24e <__divdi3+0x26a>
   8a04a:	3a02      	subs	r2, #2
   8a04c:	442f      	add	r7, r5
   8a04e:	1aff      	subs	r7, r7, r3
   8a050:	fbb7 f3f1 	udiv	r3, r7, r1
   8a054:	fb01 7113 	mls	r1, r1, r3, r7
   8a058:	fb00 f003 	mul.w	r0, r0, r3
   8a05c:	b2b6      	uxth	r6, r6
   8a05e:	ea46 4101 	orr.w	r1, r6, r1, lsl #16
   8a062:	4288      	cmp	r0, r1
   8a064:	d908      	bls.n	8a078 <__divdi3+0x94>
   8a066:	1949      	adds	r1, r1, r5
   8a068:	f103 37ff 	add.w	r7, r3, #4294967295
   8a06c:	f080 80f1 	bcs.w	8a252 <__divdi3+0x26e>
   8a070:	4288      	cmp	r0, r1
   8a072:	f240 80ee 	bls.w	8a252 <__divdi3+0x26e>
   8a076:	3b02      	subs	r3, #2
   8a078:	ea43 4202 	orr.w	r2, r3, r2, lsl #16
   8a07c:	2300      	movs	r3, #0
   8a07e:	e003      	b.n	8a088 <__divdi3+0xa4>
   8a080:	428b      	cmp	r3, r1
   8a082:	d90a      	bls.n	8a09a <__divdi3+0xb6>
   8a084:	2300      	movs	r3, #0
   8a086:	461a      	mov	r2, r3
   8a088:	4610      	mov	r0, r2
   8a08a:	4619      	mov	r1, r3
   8a08c:	b114      	cbz	r4, 8a094 <__divdi3+0xb0>
   8a08e:	4240      	negs	r0, r0
   8a090:	eb61 0141 	sbc.w	r1, r1, r1, lsl #1
   8a094:	e8bd 0ff0 	ldmia.w	sp!, {r4, r5, r6, r7, r8, r9, sl, fp}
   8a098:	4770      	bx	lr
   8a09a:	fab3 f883 	clz	r8, r3
   8a09e:	f1b8 0f00 	cmp.w	r8, #0
   8a0a2:	f040 8088 	bne.w	8a1b6 <__divdi3+0x1d2>
   8a0a6:	428b      	cmp	r3, r1
   8a0a8:	d302      	bcc.n	8a0b0 <__divdi3+0xcc>
   8a0aa:	4282      	cmp	r2, r0
   8a0ac:	f200 80e2 	bhi.w	8a274 <__divdi3+0x290>
   8a0b0:	2300      	movs	r3, #0
   8a0b2:	2201      	movs	r2, #1
   8a0b4:	e7e8      	b.n	8a088 <__divdi3+0xa4>
   8a0b6:	b912      	cbnz	r2, 8a0be <__divdi3+0xda>
   8a0b8:	2301      	movs	r3, #1
   8a0ba:	fbb3 f5f2 	udiv	r5, r3, r2
   8a0be:	fab5 f285 	clz	r2, r5
   8a0c2:	2a00      	cmp	r2, #0
   8a0c4:	d13a      	bne.n	8a13c <__divdi3+0x158>
   8a0c6:	1b7f      	subs	r7, r7, r5
   8a0c8:	0c28      	lsrs	r0, r5, #16
   8a0ca:	fa1f fc85 	uxth.w	ip, r5
   8a0ce:	2301      	movs	r3, #1
   8a0d0:	fbb7 f1f0 	udiv	r1, r7, r0
   8a0d4:	fb00 7711 	mls	r7, r0, r1, r7
   8a0d8:	fb0c f201 	mul.w	r2, ip, r1
   8a0dc:	ea4f 4816 	mov.w	r8, r6, lsr #16
   8a0e0:	ea48 4707 	orr.w	r7, r8, r7, lsl #16
   8a0e4:	42ba      	cmp	r2, r7
   8a0e6:	d907      	bls.n	8a0f8 <__divdi3+0x114>
   8a0e8:	197f      	adds	r7, r7, r5
   8a0ea:	f101 38ff 	add.w	r8, r1, #4294967295
   8a0ee:	d202      	bcs.n	8a0f6 <__divdi3+0x112>
   8a0f0:	42ba      	cmp	r2, r7
   8a0f2:	f200 80c4 	bhi.w	8a27e <__divdi3+0x29a>
   8a0f6:	4641      	mov	r1, r8
   8a0f8:	1abf      	subs	r7, r7, r2
   8a0fa:	fbb7 f2f0 	udiv	r2, r7, r0
   8a0fe:	fb00 7012 	mls	r0, r0, r2, r7
   8a102:	fb0c fc02 	mul.w	ip, ip, r2
   8a106:	b2b6      	uxth	r6, r6
   8a108:	ea46 4000 	orr.w	r0, r6, r0, lsl #16
   8a10c:	4584      	cmp	ip, r0
   8a10e:	d907      	bls.n	8a120 <__divdi3+0x13c>
   8a110:	1940      	adds	r0, r0, r5
   8a112:	f102 37ff 	add.w	r7, r2, #4294967295
   8a116:	d202      	bcs.n	8a11e <__divdi3+0x13a>
   8a118:	4584      	cmp	ip, r0
   8a11a:	f200 80ae 	bhi.w	8a27a <__divdi3+0x296>
   8a11e:	463a      	mov	r2, r7
   8a120:	ea42 4201 	orr.w	r2, r2, r1, lsl #16
   8a124:	e7b0      	b.n	8a088 <__divdi3+0xa4>
   8a126:	43e4      	mvns	r4, r4
   8a128:	4252      	negs	r2, r2
   8a12a:	eb63 0343 	sbc.w	r3, r3, r3, lsl #1
   8a12e:	e762      	b.n	89ff6 <__divdi3+0x12>
   8a130:	4240      	negs	r0, r0
   8a132:	eb61 0141 	sbc.w	r1, r1, r1, lsl #1
   8a136:	f04f 34ff 	mov.w	r4, #4294967295
   8a13a:	e759      	b.n	89ff0 <__divdi3+0xc>
   8a13c:	4095      	lsls	r5, r2
   8a13e:	f1c2 0920 	rsb	r9, r2, #32
   8a142:	fa27 f109 	lsr.w	r1, r7, r9
   8a146:	fa26 f909 	lsr.w	r9, r6, r9
   8a14a:	4097      	lsls	r7, r2
   8a14c:	0c28      	lsrs	r0, r5, #16
   8a14e:	fbb1 f8f0 	udiv	r8, r1, r0
   8a152:	fb00 1118 	mls	r1, r0, r8, r1
   8a156:	fa1f fc85 	uxth.w	ip, r5
   8a15a:	fb0c f308 	mul.w	r3, ip, r8
   8a15e:	ea49 0907 	orr.w	r9, r9, r7
   8a162:	ea4f 4719 	mov.w	r7, r9, lsr #16
   8a166:	ea47 4101 	orr.w	r1, r7, r1, lsl #16
   8a16a:	428b      	cmp	r3, r1
   8a16c:	fa06 f602 	lsl.w	r6, r6, r2
   8a170:	d908      	bls.n	8a184 <__divdi3+0x1a0>
   8a172:	1949      	adds	r1, r1, r5
   8a174:	f108 32ff 	add.w	r2, r8, #4294967295
   8a178:	d27a      	bcs.n	8a270 <__divdi3+0x28c>
   8a17a:	428b      	cmp	r3, r1
   8a17c:	d978      	bls.n	8a270 <__divdi3+0x28c>
   8a17e:	f1a8 0802 	sub.w	r8, r8, #2
   8a182:	4429      	add	r1, r5
   8a184:	1ac9      	subs	r1, r1, r3
   8a186:	fbb1 f3f0 	udiv	r3, r1, r0
   8a18a:	fb00 1713 	mls	r7, r0, r3, r1
   8a18e:	fb0c f203 	mul.w	r2, ip, r3
   8a192:	fa1f f989 	uxth.w	r9, r9
   8a196:	ea49 4707 	orr.w	r7, r9, r7, lsl #16
   8a19a:	42ba      	cmp	r2, r7
   8a19c:	d907      	bls.n	8a1ae <__divdi3+0x1ca>
   8a19e:	197f      	adds	r7, r7, r5
   8a1a0:	f103 31ff 	add.w	r1, r3, #4294967295
   8a1a4:	d260      	bcs.n	8a268 <__divdi3+0x284>
   8a1a6:	42ba      	cmp	r2, r7
   8a1a8:	d95e      	bls.n	8a268 <__divdi3+0x284>
   8a1aa:	3b02      	subs	r3, #2
   8a1ac:	442f      	add	r7, r5
   8a1ae:	1abf      	subs	r7, r7, r2
   8a1b0:	ea43 4308 	orr.w	r3, r3, r8, lsl #16
   8a1b4:	e78c      	b.n	8a0d0 <__divdi3+0xec>
   8a1b6:	f1c8 0220 	rsb	r2, r8, #32
   8a1ba:	fa25 f102 	lsr.w	r1, r5, r2
   8a1be:	fa03 fc08 	lsl.w	ip, r3, r8
   8a1c2:	fa27 f302 	lsr.w	r3, r7, r2
   8a1c6:	fa20 f202 	lsr.w	r2, r0, r2
   8a1ca:	fa07 f708 	lsl.w	r7, r7, r8
   8a1ce:	ea41 0c0c 	orr.w	ip, r1, ip
   8a1d2:	ea4f 491c 	mov.w	r9, ip, lsr #16
   8a1d6:	fbb3 f1f9 	udiv	r1, r3, r9
   8a1da:	fb09 3311 	mls	r3, r9, r1, r3
   8a1de:	fa1f fa8c 	uxth.w	sl, ip
   8a1e2:	fb0a fb01 	mul.w	fp, sl, r1
   8a1e6:	4317      	orrs	r7, r2
   8a1e8:	0c3a      	lsrs	r2, r7, #16
   8a1ea:	ea42 4303 	orr.w	r3, r2, r3, lsl #16
   8a1ee:	459b      	cmp	fp, r3
   8a1f0:	fa05 f008 	lsl.w	r0, r5, r8
   8a1f4:	d908      	bls.n	8a208 <__divdi3+0x224>
   8a1f6:	eb13 030c 	adds.w	r3, r3, ip
   8a1fa:	f101 32ff 	add.w	r2, r1, #4294967295
   8a1fe:	d235      	bcs.n	8a26c <__divdi3+0x288>
   8a200:	459b      	cmp	fp, r3
   8a202:	d933      	bls.n	8a26c <__divdi3+0x288>
   8a204:	3902      	subs	r1, #2
   8a206:	4463      	add	r3, ip
   8a208:	ebcb 0303 	rsb	r3, fp, r3
   8a20c:	fbb3 f2f9 	udiv	r2, r3, r9
   8a210:	fb09 3312 	mls	r3, r9, r2, r3
   8a214:	fb0a fa02 	mul.w	sl, sl, r2
   8a218:	b2bf      	uxth	r7, r7
   8a21a:	ea47 4703 	orr.w	r7, r7, r3, lsl #16
   8a21e:	45ba      	cmp	sl, r7
   8a220:	d908      	bls.n	8a234 <__divdi3+0x250>
   8a222:	eb17 070c 	adds.w	r7, r7, ip
   8a226:	f102 33ff 	add.w	r3, r2, #4294967295
   8a22a:	d21b      	bcs.n	8a264 <__divdi3+0x280>
   8a22c:	45ba      	cmp	sl, r7
   8a22e:	d919      	bls.n	8a264 <__divdi3+0x280>
   8a230:	3a02      	subs	r2, #2
   8a232:	4467      	add	r7, ip
   8a234:	ea42 4501 	orr.w	r5, r2, r1, lsl #16
   8a238:	fba5 0100 	umull	r0, r1, r5, r0
   8a23c:	ebca 0707 	rsb	r7, sl, r7
   8a240:	428f      	cmp	r7, r1
   8a242:	f04f 0300 	mov.w	r3, #0
   8a246:	d30a      	bcc.n	8a25e <__divdi3+0x27a>
   8a248:	d005      	beq.n	8a256 <__divdi3+0x272>
   8a24a:	462a      	mov	r2, r5
   8a24c:	e71c      	b.n	8a088 <__divdi3+0xa4>
   8a24e:	4662      	mov	r2, ip
   8a250:	e6fd      	b.n	8a04e <__divdi3+0x6a>
   8a252:	463b      	mov	r3, r7
   8a254:	e710      	b.n	8a078 <__divdi3+0x94>
   8a256:	fa06 f608 	lsl.w	r6, r6, r8
   8a25a:	4286      	cmp	r6, r0
   8a25c:	d2f5      	bcs.n	8a24a <__divdi3+0x266>
   8a25e:	1e6a      	subs	r2, r5, #1
   8a260:	2300      	movs	r3, #0
   8a262:	e711      	b.n	8a088 <__divdi3+0xa4>
   8a264:	461a      	mov	r2, r3
   8a266:	e7e5      	b.n	8a234 <__divdi3+0x250>
   8a268:	460b      	mov	r3, r1
   8a26a:	e7a0      	b.n	8a1ae <__divdi3+0x1ca>
   8a26c:	4611      	mov	r1, r2
   8a26e:	e7cb      	b.n	8a208 <__divdi3+0x224>
   8a270:	4690      	mov	r8, r2
   8a272:	e787      	b.n	8a184 <__divdi3+0x1a0>
   8a274:	4643      	mov	r3, r8
   8a276:	4642      	mov	r2, r8
   8a278:	e706      	b.n	8a088 <__divdi3+0xa4>
   8a27a:	3a02      	subs	r2, #2
   8a27c:	e750      	b.n	8a120 <__divdi3+0x13c>
   8a27e:	3902      	subs	r1, #2
   8a280:	442f      	add	r7, r5
   8a282:	e739      	b.n	8a0f8 <__divdi3+0x114>

0008a284 <__udivdi3>:
   8a284:	e92d 0ff0 	stmdb	sp!, {r4, r5, r6, r7, r8, r9, sl, fp}
   8a288:	4614      	mov	r4, r2
   8a28a:	4605      	mov	r5, r0
   8a28c:	460e      	mov	r6, r1
   8a28e:	2b00      	cmp	r3, #0
   8a290:	d143      	bne.n	8a31a <__udivdi3+0x96>
   8a292:	428a      	cmp	r2, r1
   8a294:	d953      	bls.n	8a33e <__udivdi3+0xba>
   8a296:	fab2 f782 	clz	r7, r2
   8a29a:	b157      	cbz	r7, 8a2b2 <__udivdi3+0x2e>
   8a29c:	f1c7 0620 	rsb	r6, r7, #32
   8a2a0:	fa20 f606 	lsr.w	r6, r0, r6
   8a2a4:	fa01 f307 	lsl.w	r3, r1, r7
   8a2a8:	fa02 f407 	lsl.w	r4, r2, r7
   8a2ac:	fa00 f507 	lsl.w	r5, r0, r7
   8a2b0:	431e      	orrs	r6, r3
   8a2b2:	0c21      	lsrs	r1, r4, #16
   8a2b4:	fbb6 f2f1 	udiv	r2, r6, r1
   8a2b8:	fb01 6612 	mls	r6, r1, r2, r6
   8a2bc:	b2a0      	uxth	r0, r4
   8a2be:	fb00 f302 	mul.w	r3, r0, r2
   8a2c2:	0c2f      	lsrs	r7, r5, #16
   8a2c4:	ea47 4606 	orr.w	r6, r7, r6, lsl #16
   8a2c8:	42b3      	cmp	r3, r6
   8a2ca:	d909      	bls.n	8a2e0 <__udivdi3+0x5c>
   8a2cc:	1936      	adds	r6, r6, r4
   8a2ce:	f102 37ff 	add.w	r7, r2, #4294967295
   8a2d2:	f080 80fd 	bcs.w	8a4d0 <__udivdi3+0x24c>
   8a2d6:	42b3      	cmp	r3, r6
   8a2d8:	f240 80fa 	bls.w	8a4d0 <__udivdi3+0x24c>
   8a2dc:	3a02      	subs	r2, #2
   8a2de:	4426      	add	r6, r4
   8a2e0:	1af6      	subs	r6, r6, r3
   8a2e2:	fbb6 f3f1 	udiv	r3, r6, r1
   8a2e6:	fb01 6113 	mls	r1, r1, r3, r6
   8a2ea:	fb00 f003 	mul.w	r0, r0, r3
   8a2ee:	b2ad      	uxth	r5, r5
   8a2f0:	ea45 4101 	orr.w	r1, r5, r1, lsl #16
   8a2f4:	4288      	cmp	r0, r1
   8a2f6:	d908      	bls.n	8a30a <__udivdi3+0x86>
   8a2f8:	1909      	adds	r1, r1, r4
   8a2fa:	f103 36ff 	add.w	r6, r3, #4294967295
   8a2fe:	f080 80e9 	bcs.w	8a4d4 <__udivdi3+0x250>
   8a302:	4288      	cmp	r0, r1
   8a304:	f240 80e6 	bls.w	8a4d4 <__udivdi3+0x250>
   8a308:	3b02      	subs	r3, #2
   8a30a:	ea43 4202 	orr.w	r2, r3, r2, lsl #16
   8a30e:	2300      	movs	r3, #0
   8a310:	4610      	mov	r0, r2
   8a312:	4619      	mov	r1, r3
   8a314:	e8bd 0ff0 	ldmia.w	sp!, {r4, r5, r6, r7, r8, r9, sl, fp}
   8a318:	4770      	bx	lr
   8a31a:	428b      	cmp	r3, r1
   8a31c:	d84c      	bhi.n	8a3b8 <__udivdi3+0x134>
   8a31e:	fab3 f683 	clz	r6, r3
   8a322:	2e00      	cmp	r6, #0
   8a324:	d14f      	bne.n	8a3c6 <__udivdi3+0x142>
   8a326:	428b      	cmp	r3, r1
   8a328:	d302      	bcc.n	8a330 <__udivdi3+0xac>
   8a32a:	4282      	cmp	r2, r0
   8a32c:	f200 80dd 	bhi.w	8a4ea <__udivdi3+0x266>
   8a330:	e8bd 0ff0 	ldmia.w	sp!, {r4, r5, r6, r7, r8, r9, sl, fp}
   8a334:	2300      	movs	r3, #0
   8a336:	2201      	movs	r2, #1
   8a338:	4610      	mov	r0, r2
   8a33a:	4619      	mov	r1, r3
   8a33c:	4770      	bx	lr
   8a33e:	b912      	cbnz	r2, 8a346 <__udivdi3+0xc2>
   8a340:	2401      	movs	r4, #1
   8a342:	fbb4 f4f2 	udiv	r4, r4, r2
   8a346:	fab4 f284 	clz	r2, r4
   8a34a:	2a00      	cmp	r2, #0
   8a34c:	f040 8082 	bne.w	8a454 <__udivdi3+0x1d0>
   8a350:	1b09      	subs	r1, r1, r4
   8a352:	0c26      	lsrs	r6, r4, #16
   8a354:	b2a7      	uxth	r7, r4
   8a356:	2301      	movs	r3, #1
   8a358:	fbb1 f0f6 	udiv	r0, r1, r6
   8a35c:	fb06 1110 	mls	r1, r6, r0, r1
   8a360:	fb07 f200 	mul.w	r2, r7, r0
   8a364:	ea4f 4c15 	mov.w	ip, r5, lsr #16
   8a368:	ea4c 4101 	orr.w	r1, ip, r1, lsl #16
   8a36c:	428a      	cmp	r2, r1
   8a36e:	d907      	bls.n	8a380 <__udivdi3+0xfc>
   8a370:	1909      	adds	r1, r1, r4
   8a372:	f100 3cff 	add.w	ip, r0, #4294967295
   8a376:	d202      	bcs.n	8a37e <__udivdi3+0xfa>
   8a378:	428a      	cmp	r2, r1
   8a37a:	f200 80c8 	bhi.w	8a50e <__udivdi3+0x28a>
   8a37e:	4660      	mov	r0, ip
   8a380:	1a89      	subs	r1, r1, r2
   8a382:	fbb1 f2f6 	udiv	r2, r1, r6
   8a386:	fb06 1112 	mls	r1, r6, r2, r1
   8a38a:	fb07 f702 	mul.w	r7, r7, r2
   8a38e:	b2ad      	uxth	r5, r5
   8a390:	ea45 4501 	orr.w	r5, r5, r1, lsl #16
   8a394:	42af      	cmp	r7, r5
   8a396:	d908      	bls.n	8a3aa <__udivdi3+0x126>
   8a398:	192c      	adds	r4, r5, r4
   8a39a:	f102 31ff 	add.w	r1, r2, #4294967295
   8a39e:	f080 809b 	bcs.w	8a4d8 <__udivdi3+0x254>
   8a3a2:	42a7      	cmp	r7, r4
   8a3a4:	f240 8098 	bls.w	8a4d8 <__udivdi3+0x254>
   8a3a8:	3a02      	subs	r2, #2
   8a3aa:	ea42 4200 	orr.w	r2, r2, r0, lsl #16
   8a3ae:	4610      	mov	r0, r2
   8a3b0:	4619      	mov	r1, r3
   8a3b2:	e8bd 0ff0 	ldmia.w	sp!, {r4, r5, r6, r7, r8, r9, sl, fp}
   8a3b6:	4770      	bx	lr
   8a3b8:	2300      	movs	r3, #0
   8a3ba:	461a      	mov	r2, r3
   8a3bc:	4610      	mov	r0, r2
   8a3be:	4619      	mov	r1, r3
   8a3c0:	e8bd 0ff0 	ldmia.w	sp!, {r4, r5, r6, r7, r8, r9, sl, fp}
   8a3c4:	4770      	bx	lr
   8a3c6:	f1c6 0520 	rsb	r5, r6, #32
   8a3ca:	fa22 f705 	lsr.w	r7, r2, r5
   8a3ce:	fa03 f406 	lsl.w	r4, r3, r6
   8a3d2:	fa21 f305 	lsr.w	r3, r1, r5
   8a3d6:	fa01 fb06 	lsl.w	fp, r1, r6
   8a3da:	fa20 f505 	lsr.w	r5, r0, r5
   8a3de:	433c      	orrs	r4, r7
   8a3e0:	ea4f 4814 	mov.w	r8, r4, lsr #16
   8a3e4:	fbb3 fcf8 	udiv	ip, r3, r8
   8a3e8:	fb08 331c 	mls	r3, r8, ip, r3
   8a3ec:	fa1f f984 	uxth.w	r9, r4
   8a3f0:	fb09 fa0c 	mul.w	sl, r9, ip
   8a3f4:	ea45 0b0b 	orr.w	fp, r5, fp
   8a3f8:	ea4f 451b 	mov.w	r5, fp, lsr #16
   8a3fc:	ea45 4303 	orr.w	r3, r5, r3, lsl #16
   8a400:	459a      	cmp	sl, r3
   8a402:	fa02 f206 	lsl.w	r2, r2, r6
   8a406:	d904      	bls.n	8a412 <__udivdi3+0x18e>
   8a408:	191b      	adds	r3, r3, r4
   8a40a:	f10c 35ff 	add.w	r5, ip, #4294967295
   8a40e:	d36f      	bcc.n	8a4f0 <__udivdi3+0x26c>
   8a410:	46ac      	mov	ip, r5
   8a412:	ebca 0303 	rsb	r3, sl, r3
   8a416:	fbb3 f5f8 	udiv	r5, r3, r8
   8a41a:	fb08 3315 	mls	r3, r8, r5, r3
   8a41e:	fb09 f905 	mul.w	r9, r9, r5
   8a422:	fa1f fb8b 	uxth.w	fp, fp
   8a426:	ea4b 4703 	orr.w	r7, fp, r3, lsl #16
   8a42a:	45b9      	cmp	r9, r7
   8a42c:	d904      	bls.n	8a438 <__udivdi3+0x1b4>
   8a42e:	193f      	adds	r7, r7, r4
   8a430:	f105 33ff 	add.w	r3, r5, #4294967295
   8a434:	d362      	bcc.n	8a4fc <__udivdi3+0x278>
   8a436:	461d      	mov	r5, r3
   8a438:	ea45 4c0c 	orr.w	ip, r5, ip, lsl #16
   8a43c:	fbac 2302 	umull	r2, r3, ip, r2
   8a440:	ebc9 0707 	rsb	r7, r9, r7
   8a444:	429f      	cmp	r7, r3
   8a446:	f04f 0500 	mov.w	r5, #0
   8a44a:	d34a      	bcc.n	8a4e2 <__udivdi3+0x25e>
   8a44c:	d046      	beq.n	8a4dc <__udivdi3+0x258>
   8a44e:	4662      	mov	r2, ip
   8a450:	462b      	mov	r3, r5
   8a452:	e75d      	b.n	8a310 <__udivdi3+0x8c>
   8a454:	4094      	lsls	r4, r2
   8a456:	f1c2 0920 	rsb	r9, r2, #32
   8a45a:	fa21 fc09 	lsr.w	ip, r1, r9
   8a45e:	4091      	lsls	r1, r2
   8a460:	fa20 f909 	lsr.w	r9, r0, r9
   8a464:	0c26      	lsrs	r6, r4, #16
   8a466:	fbbc f8f6 	udiv	r8, ip, r6
   8a46a:	fb06 cc18 	mls	ip, r6, r8, ip
   8a46e:	b2a7      	uxth	r7, r4
   8a470:	fb07 f308 	mul.w	r3, r7, r8
   8a474:	ea49 0901 	orr.w	r9, r9, r1
   8a478:	ea4f 4119 	mov.w	r1, r9, lsr #16
   8a47c:	ea41 4c0c 	orr.w	ip, r1, ip, lsl #16
   8a480:	4563      	cmp	r3, ip
   8a482:	fa00 f502 	lsl.w	r5, r0, r2
   8a486:	d909      	bls.n	8a49c <__udivdi3+0x218>
   8a488:	eb1c 0c04 	adds.w	ip, ip, r4
   8a48c:	f108 32ff 	add.w	r2, r8, #4294967295
   8a490:	d23b      	bcs.n	8a50a <__udivdi3+0x286>
   8a492:	4563      	cmp	r3, ip
   8a494:	d939      	bls.n	8a50a <__udivdi3+0x286>
   8a496:	f1a8 0802 	sub.w	r8, r8, #2
   8a49a:	44a4      	add	ip, r4
   8a49c:	ebc3 0c0c 	rsb	ip, r3, ip
   8a4a0:	fbbc f3f6 	udiv	r3, ip, r6
   8a4a4:	fb06 c113 	mls	r1, r6, r3, ip
   8a4a8:	fb07 f203 	mul.w	r2, r7, r3
   8a4ac:	fa1f f989 	uxth.w	r9, r9
   8a4b0:	ea49 4101 	orr.w	r1, r9, r1, lsl #16
   8a4b4:	428a      	cmp	r2, r1
   8a4b6:	d907      	bls.n	8a4c8 <__udivdi3+0x244>
   8a4b8:	1909      	adds	r1, r1, r4
   8a4ba:	f103 30ff 	add.w	r0, r3, #4294967295
   8a4be:	d222      	bcs.n	8a506 <__udivdi3+0x282>
   8a4c0:	428a      	cmp	r2, r1
   8a4c2:	d920      	bls.n	8a506 <__udivdi3+0x282>
   8a4c4:	3b02      	subs	r3, #2
   8a4c6:	4421      	add	r1, r4
   8a4c8:	1a89      	subs	r1, r1, r2
   8a4ca:	ea43 4308 	orr.w	r3, r3, r8, lsl #16
   8a4ce:	e743      	b.n	8a358 <__udivdi3+0xd4>
   8a4d0:	463a      	mov	r2, r7
   8a4d2:	e705      	b.n	8a2e0 <__udivdi3+0x5c>
   8a4d4:	4633      	mov	r3, r6
   8a4d6:	e718      	b.n	8a30a <__udivdi3+0x86>
   8a4d8:	460a      	mov	r2, r1
   8a4da:	e766      	b.n	8a3aa <__udivdi3+0x126>
   8a4dc:	40b0      	lsls	r0, r6
   8a4de:	4290      	cmp	r0, r2
   8a4e0:	d2b5      	bcs.n	8a44e <__udivdi3+0x1ca>
   8a4e2:	f10c 32ff 	add.w	r2, ip, #4294967295
   8a4e6:	2300      	movs	r3, #0
   8a4e8:	e712      	b.n	8a310 <__udivdi3+0x8c>
   8a4ea:	4633      	mov	r3, r6
   8a4ec:	4632      	mov	r2, r6
   8a4ee:	e70f      	b.n	8a310 <__udivdi3+0x8c>
   8a4f0:	459a      	cmp	sl, r3
   8a4f2:	d98d      	bls.n	8a410 <__udivdi3+0x18c>
   8a4f4:	f1ac 0c02 	sub.w	ip, ip, #2
   8a4f8:	4423      	add	r3, r4
   8a4fa:	e78a      	b.n	8a412 <__udivdi3+0x18e>
   8a4fc:	45b9      	cmp	r9, r7
   8a4fe:	d99a      	bls.n	8a436 <__udivdi3+0x1b2>
   8a500:	3d02      	subs	r5, #2
   8a502:	4427      	add	r7, r4
   8a504:	e798      	b.n	8a438 <__udivdi3+0x1b4>
   8a506:	4603      	mov	r3, r0
   8a508:	e7de      	b.n	8a4c8 <__udivdi3+0x244>
   8a50a:	4690      	mov	r8, r2
   8a50c:	e7c6      	b.n	8a49c <__udivdi3+0x218>
   8a50e:	3802      	subs	r0, #2
   8a510:	4421      	add	r1, r4
   8a512:	e735      	b.n	8a380 <__udivdi3+0xfc>
   8a514:	20495754 	.word	0x20495754
   8a518:	2056414e 	.word	0x2056414e
   8a51c:	00004b4f 	.word	0x00004b4f
   8a520:	20495754 	.word	0x20495754
   8a524:	20424150 	.word	0x20424150
   8a528:	00004b4f 	.word	0x00004b4f
   8a52c:	73206e69 	.word	0x73206e69
   8a530:	0a646e65 	.word	0x0a646e65
   8a534:	00000000 	.word	0x00000000
   8a538:	2056414e 	.word	0x2056414e
   8a53c:	4b434150 	.word	0x4b434150
   8a540:	00000000 	.word	0x00000000
   8a544:	49595254 	.word	0x49595254
   8a548:	5420474e 	.word	0x5420474e
   8a54c:	4553204f 	.word	0x4553204f
   8a550:	000a444e 	.word	0x000a444e
   8a554:	656e6f64 	.word	0x656e6f64
   8a558:	6e657320 	.word	0x6e657320
   8a55c:	676e6964 	.word	0x676e6964
   8a560:	76616e20 	.word	0x76616e20
   8a564:	0000000a 	.word	0x0000000a
   8a568:	20424150 	.word	0x20424150
   8a56c:	4b434150 	.word	0x4b434150
   8a570:	00000030 	.word	0x00000030
   8a574:	656e6f64 	.word	0x656e6f64
   8a578:	6e657320 	.word	0x6e657320
   8a57c:	676e6964 	.word	0x676e6964
   8a580:	62617020 	.word	0x62617020
   8a584:	0000000a 	.word	0x0000000a
   8a588:	72617453 	.word	0x72617453
   8a58c:	666f2074 	.word	0x666f2074
   8a590:	63657220 	.word	0x63657220
   8a594:	65766965 	.word	0x65766965
   8a598:	0000000a 	.word	0x0000000a
   8a59c:	69595254 	.word	0x69595254
   8a5a0:	7420676e 	.word	0x7420676e
   8a5a4:	6572206f 	.word	0x6572206f
   8a5a8:	76696563 	.word	0x76696563
   8a5ac:	616e2065 	.word	0x616e2065
   8a5b0:	00000076 	.word	0x00000076
   8a5b4:	656e6f64 	.word	0x656e6f64
   8a5b8:	6e657320 	.word	0x6e657320
   8a5bc:	676e6964 	.word	0x676e6964
   8a5c0:	00000000 	.word	0x00000000
   8a5c4:	69595254 	.word	0x69595254
   8a5c8:	7420676e 	.word	0x7420676e
   8a5cc:	6572206f 	.word	0x6572206f
   8a5d0:	76696563 	.word	0x76696563
   8a5d4:	61502065 	.word	0x61502065
   8a5d8:	00000000 	.word	0x00000000
   8a5dc:	6c61430a 	.word	0x6c61430a
   8a5e0:	203d2063 	.word	0x203d2063
   8a5e4:	00006425 	.word	0x00006425
   8a5e8:	6c6c6548 	.word	0x6c6c6548
   8a5ec:	00003f6f 	.word	0x00003f6f
   8a5f0:	6e69500a 	.word	0x6e69500a
   8a5f4:	4b4f2073 	.word	0x4b4f2073
   8a5f8:	00000000 	.word	0x00000000
   8a5fc:	696e490a 	.word	0x696e490a
   8a600:	6e695f74 	.word	0x6e695f74
   8a604:	72726574 	.word	0x72726574
   8a608:	20747075 	.word	0x20747075
   8a60c:	00006b6f 	.word	0x00006b6f
   8a610:	7261540a 	.word	0x7261540a
   8a614:	20746567 	.word	0x20746567
   8a618:	74736944 	.word	0x74736944
   8a61c:	65636e61 	.word	0x65636e61
   8a620:	6425203a 	.word	0x6425203a
   8a624:	00000000 	.word	0x00000000
   8a628:	6c65460a 	.word	0x6c65460a
   8a62c:	6472e476 	.word	0x6472e476
   8a630:	25203a65 	.word	0x25203a65
   8a634:	00000064 	.word	0x00000064
   8a638:	6972640a 	.word	0x6972640a
   8a63c:	6f436576 	.word	0x6f436576
   8a640:	20746e75 	.word	0x20746e75
   8a644:	6425203d 	.word	0x6425203d
   8a648:	00000000 	.word	0x00000000
   8a64c:	7269440a 	.word	0x7269440a
   8a650:	69746365 	.word	0x69746365
   8a654:	203a6e6f 	.word	0x203a6e6f
   8a658:	00006425 	.word	0x00006425
   8a65c:	7269640a 	.word	0x7269640a
   8a660:	5f746365 	.word	0x5f746365
   8a664:	6c676e61 	.word	0x6c676e61
   8a668:	25203a65 	.word	0x25203a65
   8a66c:	00000064 	.word	0x00000064
   8a670:	756f630a 	.word	0x756f630a
   8a674:	6e20746e 	.word	0x6e20746e
   8a678:	006c6c75 	.word	0x006c6c75
   8a67c:	635f720a 	.word	0x635f720a
   8a680:	746e756f 	.word	0x746e756f
   8a684:	25203d20 	.word	0x25203d20
   8a688:	00000064 	.word	0x00000064
   8a68c:	756f630a 	.word	0x756f630a
   8a690:	725f746e 	.word	0x725f746e
   8a694:	74686769 	.word	0x74686769
   8a698:	25203d20 	.word	0x25203d20
   8a69c:	00000064 	.word	0x00000064
   8a6a0:	635f6c0a 	.word	0x635f6c0a
   8a6a4:	746e756f 	.word	0x746e756f
   8a6a8:	25203d20 	.word	0x25203d20
   8a6ac:	00000064 	.word	0x00000064
   8a6b0:	756f630a 	.word	0x756f630a
   8a6b4:	6c5f746e 	.word	0x6c5f746e
   8a6b8:	20746665 	.word	0x20746665
   8a6bc:	6425203d 	.word	0x6425203d
   8a6c0:	00000000 	.word	0x00000000
   8a6c4:	756f430a 	.word	0x756f430a
   8a6c8:	7265746e 	.word	0x7265746e
   8a6cc:	25203d20 	.word	0x25203d20
   8a6d0:	00000064 	.word	0x00000064
   8a6d4:	7275540a 	.word	0x7275540a
   8a6d8:	656c206e 	.word	0x656c206e
   8a6dc:	00007466 	.word	0x00007466
   8a6e0:	7275540a 	.word	0x7275540a
   8a6e4:	6972206e 	.word	0x6972206e
   8a6e8:	00746867 	.word	0x00746867
   8a6ec:	7275540a 	.word	0x7275540a
   8a6f0:	7261206e 	.word	0x7261206e
   8a6f4:	646e756f 	.word	0x646e756f
   8a6f8:	00000000 	.word	0x00000000
   8a6fc:	206e4f0a 	.word	0x206e4f0a
   8a700:	67726174 	.word	0x67726174
   8a704:	00007465 	.word	0x00007465
   8a708:	7272450a 	.word	0x7272450a
   8a70c:	0000726f 	.word	0x0000726f
   8a710:	7275630a 	.word	0x7275630a
   8a714:	746e6572 	.word	0x746e6572
   8a718:	3d317820 	.word	0x3d317820
   8a71c:	79206425 	.word	0x79206425
   8a720:	64253d31 	.word	0x64253d31
   8a724:	00000000 	.word	0x00000000
   8a728:	7275630a 	.word	0x7275630a
   8a72c:	746e6572 	.word	0x746e6572
   8a730:	3d327820 	.word	0x3d327820
   8a734:	79206425 	.word	0x79206425
   8a738:	64253d32 	.word	0x64253d32
   8a73c:	00000000 	.word	0x00000000
   8a740:	7361540a 	.word	0x7361540a
   8a744:	6c55206b 	.word	0x6c55206b
   8a748:	6c617274 	.word	0x6c617274
   8a74c:	0064756a 	.word	0x0064756a
   8a750:	5952540a 	.word	0x5952540a
   8a754:	20474e49 	.word	0x20474e49
   8a758:	53204f54 	.word	0x53204f54
   8a75c:	20444e45 	.word	0x20444e45
   8a760:	50204f54 	.word	0x50204f54
   8a764:	00000041 	.word	0x00000041
   8a768:	7465470a 	.word	0x7465470a
   8a76c:	61747320 	.word	0x61747320
   8a770:	64207472 	.word	0x64207472
   8a774:	00617461 	.word	0x00617461
   8a778:	6174530a 	.word	0x6174530a
   8a77c:	64207472 	.word	0x64207472
   8a780:	2e617461 	.word	0x2e617461
   8a784:	253d7820 	.word	0x253d7820
   8a788:	3d792064 	.word	0x3d792064
   8a78c:	00006425 	.word	0x00006425
   8a790:	7275540a 	.word	0x7275540a
   8a794:	6f74206e 	.word	0x6f74206e
   8a798:	75717320 	.word	0x75717320
   8a79c:	00657261 	.word	0x00657261
   8a7a0:	7261540a 	.word	0x7261540a
   8a7a4:	20746567 	.word	0x20746567
   8a7a8:	6c676e61 	.word	0x6c676e61
   8a7ac:	203d2065 	.word	0x203d2065
   8a7b0:	00006425 	.word	0x00006425
   8a7b4:	6972440a 	.word	0x6972440a
   8a7b8:	74206576 	.word	0x74206576
   8a7bc:	7173206f 	.word	0x7173206f
   8a7c0:	65726175 	.word	0x65726175
   8a7c4:	00000000 	.word	0x00000000
   8a7c8:	6d61430a 	.word	0x6d61430a
   8a7cc:	20617265 	.word	0x20617265
   8a7d0:	72616553 	.word	0x72616553
   8a7d4:	00006863 	.word	0x00006863
   8a7d8:	736c450a 	.word	0x736c450a
   8a7dc:	61635f65 	.word	0x61635f65
   8a7e0:	6172656d 	.word	0x6172656d
   8a7e4:	00000000 	.word	0x00000000
   8a7e8:	6369500a 	.word	0x6369500a
   8a7ec:	2070756b 	.word	0x2070756b
   8a7f0:	006a626f 	.word	0x006a626f
   8a7f4:	7275540a 	.word	0x7275540a
   8a7f8:	6f74206e 	.word	0x6f74206e
   8a7fc:	786f6220 	.word	0x786f6220
   8a800:	00000000 	.word	0x00000000
   8a804:	7261740a 	.word	0x7261740a
   8a808:	20746567 	.word	0x20746567
   8a80c:	6c676e61 	.word	0x6c676e61
   8a810:	203d2065 	.word	0x203d2065
   8a814:	00006425 	.word	0x00006425
   8a818:	6972440a 	.word	0x6972440a
   8a81c:	74206576 	.word	0x74206576
   8a820:	6f62206f 	.word	0x6f62206f
   8a824:	00000078 	.word	0x00000078
   8a828:	6f72440a 	.word	0x6f72440a
   8a82c:	666f2070 	.word	0x666f2070
   8a830:	00000066 	.word	0x00000066
   8a834:	7275540a 	.word	0x7275540a
   8a838:	6f74206e 	.word	0x6f74206e
   8a83c:	636f5320 	.word	0x636f5320
   8a840:	0000006b 	.word	0x0000006b
   8a844:	6972440a 	.word	0x6972440a
   8a848:	74206576 	.word	0x74206576
   8a84c:	6f73206f 	.word	0x6f73206f
   8a850:	00006b63 	.word	0x00006b63
   8a854:	69616d0a 	.word	0x69616d0a
   8a858:	6564206e 	.word	0x6564206e
   8a85c:	6c756166 	.word	0x6c756166
   8a860:	00000074 	.word	0x00000074
   8a864:	696e490a 	.word	0x696e490a
   8a868:	65732074 	.word	0x65732074
   8a86c:	726f736e 	.word	0x726f736e
   8a870:	004b4f20 	.word	0x004b4f20
   8a874:	7465530a 	.word	0x7465530a
   8a878:	68634520 	.word	0x68634520
   8a87c:	2026206f 	.word	0x2026206f
   8a880:	67697254 	.word	0x67697254
   8a884:	20726567 	.word	0x20726567
   8a888:	00004b4f 	.word	0x00004b4f
   8a88c:	736e6f4b 	.word	0x736e6f4b
   8a890:	6e656c6f 	.word	0x6e656c6f
   8a894:	61657220 	.word	0x61657220
   8a898:	000a6f64 	.word	0x000a6f64
   8a89c:	3d3d3d3d 	.word	0x3d3d3d3d
   8a8a0:	3d3d3d3d 	.word	0x3d3d3d3d
   8a8a4:	3d3d3d3d 	.word	0x3d3d3d3d
   8a8a8:	0a3d3d3d 	.word	0x0a3d3d3d
   8a8ac:	00000000 	.word	0x00000000
   8a8b0:	25202d2d 	.word	0x25202d2d
   8a8b4:	000d0a73 	.word	0x000d0a73
   8a8b8:	75647241 	.word	0x75647241
   8a8bc:	206f6e69 	.word	0x206f6e69
   8a8c0:	2f657544 	.word	0x2f657544
   8a8c4:	00000058 	.word	0x00000058
   8a8c8:	43202d2d 	.word	0x43202d2d
   8a8cc:	69706d6f 	.word	0x69706d6f
   8a8d0:	3a64656c 	.word	0x3a64656c
   8a8d4:	20732520 	.word	0x20732520
   8a8d8:	2d207325 	.word	0x2d207325
   8a8dc:	000d0a2d 	.word	0x000d0a2d
   8a8e0:	2079614d 	.word	0x2079614d
   8a8e4:	32203232 	.word	0x32203232
   8a8e8:	00373130 	.word	0x00373130
   8a8ec:	343a3731 	.word	0x343a3731
   8a8f0:	33343a38 	.word	0x33343a38
   8a8f4:	00000000 	.word	0x00000000
   8a8f8:	6c696857 	.word	0x6c696857
   8a8fc:	74617365 	.word	0x74617365
   8a900:	006e6573 	.word	0x006e6573
   8a904:	09097325 	.word	0x09097325
   8a908:	25096325 	.word	0x25096325
   8a90c:	75250975 	.word	0x75250975
   8a910:	0d752509 	.word	0x0d752509
   8a914:	0000000a 	.word	0x0000000a
   8a918:	454c4449 	.word	0x454c4449
   8a91c:	00000000 	.word	0x00000000
   8a920:	20726d54 	.word	0x20726d54
   8a924:	00637653 	.word	0x00637653
   8a928:	696e490a 	.word	0x696e490a
   8a92c:	6b6f2074 	.word	0x6b6f2074
   8a930:	00000000 	.word	0x00000000
   8a934:	52544c55 	.word	0x52544c55
   8a938:	554a4c41 	.word	0x554a4c41
   8a93c:	45532044 	.word	0x45532044
   8a940:	524f534e 	.word	0x524f534e
   8a944:	00000000 	.word	0x00000000
   8a948:	6c696146 	.word	0x6c696146
   8a94c:	74206465 	.word	0x74206465
   8a950:	55206568 	.word	0x55206568
   8a954:	6172746c 	.word	0x6172746c
   8a958:	74736944 	.word	0x74736944
   8a95c:	65636e61 	.word	0x65636e61
   8a960:	6e655320 	.word	0x6e655320
   8a964:	20726f73 	.word	0x20726f73
   8a968:	6b736154 	.word	0x6b736154
   8a96c:	00000a0d 	.word	0x00000a0d
   8a970:	736f6361 	.word	0x736f6361
   8a974:	00000000 	.word	0x00000000
   8a978:	74727173 	.word	0x74727173
   8a97c:	00000000 	.word	0x00000000
   8a980:	00000043 	.word	0x00000043

0008a984 <_global_impure_ptr>:
   8a984:	200701b0                                ... 

0008a988 <zeroes.6763>:
   8a988:	30303030 30303030 30303030 30303030     0000000000000000
   8a998:	00464e49 00666e69 004e414e 006e616e     INF.inf.NAN.nan.
   8a9a8:	33323130 37363534 42413938 46454443     0123456789ABCDEF
   8a9b8:	00000000 33323130 37363534 62613938     ....0123456789ab
   8a9c8:	66656463 00000000 6c756e28 0000296c     cdef....(null)..

0008a9d8 <blanks.6762>:
   8a9d8:	20202020 20202020 20202020 20202020                     

0008a9e8 <zeroes.6721>:
   8a9e8:	30303030 30303030 30303030 30303030     0000000000000000

0008a9f8 <blanks.6720>:
   8a9f8:	20202020 20202020 20202020 20202020                     
   8aa08:	69666e49 7974696e 00000000 004e614e     Infinity....NaN.
   8aa18:	49534f50 00000058 0000002e 00000000     POSIX...........

0008aa28 <__mprec_tens>:
   8aa28:	00000000 3ff00000 00000000 40240000     .......?......$@
   8aa38:	00000000 40590000 00000000 408f4000     ......Y@.....@.@
   8aa48:	00000000 40c38800 00000000 40f86a00     .......@.....j.@
   8aa58:	00000000 412e8480 00000000 416312d0     .......A......cA
   8aa68:	00000000 4197d784 00000000 41cdcd65     .......A....e..A
   8aa78:	20000000 4202a05f e8000000 42374876     ... _..B....vH7B
   8aa88:	a2000000 426d1a94 e5400000 42a2309c     ......mB..@..0.B
   8aa98:	1e900000 42d6bcc4 26340000 430c6bf5     .......B..4&.k.C
   8aaa8:	37e08000 4341c379 85d8a000 43763457     ...7y.AC....W4vC
   8aab8:	674ec800 43abc16d 60913d00 43e158e4     ..Ngm..C.=.`.X.C
   8aac8:	78b58c40 4415af1d d6e2ef50 444b1ae4     @..x...DP.....KD
   8aad8:	064dd592 4480f0cf c7e14af6 44b52d02     ..M....D.J...-.D
   8aae8:	79d99db4 44ea7843                       ...yCx.D

0008aaf0 <__mprec_bigtens>:
   8aaf0:	37e08000 4341c379 b5056e17 4693b8b5     ...7y.AC.n.....F
   8ab00:	e93ff9f5 4d384f03 f9301d32 5a827748     ..?..O8M2.0.Hw.Z
   8ab10:	7f73bf3c 75154fdd                       <.s..O.u

0008ab18 <p05.5269>:
   8ab18:	00000005 00000019 0000007d              ........}...

0008ab24 <_init>:
   8ab24:	b5f8      	push	{r3, r4, r5, r6, r7, lr}
   8ab26:	bf00      	nop
   8ab28:	bcf8      	pop	{r3, r4, r5, r6, r7}
   8ab2a:	bc08      	pop	{r3}
   8ab2c:	469e      	mov	lr, r3
   8ab2e:	4770      	bx	lr

0008ab30 <__init_array_start>:
   8ab30:	0008700d 	.word	0x0008700d

0008ab34 <__frame_dummy_init_array_entry>:
   8ab34:	00080119                                ....

0008ab38 <_fini>:
   8ab38:	b5f8      	push	{r3, r4, r5, r6, r7, lr}
   8ab3a:	bf00      	nop
   8ab3c:	bcf8      	pop	{r3, r4, r5, r6, r7}
   8ab3e:	bc08      	pop	{r3}
   8ab40:	469e      	mov	lr, r3
   8ab42:	4770      	bx	lr

0008ab44 <__fini_array_start>:
   8ab44:	000800f5 	.word	0x000800f5

Disassembly of section .relocate:

20070000 <portable_delay_cycles>:
20070000:	f3bf 8f5f 	dmb	sy
20070004:	3801      	subs	r0, #1
20070006:	d1fb      	bne.n	20070000 <portable_delay_cycles>
20070008:	4770      	bx	lr
2007000a:	bf00      	nop

2007000c <SystemInit>:
2007000c:	f44f 6380 	mov.w	r3, #1024	; 0x400
20070010:	4a20      	ldr	r2, [pc, #128]	; (20070094 <SystemInit+0x88>)
20070012:	6013      	str	r3, [r2, #0]
20070014:	f502 7200 	add.w	r2, r2, #512	; 0x200
20070018:	6013      	str	r3, [r2, #0]
2007001a:	4b1f      	ldr	r3, [pc, #124]	; (20070098 <SystemInit+0x8c>)
2007001c:	6a1b      	ldr	r3, [r3, #32]
2007001e:	f013 7f80 	tst.w	r3, #16777216	; 0x1000000
20070022:	d107      	bne.n	20070034 <SystemInit+0x28>
20070024:	4a1d      	ldr	r2, [pc, #116]	; (2007009c <SystemInit+0x90>)
20070026:	4b1c      	ldr	r3, [pc, #112]	; (20070098 <SystemInit+0x8c>)
20070028:	621a      	str	r2, [r3, #32]
2007002a:	461a      	mov	r2, r3
2007002c:	6e93      	ldr	r3, [r2, #104]	; 0x68
2007002e:	f013 0f01 	tst.w	r3, #1
20070032:	d0fb      	beq.n	2007002c <SystemInit+0x20>
20070034:	4a1a      	ldr	r2, [pc, #104]	; (200700a0 <SystemInit+0x94>)
20070036:	4b18      	ldr	r3, [pc, #96]	; (20070098 <SystemInit+0x8c>)
20070038:	621a      	str	r2, [r3, #32]
2007003a:	461a      	mov	r2, r3
2007003c:	6e93      	ldr	r3, [r2, #104]	; 0x68
2007003e:	f413 3f80 	tst.w	r3, #65536	; 0x10000
20070042:	d0fb      	beq.n	2007003c <SystemInit+0x30>
20070044:	4b14      	ldr	r3, [pc, #80]	; (20070098 <SystemInit+0x8c>)
20070046:	6b1a      	ldr	r2, [r3, #48]	; 0x30
20070048:	f022 0203 	bic.w	r2, r2, #3
2007004c:	f042 0201 	orr.w	r2, r2, #1
20070050:	631a      	str	r2, [r3, #48]	; 0x30
20070052:	461a      	mov	r2, r3
20070054:	6e93      	ldr	r3, [r2, #104]	; 0x68
20070056:	f013 0f08 	tst.w	r3, #8
2007005a:	d0fb      	beq.n	20070054 <SystemInit+0x48>
2007005c:	4a11      	ldr	r2, [pc, #68]	; (200700a4 <SystemInit+0x98>)
2007005e:	4b0e      	ldr	r3, [pc, #56]	; (20070098 <SystemInit+0x8c>)
20070060:	629a      	str	r2, [r3, #40]	; 0x28
20070062:	461a      	mov	r2, r3
20070064:	6e93      	ldr	r3, [r2, #104]	; 0x68
20070066:	f013 0f02 	tst.w	r3, #2
2007006a:	d0fb      	beq.n	20070064 <SystemInit+0x58>
2007006c:	2211      	movs	r2, #17
2007006e:	4b0a      	ldr	r3, [pc, #40]	; (20070098 <SystemInit+0x8c>)
20070070:	631a      	str	r2, [r3, #48]	; 0x30
20070072:	461a      	mov	r2, r3
20070074:	6e93      	ldr	r3, [r2, #104]	; 0x68
20070076:	f013 0f08 	tst.w	r3, #8
2007007a:	d0fb      	beq.n	20070074 <SystemInit+0x68>
2007007c:	2212      	movs	r2, #18
2007007e:	4b06      	ldr	r3, [pc, #24]	; (20070098 <SystemInit+0x8c>)
20070080:	631a      	str	r2, [r3, #48]	; 0x30
20070082:	461a      	mov	r2, r3
20070084:	6e93      	ldr	r3, [r2, #104]	; 0x68
20070086:	f013 0f08 	tst.w	r3, #8
2007008a:	d0fb      	beq.n	20070084 <SystemInit+0x78>
2007008c:	4a06      	ldr	r2, [pc, #24]	; (200700a8 <SystemInit+0x9c>)
2007008e:	4b07      	ldr	r3, [pc, #28]	; (200700ac <SystemInit+0xa0>)
20070090:	601a      	str	r2, [r3, #0]
20070092:	4770      	bx	lr
20070094:	400e0a00 	.word	0x400e0a00
20070098:	400e0600 	.word	0x400e0600
2007009c:	00370809 	.word	0x00370809
200700a0:	01370809 	.word	0x01370809
200700a4:	200d3f01 	.word	0x200d3f01
200700a8:	0501bd00 	.word	0x0501bd00
200700ac:	200701a4 	.word	0x200701a4

200700b0 <system_init_flash>:
200700b0:	4b1b      	ldr	r3, [pc, #108]	; (20070120 <system_init_flash+0x70>)
200700b2:	4298      	cmp	r0, r3
200700b4:	d806      	bhi.n	200700c4 <system_init_flash+0x14>
200700b6:	2300      	movs	r3, #0
200700b8:	4a1a      	ldr	r2, [pc, #104]	; (20070124 <system_init_flash+0x74>)
200700ba:	6013      	str	r3, [r2, #0]
200700bc:	f502 7200 	add.w	r2, r2, #512	; 0x200
200700c0:	6013      	str	r3, [r2, #0]
200700c2:	4770      	bx	lr
200700c4:	4b18      	ldr	r3, [pc, #96]	; (20070128 <system_init_flash+0x78>)
200700c6:	4298      	cmp	r0, r3
200700c8:	d807      	bhi.n	200700da <system_init_flash+0x2a>
200700ca:	f44f 7380 	mov.w	r3, #256	; 0x100
200700ce:	4a15      	ldr	r2, [pc, #84]	; (20070124 <system_init_flash+0x74>)
200700d0:	6013      	str	r3, [r2, #0]
200700d2:	f502 7200 	add.w	r2, r2, #512	; 0x200
200700d6:	6013      	str	r3, [r2, #0]
200700d8:	4770      	bx	lr
200700da:	4b14      	ldr	r3, [pc, #80]	; (2007012c <system_init_flash+0x7c>)
200700dc:	4298      	cmp	r0, r3
200700de:	d807      	bhi.n	200700f0 <system_init_flash+0x40>
200700e0:	f44f 7300 	mov.w	r3, #512	; 0x200
200700e4:	4a0f      	ldr	r2, [pc, #60]	; (20070124 <system_init_flash+0x74>)
200700e6:	6013      	str	r3, [r2, #0]
200700e8:	f502 7200 	add.w	r2, r2, #512	; 0x200
200700ec:	6013      	str	r3, [r2, #0]
200700ee:	4770      	bx	lr
200700f0:	4b0f      	ldr	r3, [pc, #60]	; (20070130 <system_init_flash+0x80>)
200700f2:	4298      	cmp	r0, r3
200700f4:	d807      	bhi.n	20070106 <system_init_flash+0x56>
200700f6:	f44f 7340 	mov.w	r3, #768	; 0x300
200700fa:	4a0a      	ldr	r2, [pc, #40]	; (20070124 <system_init_flash+0x74>)
200700fc:	6013      	str	r3, [r2, #0]
200700fe:	f502 7200 	add.w	r2, r2, #512	; 0x200
20070102:	6013      	str	r3, [r2, #0]
20070104:	4770      	bx	lr
20070106:	4b0b      	ldr	r3, [pc, #44]	; (20070134 <system_init_flash+0x84>)
20070108:	4298      	cmp	r0, r3
2007010a:	bf94      	ite	ls
2007010c:	f44f 6380 	movls.w	r3, #1024	; 0x400
20070110:	f44f 63a0 	movhi.w	r3, #1280	; 0x500
20070114:	4a03      	ldr	r2, [pc, #12]	; (20070124 <system_init_flash+0x74>)
20070116:	6013      	str	r3, [r2, #0]
20070118:	f502 7200 	add.w	r2, r2, #512	; 0x200
2007011c:	6013      	str	r3, [r2, #0]
2007011e:	4770      	bx	lr
20070120:	0121eabf 	.word	0x0121eabf
20070124:	400e0a00 	.word	0x400e0a00
20070128:	02faf07f 	.word	0x02faf07f
2007012c:	03d08fff 	.word	0x03d08fff
20070130:	04c4b3ff 	.word	0x04c4b3ff
20070134:	055d4a7f 	.word	0x055d4a7f

20070138 <packet_received_pab>:
	...
20070140:	20070a74 00000003 00000002              t.. ........

2007014c <packet_received_nav>:
	...
20070154:	20070a78 00000005 00000003              x.. ........

20070160 <packet_pab>:
	...
20070168:	20070a6c 00000003 00000002              l.. ........

20070174 <packet_nav>:
	...
2007017c:	20070a70 00000001 00000003              p.. ........

20070188 <Kp>:
20070188:	00000004                                ....

2007018c <speed>:
2007018c:	00000672                                r...

20070190 <sensordistance>:
20070190:	0000000a                                ....

20070194 <main_case>:
20070194:	00000001                                ....

20070198 <uxCriticalNesting>:
20070198:	aaaaaaaa                                ....

2007019c <xFreeBytesRemaining>:
2007019c:	00008000                                ....

200701a0 <xNextTaskUnblockTime>:
200701a0:	0001ffff                                         ..

200701a2 <g_interrupt_enabled>:
200701a2:	09000001                                         ..

200701a4 <SystemCoreClock>:
200701a4:	003d0900                                ..=.

200701a8 <__fdlib_version>:
200701a8:	00000001 00000000                       ........

200701b0 <impure_data>:
200701b0:	00000000 2007049c 20070504 2007056c     ....... ... l.. 
	...
200701e4:	0008a980 00000000 00000000 00000000     ................
	...
20070258:	00000001 00000000 abcd330e e66d1234     .........3..4.m.
20070268:	0005deec 0000000b 00000000 00000000     ................
	...

200705d8 <_impure_ptr>:
200705d8:	200701b0                                ... 

200705dc <lconv>:
200705dc:	0008aa20 0008a8ac 0008a8ac 0008a8ac      ...............
200705ec:	0008a8ac 0008a8ac 0008a8ac 0008a8ac     ................
200705fc:	0008a8ac 0008a8ac ffffffff ffffffff     ................
2007060c:	ffffffff 0000ffff                       ........

20070614 <lc_ctype_charset>:
20070614:	49435341 00000049 00000000 00000000     ASCII...........
	...

20070634 <__mb_cur_max>:
20070634:	00000001                                ....

20070638 <__malloc_av_>:
	...
20070640:	20070638 20070638 20070640 20070640     8.. 8.. @.. @.. 
20070650:	20070648 20070648 20070650 20070650     H.. H.. P.. P.. 
20070660:	20070658 20070658 20070660 20070660     X.. X.. `.. `.. 
20070670:	20070668 20070668 20070670 20070670     h.. h.. p.. p.. 
20070680:	20070678 20070678 20070680 20070680     x.. x.. ... ... 
20070690:	20070688 20070688 20070690 20070690     ... ... ... ... 
200706a0:	20070698 20070698 200706a0 200706a0     ... ... ... ... 
200706b0:	200706a8 200706a8 200706b0 200706b0     ... ... ... ... 
200706c0:	200706b8 200706b8 200706c0 200706c0     ... ... ... ... 
200706d0:	200706c8 200706c8 200706d0 200706d0     ... ... ... ... 
200706e0:	200706d8 200706d8 200706e0 200706e0     ... ... ... ... 
200706f0:	200706e8 200706e8 200706f0 200706f0     ... ... ... ... 
20070700:	200706f8 200706f8 20070700 20070700     ... ... ... ... 
20070710:	20070708 20070708 20070710 20070710     ... ... ... ... 
20070720:	20070718 20070718 20070720 20070720     ... ...  ..  .. 
20070730:	20070728 20070728 20070730 20070730     (.. (.. 0.. 0.. 
20070740:	20070738 20070738 20070740 20070740     8.. 8.. @.. @.. 
20070750:	20070748 20070748 20070750 20070750     H.. H.. P.. P.. 
20070760:	20070758 20070758 20070760 20070760     X.. X.. `.. `.. 
20070770:	20070768 20070768 20070770 20070770     h.. h.. p.. p.. 
20070780:	20070778 20070778 20070780 20070780     x.. x.. ... ... 
20070790:	20070788 20070788 20070790 20070790     ... ... ... ... 
200707a0:	20070798 20070798 200707a0 200707a0     ... ... ... ... 
200707b0:	200707a8 200707a8 200707b0 200707b0     ... ... ... ... 
200707c0:	200707b8 200707b8 200707c0 200707c0     ... ... ... ... 
200707d0:	200707c8 200707c8 200707d0 200707d0     ... ... ... ... 
200707e0:	200707d8 200707d8 200707e0 200707e0     ... ... ... ... 
200707f0:	200707e8 200707e8 200707f0 200707f0     ... ... ... ... 
20070800:	200707f8 200707f8 20070800 20070800     ... ... ... ... 
20070810:	20070808 20070808 20070810 20070810     ... ... ... ... 
20070820:	20070818 20070818 20070820 20070820     ... ...  ..  .. 
20070830:	20070828 20070828 20070830 20070830     (.. (.. 0.. 0.. 
20070840:	20070838 20070838 20070840 20070840     8.. 8.. @.. @.. 
20070850:	20070848 20070848 20070850 20070850     H.. H.. P.. P.. 
20070860:	20070858 20070858 20070860 20070860     X.. X.. `.. `.. 
20070870:	20070868 20070868 20070870 20070870     h.. h.. p.. p.. 
20070880:	20070878 20070878 20070880 20070880     x.. x.. ... ... 
20070890:	20070888 20070888 20070890 20070890     ... ... ... ... 
200708a0:	20070898 20070898 200708a0 200708a0     ... ... ... ... 
200708b0:	200708a8 200708a8 200708b0 200708b0     ... ... ... ... 
200708c0:	200708b8 200708b8 200708c0 200708c0     ... ... ... ... 
200708d0:	200708c8 200708c8 200708d0 200708d0     ... ... ... ... 
200708e0:	200708d8 200708d8 200708e0 200708e0     ... ... ... ... 
200708f0:	200708e8 200708e8 200708f0 200708f0     ... ... ... ... 
20070900:	200708f8 200708f8 20070900 20070900     ... ... ... ... 
20070910:	20070908 20070908 20070910 20070910     ... ... ... ... 
20070920:	20070918 20070918 20070920 20070920     ... ...  ..  .. 
20070930:	20070928 20070928 20070930 20070930     (.. (.. 0.. 0.. 
20070940:	20070938 20070938 20070940 20070940     8.. 8.. @.. @.. 
20070950:	20070948 20070948 20070950 20070950     H.. H.. P.. P.. 
20070960:	20070958 20070958 20070960 20070960     X.. X.. `.. `.. 
20070970:	20070968 20070968 20070970 20070970     h.. h.. p.. p.. 
20070980:	20070978 20070978 20070980 20070980     x.. x.. ... ... 
20070990:	20070988 20070988 20070990 20070990     ... ... ... ... 
200709a0:	20070998 20070998 200709a0 200709a0     ... ... ... ... 
200709b0:	200709a8 200709a8 200709b0 200709b0     ... ... ... ... 
200709c0:	200709b8 200709b8 200709c0 200709c0     ... ... ... ... 
200709d0:	200709c8 200709c8 200709d0 200709d0     ... ... ... ... 
200709e0:	200709d8 200709d8 200709e0 200709e0     ... ... ... ... 
200709f0:	200709e8 200709e8 200709f0 200709f0     ... ... ... ... 
20070a00:	200709f8 200709f8 20070a00 20070a00     ... ... ... ... 
20070a10:	20070a08 20070a08 20070a10 20070a10     ... ... ... ... 
20070a20:	20070a18 20070a18 20070a20 20070a20     ... ...  ..  .. 
20070a30:	20070a28 20070a28 20070a30 20070a30     (.. (.. 0.. 0.. 

20070a40 <__malloc_trim_threshold>:
20070a40:	00020000                                ....

20070a44 <__malloc_sbrk_base>:
20070a44:	ffffffff                                ....

20070a48 <__wctomb>:
20070a48:	00089cb9                                ....
